; Listing generated by Microsoft (R) Optimizing Compiler Version 18.00.40629.0 

	TITLE	Z:\GitHub\merikens-tripcode-engine\SourceFiles\Main.cpp
	.686P
	.XMM
	include listing.inc
	.model	flat

INCLUDELIB OLDNAMES

PUBLIC	?numAverageTrialsForOneMatch@@3NA		; numAverageTrialsForOneMatch
PUBLIC	?base64CharTable@@3PADA				; base64CharTable
PUBLIC	?lenTripcodeKey@@3HA				; lenTripcodeKey
PUBLIC	?keyCharTable_OneByte@@3PAEA			; keyCharTable_OneByte
PUBLIC	?keyCharTable_SecondByteAndOneByte@@3PAEA	; keyCharTable_SecondByteAndOneByte
PUBLIC	?options@@3UOptions@@A				; options
PUBLIC	?keyCharTable_SecondByte@@3PAEA			; keyCharTable_SecondByte
PUBLIC	?tripcodeFilePath@@3PADA			; tripcodeFilePath
PUBLIC	??_7?$_LaunchPad@V?$_Bind@$00XQ6AXPAUOpenCLDeviceSearchThreadInfo@@@ZPAU1@@std@@@std@@6B@ ; std::_LaunchPad<std::_Bind<1,void,void (__cdecl*const)(OpenCLDeviceSearchThreadInfo *),OpenCLDeviceSearchThreadInfo *> >::`vftable'
PUBLIC	?lenTripcode@@3HA				; lenTripcode
PUBLIC	?openCLDeviceSearchThreadInfoArray@@3PAUOpenCLDeviceSearchThreadInfo@@A ; openCLDeviceSearchThreadInfoArray
PUBLIC	??_R1A@?0A@EA@?$_LaunchPad@V?$_Bind@$00XQ6AXXZ$$$V@std@@@std@@8 ; std::_LaunchPad<std::_Bind<1,void,void (__cdecl*const)(void)> >::`RTTI Base Class Descriptor at (0,-1,0,64)'
PUBLIC	?wasSearchAbortedWithError@@3HA			; wasSearchAbortedWithError
PUBLIC	??_R2?$_LaunchPad@V?$_Bind@$00XQ6AXPAUCUDADeviceSearchThreadInfo@@@ZPAU1@@std@@@std@@8 ; std::_LaunchPad<std::_Bind<1,void,void (__cdecl*const)(CUDADeviceSearchThreadInfo *),CUDADeviceSearchThreadInfo *> >::`RTTI Base Class Array'
PUBLIC	?prevTotalNumGeneratedTripcodes_GPU@@3NA	; prevTotalNumGeneratedTripcodes_GPU
PUBLIC	?CUDADeviceCount@@3HA				; CUDADeviceCount
PUBLIC	?openCLDeviceCount@@3HA				; openCLDeviceCount
PUBLIC	??_R0?AV?$_LaunchPad@V?$_Bind@$00XQ6AXPAUCUDADeviceSearchThreadInfo@@@ZPAU1@@std@@@std@@@8 ; std::_LaunchPad<std::_Bind<1,void,void (__cdecl*const)(CUDADeviceSearchThreadInfo *),CUDADeviceSearchThreadInfo *> > `RTTI Type Descriptor'
PUBLIC	?patternFilePathArray@@3PAY0EAB@DA		; patternFilePathArray
PUBLIC	??_R0?AV_Pad@std@@@8				; std::_Pad `RTTI Type Descriptor'
PUBLIC	??_R4?$_LaunchPad@V?$_Bind@$00XQ6AXXZ$$$V@std@@@std@@6B@ ; std::_LaunchPad<std::_Bind<1,void,void (__cdecl*const)(void)> >::`RTTI Complete Object Locator'
PUBLIC	??_R3?$_LaunchPad@V?$_Bind@$00XQ6AXPAUCUDADeviceSearchThreadInfo@@@ZPAU1@@std@@@std@@8 ; std::_LaunchPad<std::_Bind<1,void,void (__cdecl*const)(CUDADeviceSearchThreadInfo *),CUDADeviceSearchThreadInfo *> >::`RTTI Class Hierarchy Descriptor'
PUBLIC	?openCLRunChildProcesses@@3HA			; openCLRunChildProcesses
PUBLIC	??_R3_Pad@std@@8				; std::_Pad::`RTTI Class Hierarchy Descriptor'
PUBLIC	?totalNumGeneratedTripcodes_CPU@@3NA		; totalNumGeneratedTripcodes_CPU
PUBLIC	?prevNumValidTripcodes@@3IA			; prevNumValidTripcodes
PUBLIC	?numOneByte@@3HA				; numOneByte
PUBLIC	?eventForTerminating@@3PAXA			; eventForTerminating
PUBLIC	??_R3?$_LaunchPad@V?$_Bind@$00XQ6AXPAUOpenCLDeviceSearchThreadInfo@@@ZPAU1@@std@@@std@@8 ; std::_LaunchPad<std::_Bind<1,void,void (__cdecl*const)(OpenCLDeviceSearchThreadInfo *),OpenCLDeviceSearchThreadInfo *> >::`RTTI Class Hierarchy Descriptor'
PUBLIC	?applicationPath@@3PADA				; applicationPath
PUBLIC	?numOpenCLDeviceSearchThreads@@3HA		; numOpenCLDeviceSearchThreads
PUBLIC	?numPatternFiles@@3HA				; numPatternFiles
PUBLIC	??_R1A@?0A@EA@_Pad@std@@8			; std::_Pad::`RTTI Base Class Descriptor at (0,-1,0,64)'
PUBLIC	?nameEventForTerminating@@3PADA			; nameEventForTerminating
PUBLIC	?keyCharTable_FirstByte@@3PAEA			; keyCharTable_FirstByte
PUBLIC	??_R1A@?0A@EA@?$_LaunchPad@V?$_Bind@$00XQ6AXPAUCUDADeviceSearchThreadInfo@@@ZPAU1@@std@@@std@@8 ; std::_LaunchPad<std::_Bind<1,void,void (__cdecl*const)(CUDADeviceSearchThreadInfo *),CUDADeviceSearchThreadInfo *> >::`RTTI Base Class Descriptor at (0,-1,0,64)'
PUBLIC	?numGeneratedTripcodes_GPU@@3IA			; numGeneratedTripcodes_GPU
PUBLIC	?numGeneratedTripcodesByGPUInMillions@@3IA	; numGeneratedTripcodesByGPUInMillions
PUBLIC	?currentSpeed_CPU@@3NA				; currentSpeed_CPU
PUBLIC	??_R2_Pad@std@@8				; std::_Pad::`RTTI Base Class Array'
PUBLIC	?opencl_device_search_threads@@3PAPAVthread@std@@A ; opencl_device_search_threads
PUBLIC	?numFirstByte@@3HA				; numFirstByte
PUBLIC	?cpu_search_threads@@3PAPAVthread@std@@A	; cpu_search_threads
PUBLIC	??_7?$_LaunchPad@V?$_Bind@$00XQ6AXPAUCUDADeviceSearchThreadInfo@@@ZPAU1@@std@@@std@@6B@ ; std::_LaunchPad<std::_Bind<1,void,void (__cdecl*const)(CUDADeviceSearchThreadInfo *),CUDADeviceSearchThreadInfo *> >::`vftable'
PUBLIC	?numGeneratedTripcodes_CPU@@3IA			; numGeneratedTripcodes_CPU
PUBLIC	??_R4?$_LaunchPad@V?$_Bind@$00XQ6AXPAUCUDADeviceSearchThreadInfo@@@ZPAU1@@std@@@std@@6B@ ; std::_LaunchPad<std::_Bind<1,void,void (__cdecl*const)(CUDADeviceSearchThreadInfo *),CUDADeviceSearchThreadInfo *> >::`RTTI Complete Object Locator'
PUBLIC	?totalTime@@3NA					; totalTime
PUBLIC	??_R2?$_LaunchPad@V?$_Bind@$00XQ6AXPAUOpenCLDeviceSearchThreadInfo@@@ZPAU1@@std@@@std@@8 ; std::_LaunchPad<std::_Bind<1,void,void (__cdecl*const)(OpenCLDeviceSearchThreadInfo *),OpenCLDeviceSearchThreadInfo *> >::`RTTI Base Class Array'
PUBLIC	?currentSpeed_thisProcess@@3NA			; currentSpeed_thisProcess
PUBLIC	?searchMode@@3HA				; searchMode
PUBLIC	??_R4?$_LaunchPad@V?$_Bind@$00XQ6AXPAUOpenCLDeviceSearchThreadInfo@@@ZPAU1@@std@@@std@@6B@ ; std::_LaunchPad<std::_Bind<1,void,void (__cdecl*const)(OpenCLDeviceSearchThreadInfo *),OpenCLDeviceSearchThreadInfo *> >::`RTTI Complete Object Locator'
PUBLIC	?prevTotalNumGeneratedTripcodes@@3NA		; prevTotalNumGeneratedTripcodes
PUBLIC	?prevNumDiscardedTripcodes@@3IA			; prevNumDiscardedTripcodes
PUBLIC	?numValidTripcodes@@3IA				; numValidTripcodes
PUBLIC	??_R2?$_LaunchPad@V?$_Bind@$00XQ6AXXZ$$$V@std@@@std@@8 ; std::_LaunchPad<std::_Bind<1,void,void (__cdecl*const)(void)> >::`RTTI Base Class Array'
PUBLIC	?isSearchPaused@@3HA				; isSearchPaused
PUBLIC	??_7?$_LaunchPad@V?$_Bind@$00XQ6AXXZ$$$V@std@@@std@@6B@ ; std::_LaunchPad<std::_Bind<1,void,void (__cdecl*const)(void)> >::`vftable'
PUBLIC	?cuda_device_search_threads@@3PAPAVthread@std@@A ; cuda_device_search_threads
PUBLIC	?tripcodeFile@@3PAU_iobuf@@A			; tripcodeFile
PUBLIC	?numCUDADeviceSearchThreads@@3HA		; numCUDADeviceSearchThreads
PUBLIC	?wasSearchTerminated@@3HA			; wasSearchTerminated
PUBLIC	?numSecondByte@@3HA				; numSecondByte
PUBLIC	?nameMutexForPausing@@3PADA			; nameMutexForPausing
PUBLIC	?CUDADeviceSearchThreadInfoArray@@3PAUCUDADeviceSearchThreadInfo@@A ; CUDADeviceSearchThreadInfoArray
PUBLIC	?numGeneratedTripcodesByCPUInMillions@@3IA	; numGeneratedTripcodesByCPUInMillions
PUBLIC	?openCLDeviceIDArray@@3PAPAU_cl_device_id@@A	; openCLDeviceIDArray
PUBLIC	??_R0?AV?$_LaunchPad@V?$_Bind@$00XQ6AXPAUOpenCLDeviceSearchThreadInfo@@@ZPAU1@@std@@@std@@@8 ; std::_LaunchPad<std::_Bind<1,void,void (__cdecl*const)(OpenCLDeviceSearchThreadInfo *),OpenCLDeviceSearchThreadInfo *> > `RTTI Type Descriptor'
PUBLIC	?currentSpeed_thisProcess_GPU@@3NA		; currentSpeed_thisProcess_GPU
PUBLIC	??_R3?$_LaunchPad@V?$_Bind@$00XQ6AXXZ$$$V@std@@@std@@8 ; std::_LaunchPad<std::_Bind<1,void,void (__cdecl*const)(void)> >::`RTTI Class Hierarchy Descriptor'
PUBLIC	?totalNumGeneratedTripcodes_GPU@@3NA		; totalNumGeneratedTripcodes_GPU
PUBLIC	?totalNumGeneratedTripcodes@@3NA		; totalNumGeneratedTripcodes
PUBLIC	?maximumSpeed@@3NA				; maximumSpeed
PUBLIC	?numCPUSearchThreads@@3HA			; numCPUSearchThreads
PUBLIC	?numDiscardedTripcodes@@3IA			; numDiscardedTripcodes
PUBLIC	??_R0?AV?$_LaunchPad@V?$_Bind@$00XQ6AXXZ$$$V@std@@@std@@@8 ; std::_LaunchPad<std::_Bind<1,void,void (__cdecl*const)(void)> > `RTTI Type Descriptor'
PUBLIC	??_R1A@?0A@EA@?$_LaunchPad@V?$_Bind@$00XQ6AXPAUOpenCLDeviceSearchThreadInfo@@@ZPAU1@@std@@@std@@8 ; std::_LaunchPad<std::_Bind<1,void,void (__cdecl*const)(OpenCLDeviceSearchThreadInfo *),OpenCLDeviceSearchThreadInfo *> >::`RTTI Base Class Descriptor at (0,-1,0,64)'
PUBLIC	?prevTotalNumGeneratedTripcodes_CPU@@3NA	; prevTotalNumGeneratedTripcodes_CPU
PUBLIC	?prevLineCount@@3HA				; prevLineCount
PUBLIC	?matchingProb@@3NA				; matchingProb
PUBLIC	?applicationDirectory@@3PADA			; applicationDirectory
PUBLIC	?searchDevice@@3HA				; searchDevice
EXTRN	_getchar:PROC
EXTRN	??2@YAPAXIABUnothrow_t@std@@@Z:PROC		; operator new
EXTRN	_exit:PROC
EXTRN	__imp__GetCurrentProcessId@0:PROC
EXTRN	__imp__ReleaseMutex@4:PROC
EXTRN	__imp__OpenEventW@12:PROC
EXTRN	__imp__CreateToolhelp32Snapshot@8:PROC
EXTRN	__imp__cudaGetErrorString@4:PROC
EXTRN	__imp__SetConsoleCursorInfo@8:PROC
EXTRN	__imp__Process32NextW@8:PROC
EXTRN	?Thread_SearchForDESTripcodesOnCUDADevice@@YAXPAUCUDADeviceSearchThreadInfo@@@Z:PROC ; Thread_SearchForDESTripcodesOnCUDADevice
EXTRN	?terminate@@YAXXZ:PROC				; terminate
EXTRN	__imp__GetSystemInfo@4:PROC
EXTRN	__imp__SetConsoleCtrlHandler@8:PROC
EXTRN	__imp__GetConsoleScreenBufferInfo@8:PROC
EXTRN	__imp__Process32FirstW@8:PROC
EXTRN	__fullpath:PROC
EXTRN	_rand_s:PROC
EXTRN	?Thread_SearchForSHA1TripcodesOnCUDADevice@@YAXPAUCUDADeviceSearchThreadInfo@@@Z:PROC ; Thread_SearchForSHA1TripcodesOnCUDADevice
EXTRN	?Thread_SearchForDESTripcodesOnCUDADevice_Registers@@YAXPAUCUDADeviceSearchThreadInfo@@@Z:PROC ; Thread_SearchForDESTripcodesOnCUDADevice_Registers
EXTRN	??3@YAXPAXABUnothrow_t@std@@@Z:PROC		; operator delete
EXTRN	__imp__OpenMutexW@12:PROC
EXTRN	__imp__GetStdHandle@4:PROC
EXTRN	__imp__MultiByteToWideChar@24:PROC
EXTRN	__imp__clGetDeviceIDs@24:PROC
EXTRN	__imp__cudaGetDeviceProperties@8:PROC
EXTRN	__imp__SetConsoleCursorPosition@8:PROC
EXTRN	__imp__clGetPlatformInfo@20:PROC
EXTRN	__imp__TerminateThread@8:PROC
EXTRN	__imp__OpenProcess@12:PROC
EXTRN	?TestNewCode@@YAXXZ:PROC			; TestNewCode
EXTRN	__imp__clGetPlatformIDs@12:PROC
EXTRN	_atoi:PROC
EXTRN	__imp__cudaGetDeviceCount@4:PROC
EXTRN	__Thrd_detach:PROC
EXTRN	__imp__WaitForSingleObject@8:PROC
EXTRN	??_U@YAPAXIABUnothrow_t@std@@@Z:PROC		; operator new[]
EXTRN	??1_Pad@std@@QAE@XZ:PROC			; std::_Pad::~_Pad
EXTRN	??0_Pad@std@@QAE@XZ:PROC			; std::_Pad::_Pad
EXTRN	?_Release@_Pad@std@@QAEXXZ:PROC			; std::_Pad::_Release
EXTRN	?_Launch@_Pad@std@@QAEXPAU_Thrd_imp_t@@@Z:PROC	; std::_Pad::_Launch
EXTRN	?nothrow@std@@3Unothrow_t@1@B:BYTE		; std::nothrow
EXTRN	?_Throw_C_error@std@@YAXH@Z:PROC		; std::_Throw_C_error
EXTRN	?_Throw_Cpp_error@std@@YAXH@Z:PROC		; std::_Throw_Cpp_error
?numAverageTrialsForOneMatch@@3NA DQ 01H DUP (?)	; numAverageTrialsForOneMatch
?keyCharTable_OneByte@@3PAEA DB 0200H DUP (?)		; keyCharTable_OneByte
?keyCharTable_SecondByteAndOneByte@@3PAEA DB 0200H DUP (?) ; keyCharTable_SecondByteAndOneByte
?keyCharTable_SecondByte@@3PAEA DB 0200H DUP (?)	; keyCharTable_SecondByte
?tripcodeFilePath@@3PADA DB 0401H DUP (?)		; tripcodeFilePath
	ALIGN	4

?openCLDeviceSearchThreadInfoArray@@3PAUOpenCLDeviceSearchThreadInfo@@A DD 01H DUP (?) ; openCLDeviceSearchThreadInfoArray
?wasSearchAbortedWithError@@3HA DD 01H DUP (?)		; wasSearchAbortedWithError
	ALIGN	8

?prevTotalNumGeneratedTripcodes_GPU@@3NA DQ 01H DUP (?)	; prevTotalNumGeneratedTripcodes_GPU
?CUDADeviceCount@@3HA DD 01H DUP (?)			; CUDADeviceCount
?openCLDeviceCount@@3HA DD 01H DUP (?)			; openCLDeviceCount
?patternFilePathArray@@3PAY0EAB@DA DB 040100H DUP (?)	; patternFilePathArray
?openCLRunChildProcesses@@3HA DD 01H DUP (?)		; openCLRunChildProcesses
	ALIGN	8

?totalNumGeneratedTripcodes_CPU@@3NA DQ 01H DUP (?)	; totalNumGeneratedTripcodes_CPU
?prevNumValidTripcodes@@3IA DD 01H DUP (?)		; prevNumValidTripcodes
?numOneByte@@3HA DD 01H DUP (?)				; numOneByte
?eventForTerminating@@3PAXA DD 01H DUP (?)		; eventForTerminating
?applicationPath@@3PADA DB 0401H DUP (?)		; applicationPath
	ALIGN	4

?numOpenCLDeviceSearchThreads@@3HA DD 01H DUP (?)	; numOpenCLDeviceSearchThreads
?numPatternFiles@@3HA DD 01H DUP (?)			; numPatternFiles
?nameEventForTerminating@@3PADA DB 0101H DUP (?)	; nameEventForTerminating
	ALIGN	4

?keyCharTable_FirstByte@@3PAEA DB 0200H DUP (?)		; keyCharTable_FirstByte
?numGeneratedTripcodes_GPU@@3IA DD 01H DUP (?)		; numGeneratedTripcodes_GPU
?numGeneratedTripcodesByGPUInMillions@@3IA DD 01H DUP (?) ; numGeneratedTripcodesByGPUInMillions
	ALIGN	8

?currentSpeed_CPU@@3NA DQ 01H DUP (?)			; currentSpeed_CPU
?opencl_device_search_threads@@3PAPAVthread@std@@A DD 01H DUP (?) ; opencl_device_search_threads
?numFirstByte@@3HA DD 01H DUP (?)			; numFirstByte
?cpu_search_threads@@3PAPAVthread@std@@A DD 01H DUP (?)	; cpu_search_threads
?numGeneratedTripcodes_CPU@@3IA DD 01H DUP (?)		; numGeneratedTripcodes_CPU
?totalTime@@3NA DQ 01H DUP (?)				; totalTime
?currentSpeed_thisProcess@@3NA DQ 01H DUP (?)		; currentSpeed_thisProcess
?prevTotalNumGeneratedTripcodes@@3NA DQ 01H DUP (?)	; prevTotalNumGeneratedTripcodes
?prevNumDiscardedTripcodes@@3IA DD 01H DUP (?)		; prevNumDiscardedTripcodes
?numValidTripcodes@@3IA DD 01H DUP (?)			; numValidTripcodes
?isSearchPaused@@3HA DD 01H DUP (?)			; isSearchPaused
?cuda_device_search_threads@@3PAPAVthread@std@@A DD 01H DUP (?) ; cuda_device_search_threads
?tripcodeFile@@3PAU_iobuf@@A DD 01H DUP (?)		; tripcodeFile
?numCUDADeviceSearchThreads@@3HA DD 01H DUP (?)		; numCUDADeviceSearchThreads
?wasSearchTerminated@@3HA DD 01H DUP (?)		; wasSearchTerminated
?numSecondByte@@3HA DD 01H DUP (?)			; numSecondByte
?nameMutexForPausing@@3PADA DB 0101H DUP (?)		; nameMutexForPausing
	ALIGN	4

?CUDADeviceSearchThreadInfoArray@@3PAUCUDADeviceSearchThreadInfo@@A DD 01H DUP (?) ; CUDADeviceSearchThreadInfoArray
?numGeneratedTripcodesByCPUInMillions@@3IA DD 01H DUP (?) ; numGeneratedTripcodesByCPUInMillions
?openCLDeviceIDArray@@3PAPAU_cl_device_id@@A DD 01H DUP (?) ; openCLDeviceIDArray
_nameEventForTerminatingWC DW 0101H DUP (?)
	ALIGN	8

?currentSpeed_thisProcess_GPU@@3NA DQ 01H DUP (?)	; currentSpeed_thisProcess_GPU
?totalNumGeneratedTripcodes_GPU@@3NA DQ 01H DUP (?)	; totalNumGeneratedTripcodes_GPU
?totalNumGeneratedTripcodes@@3NA DQ 01H DUP (?)		; totalNumGeneratedTripcodes
?maximumSpeed@@3NA DQ 01H DUP (?)			; maximumSpeed
_nameMutexForPausingWC DW 0101H DUP (?)
	ALIGN	4

?numCPUSearchThreads@@3HA DD 01H DUP (?)		; numCPUSearchThreads
?numDiscardedTripcodes@@3IA DD 01H DUP (?)		; numDiscardedTripcodes
	ALIGN	8

?prevTotalNumGeneratedTripcodes_CPU@@3NA DQ 01H DUP (?)	; prevTotalNumGeneratedTripcodes_CPU
?prevLineCount@@3HA DD 01H DUP (?)			; prevLineCount
	ALIGN	8

?matchingProb@@3NA DQ 01H DUP (?)			; matchingProb
?applicationDirectory@@3PADA DB 0401H DUP (?)		; applicationDirectory
	ALIGN	4

?searchDevice@@3HA DD 01H DUP (?)			; searchDevice
_BSS	ENDS
;	COMDAT ??_R1A@?0A@EA@?$_LaunchPad@V?$_Bind@$00XQ6AXPAUOpenCLDeviceSearchThreadInfo@@@ZPAU1@@std@@@std@@8
rdata$r	SEGMENT
??_R1A@?0A@EA@?$_LaunchPad@V?$_Bind@$00XQ6AXPAUOpenCLDeviceSearchThreadInfo@@@ZPAU1@@std@@@std@@8 DD FLAT:??_R0?AV?$_LaunchPad@V?$_Bind@$00XQ6AXPAUOpenCLDeviceSearchThreadInfo@@@ZPAU1@@std@@@std@@@8 ; std::_LaunchPad<std::_Bind<1,void,void (__cdecl*const)(OpenCLDeviceSearchThreadInfo *),OpenCLDeviceSearchThreadInfo *> >::`RTTI Base Class Descriptor at (0,-1,0,64)'
	DD	01H
	DD	00H
	DD	0ffffffffH
	DD	00H
	DD	040H
	DD	FLAT:??_R3?$_LaunchPad@V?$_Bind@$00XQ6AXPAUOpenCLDeviceSearchThreadInfo@@@ZPAU1@@std@@@std@@8
rdata$r	ENDS
;	COMDAT ??_R0?AV?$_LaunchPad@V?$_Bind@$00XQ6AXXZ$$$V@std@@@std@@@8
data$r	SEGMENT
??_R0?AV?$_LaunchPad@V?$_Bind@$00XQ6AXXZ$$$V@std@@@std@@@8 DD FLAT:??_7type_info@@6B@ ; std::_LaunchPad<std::_Bind<1,void,void (__cdecl*const)(void)> > `RTTI Type Descriptor'
	DD	00H
	DB	'.?AV?$_LaunchPad@V?$_Bind@$00XQ6AXXZ$$$V@std@@@std@@', 00H
data$r	ENDS
;	COMDAT ??_R3?$_LaunchPad@V?$_Bind@$00XQ6AXXZ$$$V@std@@@std@@8
rdata$r	SEGMENT
??_R3?$_LaunchPad@V?$_Bind@$00XQ6AXXZ$$$V@std@@@std@@8 DD 00H ; std::_LaunchPad<std::_Bind<1,void,void (__cdecl*const)(void)> >::`RTTI Class Hierarchy Descriptor'
	DD	00H
	DD	02H
	DD	FLAT:??_R2?$_LaunchPad@V?$_Bind@$00XQ6AXXZ$$$V@std@@@std@@8
rdata$r	ENDS
;	COMDAT ??_R0?AV?$_LaunchPad@V?$_Bind@$00XQ6AXPAUOpenCLDeviceSearchThreadInfo@@@ZPAU1@@std@@@std@@@8
data$r	SEGMENT
??_R0?AV?$_LaunchPad@V?$_Bind@$00XQ6AXPAUOpenCLDeviceSearchThreadInfo@@@ZPAU1@@std@@@std@@@8 DD FLAT:??_7type_info@@6B@ ; std::_LaunchPad<std::_Bind<1,void,void (__cdecl*const)(OpenCLDeviceSearchThreadInfo *),OpenCLDeviceSearchThreadInfo *> > `RTTI Type Descriptor'
	DD	00H
	DB	'.?AV?$_LaunchPad@V?$_Bind@$00XQ6AXPAUOpenCLDeviceSearchT'
	DB	'hreadInfo@@@ZPAU1@@std@@@std@@', 00H
data$r	ENDS
;	COMDAT ??_7?$_LaunchPad@V?$_Bind@$00XQ6AXXZ$$$V@std@@@std@@6B@
CONST	SEGMENT
??_7?$_LaunchPad@V?$_Bind@$00XQ6AXXZ$$$V@std@@@std@@6B@ DD FLAT:??_R4?$_LaunchPad@V?$_Bind@$00XQ6AXXZ$$$V@std@@@std@@6B@ ; std::_LaunchPad<std::_Bind<1,void,void (__cdecl*const)(void)> >::`vftable'
	DD	FLAT:?_Go@?$_LaunchPad@V?$_Bind@$00XQ6AXXZ$$$V@std@@@std@@UAEIXZ
CONST	ENDS
;	COMDAT ??_R2?$_LaunchPad@V?$_Bind@$00XQ6AXXZ$$$V@std@@@std@@8
rdata$r	SEGMENT
??_R2?$_LaunchPad@V?$_Bind@$00XQ6AXXZ$$$V@std@@@std@@8 DD FLAT:??_R1A@?0A@EA@?$_LaunchPad@V?$_Bind@$00XQ6AXXZ$$$V@std@@@std@@8 ; std::_LaunchPad<std::_Bind<1,void,void (__cdecl*const)(void)> >::`RTTI Base Class Array'
	DD	FLAT:??_R1A@?0A@EA@_Pad@std@@8
rdata$r	ENDS
;	COMDAT ??_R4?$_LaunchPad@V?$_Bind@$00XQ6AXPAUOpenCLDeviceSearchThreadInfo@@@ZPAU1@@std@@@std@@6B@
rdata$r	SEGMENT
??_R4?$_LaunchPad@V?$_Bind@$00XQ6AXPAUOpenCLDeviceSearchThreadInfo@@@ZPAU1@@std@@@std@@6B@ DD 00H ; std::_LaunchPad<std::_Bind<1,void,void (__cdecl*const)(OpenCLDeviceSearchThreadInfo *),OpenCLDeviceSearchThreadInfo *> >::`RTTI Complete Object Locator'
	DD	00H
	DD	00H
	DD	FLAT:??_R0?AV?$_LaunchPad@V?$_Bind@$00XQ6AXPAUOpenCLDeviceSearchThreadInfo@@@ZPAU1@@std@@@std@@@8
	DD	FLAT:??_R3?$_LaunchPad@V?$_Bind@$00XQ6AXPAUOpenCLDeviceSearchThreadInfo@@@ZPAU1@@std@@@std@@8
rdata$r	ENDS
;	COMDAT ??_R2?$_LaunchPad@V?$_Bind@$00XQ6AXPAUOpenCLDeviceSearchThreadInfo@@@ZPAU1@@std@@@std@@8
rdata$r	SEGMENT
??_R2?$_LaunchPad@V?$_Bind@$00XQ6AXPAUOpenCLDeviceSearchThreadInfo@@@ZPAU1@@std@@@std@@8 DD FLAT:??_R1A@?0A@EA@?$_LaunchPad@V?$_Bind@$00XQ6AXPAUOpenCLDeviceSearchThreadInfo@@@ZPAU1@@std@@@std@@8 ; std::_LaunchPad<std::_Bind<1,void,void (__cdecl*const)(OpenCLDeviceSearchThreadInfo *),OpenCLDeviceSearchThreadInfo *> >::`RTTI Base Class Array'
	DD	FLAT:??_R1A@?0A@EA@_Pad@std@@8
rdata$r	ENDS
;	COMDAT ??_R4?$_LaunchPad@V?$_Bind@$00XQ6AXPAUCUDADeviceSearchThreadInfo@@@ZPAU1@@std@@@std@@6B@
rdata$r	SEGMENT
??_R4?$_LaunchPad@V?$_Bind@$00XQ6AXPAUCUDADeviceSearchThreadInfo@@@ZPAU1@@std@@@std@@6B@ DD 00H ; std::_LaunchPad<std::_Bind<1,void,void (__cdecl*const)(CUDADeviceSearchThreadInfo *),CUDADeviceSearchThreadInfo *> >::`RTTI Complete Object Locator'
	DD	00H
	DD	00H
	DD	FLAT:??_R0?AV?$_LaunchPad@V?$_Bind@$00XQ6AXPAUCUDADeviceSearchThreadInfo@@@ZPAU1@@std@@@std@@@8
	DD	FLAT:??_R3?$_LaunchPad@V?$_Bind@$00XQ6AXPAUCUDADeviceSearchThreadInfo@@@ZPAU1@@std@@@std@@8
rdata$r	ENDS
;	COMDAT ??_7?$_LaunchPad@V?$_Bind@$00XQ6AXPAUCUDADeviceSearchThreadInfo@@@ZPAU1@@std@@@std@@6B@
CONST	SEGMENT
??_7?$_LaunchPad@V?$_Bind@$00XQ6AXPAUCUDADeviceSearchThreadInfo@@@ZPAU1@@std@@@std@@6B@ DD FLAT:??_R4?$_LaunchPad@V?$_Bind@$00XQ6AXPAUCUDADeviceSearchThreadInfo@@@ZPAU1@@std@@@std@@6B@ ; std::_LaunchPad<std::_Bind<1,void,void (__cdecl*const)(CUDADeviceSearchThreadInfo *),CUDADeviceSearchThreadInfo *> >::`vftable'
	DD	FLAT:?_Go@?$_LaunchPad@V?$_Bind@$00XQ6AXPAUCUDADeviceSearchThreadInfo@@@ZPAU1@@std@@@std@@UAEIXZ
CONST	ENDS
;	COMDAT ??_R2_Pad@std@@8
rdata$r	SEGMENT
??_R2_Pad@std@@8 DD FLAT:??_R1A@?0A@EA@_Pad@std@@8	; std::_Pad::`RTTI Base Class Array'
rdata$r	ENDS
;	COMDAT ??_R1A@?0A@EA@?$_LaunchPad@V?$_Bind@$00XQ6AXPAUCUDADeviceSearchThreadInfo@@@ZPAU1@@std@@@std@@8
rdata$r	SEGMENT
??_R1A@?0A@EA@?$_LaunchPad@V?$_Bind@$00XQ6AXPAUCUDADeviceSearchThreadInfo@@@ZPAU1@@std@@@std@@8 DD FLAT:??_R0?AV?$_LaunchPad@V?$_Bind@$00XQ6AXPAUCUDADeviceSearchThreadInfo@@@ZPAU1@@std@@@std@@@8 ; std::_LaunchPad<std::_Bind<1,void,void (__cdecl*const)(CUDADeviceSearchThreadInfo *),CUDADeviceSearchThreadInfo *> >::`RTTI Base Class Descriptor at (0,-1,0,64)'
	DD	01H
	DD	00H
	DD	0ffffffffH
	DD	00H
	DD	040H
	DD	FLAT:??_R3?$_LaunchPad@V?$_Bind@$00XQ6AXPAUCUDADeviceSearchThreadInfo@@@ZPAU1@@std@@@std@@8
rdata$r	ENDS
;	COMDAT ??_R1A@?0A@EA@_Pad@std@@8
rdata$r	SEGMENT
??_R1A@?0A@EA@_Pad@std@@8 DD FLAT:??_R0?AV_Pad@std@@@8	; std::_Pad::`RTTI Base Class Descriptor at (0,-1,0,64)'
	DD	00H
	DD	00H
	DD	0ffffffffH
	DD	00H
	DD	040H
	DD	FLAT:??_R3_Pad@std@@8
rdata$r	ENDS
;	COMDAT ??_R3?$_LaunchPad@V?$_Bind@$00XQ6AXPAUOpenCLDeviceSearchThreadInfo@@@ZPAU1@@std@@@std@@8
rdata$r	SEGMENT
??_R3?$_LaunchPad@V?$_Bind@$00XQ6AXPAUOpenCLDeviceSearchThreadInfo@@@ZPAU1@@std@@@std@@8 DD 00H ; std::_LaunchPad<std::_Bind<1,void,void (__cdecl*const)(OpenCLDeviceSearchThreadInfo *),OpenCLDeviceSearchThreadInfo *> >::`RTTI Class Hierarchy Descriptor'
	DD	00H
	DD	02H
	DD	FLAT:??_R2?$_LaunchPad@V?$_Bind@$00XQ6AXPAUOpenCLDeviceSearchThreadInfo@@@ZPAU1@@std@@@std@@8
rdata$r	ENDS
;	COMDAT ??_R3_Pad@std@@8
rdata$r	SEGMENT
??_R3_Pad@std@@8 DD 00H					; std::_Pad::`RTTI Class Hierarchy Descriptor'
	DD	00H
	DD	01H
	DD	FLAT:??_R2_Pad@std@@8
rdata$r	ENDS
;	COMDAT ??_R3?$_LaunchPad@V?$_Bind@$00XQ6AXPAUCUDADeviceSearchThreadInfo@@@ZPAU1@@std@@@std@@8
rdata$r	SEGMENT
??_R3?$_LaunchPad@V?$_Bind@$00XQ6AXPAUCUDADeviceSearchThreadInfo@@@ZPAU1@@std@@@std@@8 DD 00H ; std::_LaunchPad<std::_Bind<1,void,void (__cdecl*const)(CUDADeviceSearchThreadInfo *),CUDADeviceSearchThreadInfo *> >::`RTTI Class Hierarchy Descriptor'
	DD	00H
	DD	02H
	DD	FLAT:??_R2?$_LaunchPad@V?$_Bind@$00XQ6AXPAUCUDADeviceSearchThreadInfo@@@ZPAU1@@std@@@std@@8
rdata$r	ENDS
;	COMDAT ??_R4?$_LaunchPad@V?$_Bind@$00XQ6AXXZ$$$V@std@@@std@@6B@
rdata$r	SEGMENT
??_R4?$_LaunchPad@V?$_Bind@$00XQ6AXXZ$$$V@std@@@std@@6B@ DD 00H ; std::_LaunchPad<std::_Bind<1,void,void (__cdecl*const)(void)> >::`RTTI Complete Object Locator'
	DD	00H
	DD	00H
	DD	FLAT:??_R0?AV?$_LaunchPad@V?$_Bind@$00XQ6AXXZ$$$V@std@@@std@@@8
	DD	FLAT:??_R3?$_LaunchPad@V?$_Bind@$00XQ6AXXZ$$$V@std@@@std@@8
rdata$r	ENDS
;	COMDAT ??_R0?AV_Pad@std@@@8
data$r	SEGMENT
??_R0?AV_Pad@std@@@8 DD FLAT:??_7type_info@@6B@		; std::_Pad `RTTI Type Descriptor'
	DD	00H
	DB	'.?AV_Pad@std@@', 00H
data$r	ENDS
;	COMDAT ??_R0?AV?$_LaunchPad@V?$_Bind@$00XQ6AXPAUCUDADeviceSearchThreadInfo@@@ZPAU1@@std@@@std@@@8
data$r	SEGMENT
??_R0?AV?$_LaunchPad@V?$_Bind@$00XQ6AXPAUCUDADeviceSearchThreadInfo@@@ZPAU1@@std@@@std@@@8 DD FLAT:??_7type_info@@6B@ ; std::_LaunchPad<std::_Bind<1,void,void (__cdecl*const)(CUDADeviceSearchThreadInfo *),CUDADeviceSearchThreadInfo *> > `RTTI Type Descriptor'
	DD	00H
	DB	'.?AV?$_LaunchPad@V?$_Bind@$00XQ6AXPAUCUDADeviceSearchThr'
	DB	'eadInfo@@@ZPAU1@@std@@@std@@', 00H
data$r	ENDS
;	COMDAT ??_R2?$_LaunchPad@V?$_Bind@$00XQ6AXPAUCUDADeviceSearchThreadInfo@@@ZPAU1@@std@@@std@@8
rdata$r	SEGMENT
??_R2?$_LaunchPad@V?$_Bind@$00XQ6AXPAUCUDADeviceSearchThreadInfo@@@ZPAU1@@std@@@std@@8 DD FLAT:??_R1A@?0A@EA@?$_LaunchPad@V?$_Bind@$00XQ6AXPAUCUDADeviceSearchThreadInfo@@@ZPAU1@@std@@@std@@8 ; std::_LaunchPad<std::_Bind<1,void,void (__cdecl*const)(CUDADeviceSearchThreadInfo *),CUDADeviceSearchThreadInfo *> >::`RTTI Base Class Array'
	DD	FLAT:??_R1A@?0A@EA@_Pad@std@@8
rdata$r	ENDS
;	COMDAT ??_R1A@?0A@EA@?$_LaunchPad@V?$_Bind@$00XQ6AXXZ$$$V@std@@@std@@8
rdata$r	SEGMENT
??_R1A@?0A@EA@?$_LaunchPad@V?$_Bind@$00XQ6AXXZ$$$V@std@@@std@@8 DD FLAT:??_R0?AV?$_LaunchPad@V?$_Bind@$00XQ6AXXZ$$$V@std@@@std@@@8 ; std::_LaunchPad<std::_Bind<1,void,void (__cdecl*const)(void)> >::`RTTI Base Class Descriptor at (0,-1,0,64)'
	DD	01H
	DD	00H
	DD	0ffffffffH
	DD	00H
	DD	040H
	DD	FLAT:??_R3?$_LaunchPad@V?$_Bind@$00XQ6AXXZ$$$V@std@@@std@@8
rdata$r	ENDS
;	COMDAT ??_7?$_LaunchPad@V?$_Bind@$00XQ6AXPAUOpenCLDeviceSearchThreadInfo@@@ZPAU1@@std@@@std@@6B@
CONST	SEGMENT
??_7?$_LaunchPad@V?$_Bind@$00XQ6AXPAUOpenCLDeviceSearchThreadInfo@@@ZPAU1@@std@@@std@@6B@ DD FLAT:??_R4?$_LaunchPad@V?$_Bind@$00XQ6AXPAUOpenCLDeviceSearchThreadInfo@@@ZPAU1@@std@@@std@@6B@ ; std::_LaunchPad<std::_Bind<1,void,void (__cdecl*const)(OpenCLDeviceSearchThreadInfo *),OpenCLDeviceSearchThreadInfo *> >::`vftable'
	DD	FLAT:?_Go@?$_LaunchPad@V?$_Bind@$00XQ6AXPAUOpenCLDeviceSearchThreadInfo@@@ZPAU1@@std@@@std@@UAEIXZ
	ORG $+1
?base64CharTable@@3PADA DB 041H				; base64CharTable
	DB	042H
	DB	043H
	DB	044H
	DB	045H
	DB	046H
	DB	047H
	DB	048H
	DB	049H
	DB	04aH
	DB	04bH
	DB	04cH
	DB	04dH
	DB	04eH
	DB	04fH
	DB	050H
	DB	051H
	DB	052H
	DB	053H
	DB	054H
	DB	055H
	DB	056H
	DB	057H
	DB	058H
	DB	059H
	DB	05aH
	DB	061H
	DB	062H
	DB	063H
	DB	064H
	DB	065H
	DB	066H
	DB	067H
	DB	068H
	DB	069H
	DB	06aH
	DB	06bH
	DB	06cH
	DB	06dH
	DB	06eH
	DB	06fH
	DB	070H
	DB	071H
	DB	072H
	DB	073H
	DB	074H
	DB	075H
	DB	076H
	DB	077H
	DB	078H
	DB	079H
	DB	07aH
	DB	030H
	DB	031H
	DB	032H
	DB	033H
	DB	034H
	DB	035H
	DB	036H
	DB	037H
	DB	038H
	DB	039H
	DB	02eH
	DB	02fH
?lenTripcodeKey@@3HA DD 0aH				; lenTripcodeKey
?lenTripcode@@3HA DD 0aH				; lenTripcode
?options@@3UOptions@@A DD 0ffffffffH			; options
	DD	080H
	DD	00H
	DD	00H
	DD	00H
	DD	00H
	DD	00H
	DD	0ffffffffH
	DD	00H
	DD	00H
	DD	00H
	DD	02H
	DD	01H
	DD	00H
	DD	00H
	DD	00H
	DD	00H
	DD	00H
	DD	00H
	DD	00H
	DD	01H
	DD	01H
	DD	00H
	DD	01H
	DD	01H
	DD	02H
	DD	01H
	DD	01H
?searchMode@@3HA DD 0ffffffffH				; searchMode
$SG4294899467 DB 00H
$SG4294899451 DB 00H
$SG4294899449 DB 00H
$SG4294899444 DB 00H
$SG4294899442 DB 00H
$SG4294899434 DB 00H
$SG4294899419 DB 00H
$SG4294899417 DB 00H
$SG4294899408 DB 00H
$SG4294899528 DB 'ERROR_INVALID_REGEX', 00H
$SG4294899525 DB 'CUDA fucnction call failed.', 00H
	ORG $+2
$SG4294899526 DB 'ERROR_PATTERN_TOO_SHORT', 00H
$SG4294899523 DB 'ERROR_PATTERN_FILE', 00H
	ORG $+2
$SG4294899527 DB 'ERROR_PATTERN_TOO_LONG', 00H
	ORG $+1
$SG4294899524 DB 'ERROR_NO_MEMORY', 00H
$SG4294899520 DB 'ERROR_CRYPTOGRAPHIC_SERVICE', 00H
	ORG $+2
$SG4294899522 DB 'ERROR_IGNORE_DIRECTIVE', 00H
	ORG $+1
$SG4294899521 DB 'ERROR_NO_TARGET_PATTERNS', 00H
	ORG $+2
$SG4294899518 DB 'ERROR_TRIPCODE_FILE', 00H
	ORG $+2
$SG4294899516 DB 'ERROR_MUTEX', 00H
	ORG $+2
$SG4294899517 DB 'ERROR_SEARCH_THREAD', 00H
	ORG $+2
$SG4294899515 DB 'Assertion failed.', 00H
	ORG $+2
$SG4294899512 DB 'ERROR_SHA1', 00H
	ORG $+2
$SG4294899513 DB 'ERROR_DES', 00H
	ORG $+2
$SG4294899510 DB 'ERROR_CHILD_PROCESS', 00H
	ORG $+2
$SG4294899511 DB 'ERROR_INTEL_HD_GRAPHICS', 00H
$SG4294899508 DB 'ERROR_EVENT', 00H
	ORG $+2
$SG4294899507 DB 'ERROR_SEARCH_THREAD_UNRESPONSIVE', 00H
	ORG $+2
$SG4294899504 DB 'MerikensTripcodeEngine', 00H
	ORG $+1
$SG4294899502 DB '%d', 0aH, 00H
	ORG $+2
$SG4294899500 DB '..\SourceFiles\Main.cpp', 00H
$SG4294899501 DB '[error],%d', 0aH, 00H
	ORG $+2
$SG4294899498 DB '%d', 0aH, 00H
	ORG $+2
$SG4294899496 DB '..\SourceFiles\Main.cpp', 00H
$SG4294899497 DB '[error],%d', 0aH, 00H
	ORG $+2
$SG4294899494 DB '%d', 0aH, 00H
	ORG $+2
$SG4294899492 DB 0aH, 'ERROR', 0aH, '=====', 0aH, '  %s', 0aH, 07H, 0aH, ' '
	DB	' Hit any key to exit.', 00H
	ORG $+2
$SG4294899493 DB '[error],%d', 0aH, 00H
	ORG $+2
$SG4294899490 DB '%s English', 0aH, 00H
	ORG $+2
$SG4294899491 DB 'Meriken''s Tripcode Engine 2.1.2', 00H
$SG4294899488 DB '07:16:04', 00H
	ORG $+2
$SG4294899489 DB 'May  4 2016', 00H
	ORG $+2
$SG4294899484 DB 'This is free software, and you are welcome to redistrib'
	DB	'ute it', 0aH, 00H
	ORG $+1
$SG4294899485 DB 'This program comes with ABSOLUTELY NO WARRANTY.', 0aH, 00H
	ORG $+2
$SG4294899482 DB 0aH, 00H
	ORG $+2
$SG4294899483 DB 'under certain conditions.', 0aH, 00H
	ORG $+2
$SG4294899480 DB '[error],%d', 0aH, 00H
	ORG $+2
$SG4294899481 DB '%d', 0aH, 00H
	ORG $+2
$SG4294899479 DB '..\SourceFiles\Main.cpp', 00H
$SG4294899476 DB '[error],%d', 0aH, 00H
	ORG $+2
$SG4294899477 DB '%d', 0aH, 00H
	ORG $+2
$SG4294899475 DB '..\SourceFiles\Main.cpp', 00H
$SG4294899472 DB '%d', 0aH, 00H
	ORG $+2
$SG4294899473 DB 'Restarting search thread...', 00H
	ORG $+2
$SG4294899470 DB 'Search thread became unresponsive.', 00H
	ORG $+2
$SG4294899471 DB '[error],%d', 0aH, 00H
	ORG $+2
$SG4294899469 DB 0aH, 'ERROR', 0aH, '=====', 0aH, '  %s', 0aH, 07H, 0aH, ' '
	DB	' Hit any key to exit.', 00H
	ORG $+2
$SG4294899465 DB 'STATUS', 00H
	ORG $+1
$SG4294899461 DB 'CPU', 00H
	ORG $+2
$SG4294899463 DB '======', 00H
	ORG $+1
$SG4294899458 DB 'forward-matching', 00H
	ORG $+2
$SG4294899460 DB 'GPU(s)', 00H
	ORG $+1
$SG4294899457 DB 'backward-matching', 00H
	ORG $+2
$SG4294899459 DB 'CPU and GPU(s)', 00H
	ORG $+1
$SG4294899455 DB 'flexible', 00H
	ORG $+2
$SG4294899456 DB 'forward- and backward-matching', 00H
	ORG $+1
$SG4294899452 DB ':', 00H
	ORG $+2
$SG4294899454 DB '  Performing a %s search on %s', 00H
	ORG $+1
$SG4294899453 DB '.', 00H
	ORG $+2
$SG4294899450 DB 's', 00H
	ORG $+2
$SG4294899448 DB 's', 00H
	ORG $+2
$SG4294899446 DB '.', 00H
	ORG $+2
$SG4294899447 DB '  for %d pattern%s (%d chunk%s) with %d to %d character'
	DB	's%s', 00H
	ORG $+2
$SG4294899445 DB ':', 00H
	ORG $+2
$SG4294899443 DB 's', 00H
	ORG $+2
$SG4294899441 DB 's', 00H
	ORG $+2
$SG4294899438 DB '      CUDA%d-%d:     %s', 00H
$SG4294899439 DB '      CUDA0:     %s', 00H
	ORG $+2
$SG4294899437 DB '      OpenCL0:   %s', 00H
	ORG $+2
$SG4294899432 DB '      %3.2lfM tripcode/s (current)', 00H
	ORG $+2
$SG4294899433 DB '  %.3lfT tripcodes were generated in %dd %dh %dm %02ds '
	DB	'at:', 00H
	ORG $+2
$SG4294899430 DB '          CPU: %7.2lfM tripcode/s', 00H
	ORG $+2
$SG4294899431 DB '          GPU: %7.2lfM tripcode/s', 00H
	ORG $+2
$SG4294899428 DB '          GPU: %7.2lfM tripcode/s', 00H
	ORG $+2
$SG4294899429 DB '      %3.2lfM tripcode/s (average)', 00H
	ORG $+2
$SG4294899427 DB '          CPU: %7.2lfM tripcode/s', 00H
	ORG $+2
$SG4294899416 DB 'es', 00H
	ORG $+2
$SG4294899410 DB '%-79s', 0aH, 00H
	ORG $+1
$SG4294899409 DB '+', 00H
	ORG $+2
$SG4294899404 DB '%d', 0aH, 00H
	ORG $+2
$SG4294899405 DB 'NVIDIA %s (CUDA)', 0aH, 00H
	ORG $+2
$SG4294899402 DB 0aH, 'ERROR', 0aH, '=====', 0aH, '  %s', 0aH, 07H, 0aH, ' '
	DB	' Hit any key to exit.', 00H
	ORG $+2
$SG4294899403 DB '[error],%d', 0aH, 00H
	ORG $+2
$SG4294899400 DB '[error],%d', 0aH, 00H
	ORG $+2
$SG4294899401 DB '%d', 0aH, 00H
	ORG $+2
$SG4294899397 DB 'NVIDIA Corporation', 00H
	ORG $+2
$SG4294899394 DB '[error],%d', 0aH, 00H
	ORG $+2
$SG4294899395 DB '%d', 0aH, 00H
	ORG $+3
$SG4294899514 DB 'OpenCL fucnction call failed.', 00H
	ORG $+2
$SG4294899392 DB '%d', 0aH, 00H
	ORG $+3
$SG4294899506 DB 'GCN assembler failed.', 00H
	ORG $+2
$SG4294899393 DB 0aH, 'ERROR', 0aH, '=====', 0aH, '  %s', 0aH, 07H, 0aH, ' '
	DB	' Hit any key to exit.', 00H
	ORG $+3
$SG4294899505 DB 'ERROR_UNKNOWN', 00H
	ORG $+2
$SG4294899391 DB '[error],%d', 0aH, 00H
	ORG $+3
$SG4294899487 DB '[compiled at %s on %s (PST)]', 0aH, 00H
	ORG $+2
$SG4294899388 DB '%d', 0aH, 00H
	ORG $+3
$SG4294899468 DB '[process] Restarting search thread...', 00H
	ORG $+2
$SG4294899386 DB 0aH, 'ERROR', 0aH, '=====', 0aH, '  %s', 0aH, 07H, 0aH, ' '
	DB	' Hit any key to exit.', 00H
	ORG $+3
$SG4294899466 DB '%-79s', 00H
	ORG $+2
$SG4294899387 DB '[error],%d', 0aH, 00H
	ORG $+3
$SG4294899464 DB '%-79s', 00H
	ORG $+2
$SG4294899384 DB '[error],%d', 0aH, 00H
	ORG $+3
$SG4294899462 DB '%-79s', 00H
	ORG $+2
$SG4294899385 DB '%d', 0aH, 00H
	ORG $+3
$SG4294899435 DB '      OpenCL%d-%d: %s', 00H
	ORG $+2
$SG4294899380 DB '[error],%d', 0aH, 00H
	ORG $+3
$SG4294899381 DB '%d', 0aH, 00H
	ORG $+3
$SG4294899376 DB '[error],%d', 0aH, 00H
	ORG $+3
$SG4294899377 DB '%d', 0aH, 00H
	ORG $+3
$SG4294899370 DB 'NVIDIA Corporation', 00H
	ORG $+3
$SG4294899368 DB '%s ', 00H
	ORG $+3
$SG4294899369 DB 'NVIDIA ', 00H
$SG4294899366 DB '%s', 00H
	ORG $+3
$SG4294899367 DB '%s', 00H
	ORG $+3
$SG4294899364 DB '%d', 0aH, 00H
	ORG $+3
$SG4294899365 DB ' (OpenCL)', 0aH, 00H
	ORG $+3
$SG4294899362 DB 'An invalid device was specified.', 00H
	ORG $+3
$SG4294899363 DB '[error],%d', 0aH, 00H
	ORG $+3
$SG4294899360 DB '%d', 0aH, 00H
	ORG $+3
$SG4294899361 DB 0aH, 'ERROR', 0aH, '=====', 0aH, '  %s', 0aH, 07H, 0aH, ' '
	DB	' Hit any key to exit.', 00H
	ORG $+3
$SG4294899358 DB 'There is no GPU.', 00H
	ORG $+3
$SG4294899359 DB '[error],%d', 0aH, 00H
	ORG $+3
$SG4294899356 DB 'CUDA DEVICES', 0aH, 00H
	ORG $+2
$SG4294899357 DB 0aH, 'ERROR', 0aH, '=====', 0aH, '  %s', 0aH, 07H, 0aH, ' '
	DB	' Hit any key to exit.', 00H
	ORG $+3
$SG4294899354 DB '  CUDA Device Count:        %d', 0aH, 0aH, 00H
	ORG $+3
$SG4294899355 DB '============', 0aH, 00H
	ORG $+2
$SG4294899350 DB '  Device Name:              %s', 0aH, 00H
$SG4294899347 DB '  Compute Capability:       %d.%d', 0aH, 00H
	ORG $+3
$SG4294899351 DB '  Device No.:               %d', 0aH, 00H
$SG4294899344 DB 'cudaComputeModeProhibited', 00H
	ORG $+3
$SG4294899349 DB '  Multiprocessor Count:     %d', 0aH, 00H
$SG4294899345 DB 'cudaComputeModeExclusive', 00H
	ORG $+3
$SG4294899346 DB 'cudaComputeModeDefault', 00H
	ORG $+1
$SG4294899342 DB '(unknown)', 00H
	ORG $+3
$SG4294899343 DB 'cudaComputeModeExclusiveProcess', 00H
$SG4294899340 DB 0aH, 00H
	ORG $+3
$SG4294899341 DB '  Compute Mode:             %s', 0aH, 00H
$SG4294899337 DB '  OpenCL Device Count:      %d', 0aH, 0aH, 00H
	ORG $+3
$SG4294899338 DB '==============', 0aH, 00H
$SG4294899334 DB '%d', 0aH, 00H
	ORG $+3
$SG4294899339 DB 'OPENCL DEVICES', 0aH, 00H
$SG4294899333 DB '[error],%d', 0aH, 00H
	ORG $+3
$SG4294899336 DB 'OPENCL DEVICE', 0aH, 00H
	ORG $+1
$SG4294899330 DB '%d', 0aH, 00H
	ORG $+3
$SG4294899335 DB '=============', 0aH, 00H
	ORG $+1
$SG4294899329 DB '[error],%d', 0aH, 00H
	ORG $+3
$SG4294899326 DB '%d', 0aH, 00H
	ORG $+3
$SG4294899325 DB '[error],%d', 0aH, 00H
	ORG $+3
$SG4294899322 DB '%d', 0aH, 00H
	ORG $+3
$SG4294899321 DB '[error],%d', 0aH, 00H
	ORG $+3
$SG4294899318 DB '%d', 0aH, 00H
	ORG $+3
$SG4294899317 DB '[error],%d', 0aH, 00H
	ORG $+3
$SG4294899314 DB '%d', 0aH, 00H
	ORG $+3
$SG4294899313 DB '[error],%d', 0aH, 00H
	ORG $+3
$SG4294899310 DB '%d', 0aH, 00H
	ORG $+3
$SG4294899309 DB '[error],%d', 0aH, 00H
	ORG $+3
$SG4294899306 DB '%d', 0aH, 00H
	ORG $+3
$SG4294899305 DB '[error],%d', 0aH, 00H
	ORG $+3
$SG4294899302 DB '  Vendor:                   %s', 0aH, 00H
$SG4294899298 DB '  Clock Frequency:          %dMHz', 0aH, 00H
	ORG $+3
$SG4294899300 DB '  Name:                     %s', 0aH, 00H
$SG4294899293 DB 0aH, 00H
	ORG $+3
$SG4294899299 DB '  Number of Compute Units:  %d', 0aH, 00H
$SG4294899289 DB '  Processor Info:           0x%06x', 0aH, 00H
	ORG $+3
$SG4294899296 DB '  Max. Work Group Size:     %d', 0aH, 00H
$SG4294899286 DB 0aH, 00H
	ORG $+3
$SG4294899297 DB '  Global Memory Size:       %dM bytes', 0aH, 00H
	ORG $+1
$SG4294899294 DB '  Driver Version:           %s', 0aH, 00H
$SG4294899284 DB '-o', 00H
	ORG $+3
$SG4294899295 DB '  Version:                  %s', 0aH, 00H
$SG4294899282 DB '[error],%d', 0aH, 00H
	ORG $+3
$SG4294899290 DB '  Processor Info:           0x%06x (Nehalem)', 0aH, 00H
	ORG $+2
$SG4294899288 DB '  Number of Logical Cores:  %d', 0aH, 00H
$SG4294899278 DB '-f', 00H
	ORG $+3
$SG4294899287 DB '  Number of Search Threads: %d', 0aH, 00H
$SG4294899279 DB 0aH, 07H, 0aH, '  Hit any key to exit.', 00H
	ORG $+3
$SG4294899285 DB 'tripcodes.txt', 00H
	ORG $+2
$SG4294899283 DB '%d,%s', 0aH, 00H
	ORG $+1
$SG4294899280 DB 'The path of the tripcode file `%s'' is too long.', 00H
$SG4294899276 DB '[error],%d', 0aH, 00H
	ORG $+3
$SG4294899281 DB 0aH, 'ERROR', 0aH, '=====', 0aH, '  ', 00H
$SG4294899272 DB '%d', 0aH, 00H
	ORG $+3
$SG4294899277 DB '%d,%s', 0aH, 00H
	ORG $+1
$SG4294899275 DB 0aH, 'ERROR', 0aH, '=====', 0aH, '  ', 00H
$SG4294899273 DB 0aH, 07H, 0aH, '  Hit any key to exit.', 00H
	ORG $+3
$SG4294899274 DB 'The path of the pattern file `%s'' is too long.', 00H
	ORG $+1
$SG4294899271 DB '[error],%d', 0aH, 00H
	ORG $+3
$SG4294899270 DB 'Too many pattern files were specified.', 00H
	ORG $+1
$SG4294899268 DB '-d', 00H
	ORG $+3
$SG4294899269 DB 0aH, 'ERROR', 0aH, '=====', 0aH, '  %s', 0aH, 07H, 0aH, ' '
	DB	' Hit any key to exit.', 00H
	ORG $+3
$SG4294899266 DB '%d,%s', 0aH, 00H
	ORG $+1
$SG4294899267 DB '-x', 00H
	ORG $+3
$SG4294899264 DB 0aH, 'ERROR', 0aH, '=====', 0aH, '  ', 00H
$SG4294899265 DB '[error],%d', 0aH, 00H
	ORG $+3
$SG4294899262 DB 0aH, 07H, 0aH, '  Hit any key to exit.', 00H
	ORG $+3
$SG4294899263 DB 'The number of blocks per SM must be at least %d.', 00H
	ORG $+3
$SG4294899260 DB '[error],%d', 0aH, 00H
	ORG $+3
$SG4294899261 DB '%d,%s', 0aH, 00H
	ORG $+1
$SG4294899259 DB 0aH, 'ERROR', 0aH, '=====', 0aH, '  ', 00H
$SG4294899256 DB '-y', 00H
	ORG $+3
$SG4294899258 DB 'The number of blocks per SM cannot exceed %d.', 00H
	ORG $+2
$SG4294899257 DB 0aH, 07H, 0aH, '  Hit any key to exit.', 00H
	ORG $+3
$SG4294899254 DB '[error],%d', 0aH, 00H
	ORG $+3
$SG4294899255 DB '%d,%s', 0aH, 00H
	ORG $+1
$SG4294899253 DB 0aH, 'ERROR', 0aH, '=====', 0aH, '  ', 00H
$SG4294899251 DB 0aH, 07H, 0aH, '  Hit any key to exit.', 00H
	ORG $+3
$SG4294899250 DB '%d,%s', 0aH, 00H
	ORG $+1
$SG4294899248 DB 0aH, 'ERROR', 0aH, '=====', 0aH, '  ', 00H
$SG4294899249 DB '[error],%d', 0aH, 00H
	ORG $+3
$SG4294899246 DB 0aH, 07H, 0aH, '  Hit any key to exit.', 00H
	ORG $+3
$SG4294899247 DB 'The number of work items per CU cannot exceed %d.', 00H
	ORG $+3
$SG4294899244 DB '%d,%s', 0aH, 00H
	ORG $+1
$SG4294899245 DB '-z', 00H
	ORG $+3
$SG4294899242 DB 0aH, 'ERROR', 0aH, '=====', 0aH, '  ', 00H
$SG4294899243 DB '[error],%d', 0aH, 00H
	ORG $+3
$SG4294899240 DB 0aH, 07H, 0aH, '  Hit any key to exit.', 00H
	ORG $+3
$SG4294899238 DB '[error],%d', 0aH, 00H
	ORG $+3
$SG4294899239 DB '%d,%s', 0aH, 00H
	ORG $+1
$SG4294899236 DB 'The number of work items per WG cannot exceed %d.', 00H
	ORG $+3
$SG4294899237 DB 0aH, 'ERROR', 0aH, '=====', 0aH, '  ', 00H
$SG4294899234 DB '%d', 0aH, 00H
	ORG $+3
$SG4294899235 DB 0aH, 07H, 0aH, '  Hit any key to exit.', 00H
	ORG $+3
$SG4294899232 DB 'The number of work items per WG must be a multiple of 8'
	DB	'.', 00H
	ORG $+3
$SG4294899233 DB '[error],%d', 0aH, 00H
	ORG $+3
$SG4294899230 DB '-a', 00H
	ORG $+3
$SG4294899231 DB 0aH, 'ERROR', 0aH, '=====', 0aH, '  %s', 0aH, 07H, 0aH, ' '
	DB	' Hit any key to exit.', 00H
$SG4294899529 DB 'ERROR_INVALID_TARGET_PATTERN', 00H
	ORG $+3
$SG4294899519 DB 'ERROR_INVALID_OPTION', 00H
	ORG $+3
$SG4294899509 DB 'A corrupt tripcode was generated.', 0aH, '  The hardwar'
	DB	'e or device driver may be malfunctioning.', 0aH, '  Please ch'
	DB	'eck the temperatures of CPU(s) and GPU(s).', 00H
	ORG $+1
$SG4294899503 DB 'Usage: %s [-c] [-g] [-d device_no] [-x blocks_per_SM] ['
	DB	'-y global_work_size] [-z local_work_size] [-o tripcode_file] '
	DB	'[-f pattern_file] [-i] [-w]', 0aH, 00H
	ORG $+3
$SG4294899228 DB '[error],%d', 0aH, 00H
$SG4294899499 DB 0aH, 'ERROR', 0aH, '=====', 0aH, '  Assertion Failed: fi'
	DB	'le %s, line %d', 0aH, 07H, 0aH, '  Hit any key to exit.', 00H
	ORG $+1
$SG4294899227 DB 0aH, 'ERROR', 0aH, '=====', 0aH, '  ', 00H
$SG4294899225 DB 0aH, 07H, 0aH, '  Hit any key to exit.', 00H
	ORG $+2
$SG4294899495 DB 0aH, 'ERROR', 0aH, '=====', 0aH, '  Assertion Failed: fi'
	DB	'le %s, line %d', 0aH, 07H, 0aH, '  Hit any key to exit.', 00H
	ORG $+1
$SG4294899222 DB 0aH, 'ERROR', 0aH, '=====', 0aH, '  ', 00H
$SG4294899223 DB '[error],%d', 0aH, 00H
$SG4294899486 DB 'Copyright (C) 2014-2016 !/Meriken/. <meriken.ygch.net@g'
	DB	'mail.com>', 0aH, 00H
	ORG $+2
$SG4294899229 DB '%d,%s', 0aH, 00H
	ORG $+1
$SG4294899220 DB 0aH, 07H, 0aH, '  Hit any key to exit.', 00H
	ORG $+2
$SG4294899478 DB 0aH, 'ERROR', 0aH, '=====', 0aH, '  Assertion Failed: fi'
	DB	'le %s, line %d', 0aH, 07H, 0aH, '  Hit any key to exit.', 00H
	ORG $+1
$SG4294899221 DB 'The number of threads per AMD GPU cannot exceed %d.', 00H
$SG4294899474 DB 0aH, 'ERROR', 0aH, '=====', 0aH, '  Assertion Failed: fi'
	DB	'le %s, line %d', 0aH, 07H, 0aH, '  Hit any key to exit.', 00H
	ORG $+1
$SG4294899440 DB '  for %d pattern%s (%d chunk%s) with %d characters%s', 00H
	ORG $+3
$SG4294899436 DB '      OpenCL%d:   %s', 00H
	ORG $+3
$SG4294899226 DB 'The number of threads per AMD GPU must be at least %d.', 00H
	ORG $+1
$SG4294899219 DB '-b', 00H
	ORG $+1
$SG4294899426 DB '  On average, it takes %.1lf centuries to find one matc'
	DB	'h at this speed.', 00H
$SG4294899424 DB '  On average, it takes %.1lf months to find one match a'
	DB	't this speed.', 00H
	ORG $+3
$SG4294899425 DB '  On average, it takes %.1lf years to find one match at'
	DB	' this speed.', 00H
$SG4294899217 DB '[error],%d', 0aH, 00H
$SG4294899422 DB '  On average, it takes %.1lf hours to find one match at'
	DB	' this speed.', 00H
$SG4294899214 DB 0aH, 07H, 0aH, '  Hit any key to exit.', 00H
	ORG $+2
$SG4294899423 DB '  On average, it takes %.1lf days to find one match at '
	DB	'this speed.', 00H
	ORG $+1
$SG4294899216 DB 0aH, 'ERROR', 0aH, '=====', 0aH, '  ', 00H
$SG4294899215 DB 'The number of processes per AMD GPU must be at least %d'
	DB	'.', 00H
	ORG $+3
$SG4294899420 DB '  On average, it takes %.1lf seconds to find one match '
	DB	'at this speed.', 00H
	ORG $+2
$SG4294899421 DB '  On average, it takes %.1lf minutes to find one match '
	DB	'at this speed.', 00H
	ORG $+2
$SG4294899418 DB '  No matches were found yet.', 00H
	ORG $+3
$SG4294899414 DB '  The actual matching probability is %.0f%% higher than'
	DB	' expected.', 00H
	ORG $+2
$SG4294899224 DB '%d,%s', 0aH, 00H
	ORG $+1
$SG4294899212 DB '[error],%d', 0aH, 00H
$SG4294899415 DB '  %ld match%s found at %.2lf matches/h and %.2lfG tripc'
	DB	'odes/match.', 00H
	ORG $+1
$SG4294899211 DB 0aH, 'ERROR', 0aH, '=====', 0aH, '  ', 00H
$SG4294899208 DB '-l', 00H
	ORG $+1
$SG4294899412 DB '  The actual matching probability is about the same as '
	DB	'expected.', 00H
	ORG $+3
$SG4294899218 DB '%d,%s', 0aH, 00H
	ORG $+1
$SG4294899209 DB 0aH, 07H, 0aH, '  Hit any key to exit.', 00H
	ORG $+2
$SG4294899413 DB '  The actual matching probability is %.0f%% lower than '
	DB	'expected.', 00H
	ORG $+3
$SG4294899411 DB '  %.0f%% of matching tripcodes were invalid.', 00H
	ORG $+3
$SG4294899213 DB '%d,%s', 0aH, 00H
	ORG $+1
$SG4294899206 DB '[error],%d', 0aH, 00H
$SG4294899406 DB '[status],%.0lf,%.0lf,%.0lf,%.0lf,%.0lf,-,-,%.0lf,%ld,%d'
	DB	',%.0lf,%.0lf,%u,%.0f%%', 0aH, 00H
	ORG $+1
$SG4294899407 DB '[status],%.0lf,%.0lf,%.0lf,%.0lf,%.0lf,%.1lf,%s%d%%,%.0'
	DB	'lf,%ld,%d,%.0lf,%.0lf,%u,%.0f%%', 0aH, 00H
$SG4294899398 DB 0aH, 'ERROR', 0aH, '=====', 0aH, '  OpenCL Function Call'
	DB	' Failed: %s (file ''%s'', line %d)', 0aH, 07H, 0aH, '  Hit an'
	DB	'y key to exit.', 00H
	ORG $+3
$SG4294899399 DB '..\SourceFiles\Main.cpp', 00H
$SG4294899396 DB 'Intel(R) Corporation', 00H
	ORG $+3
$SG4294899390 DB '..\SourceFiles\Main.cpp', 00H
$SG4294899389 DB 0aH, 'ERROR', 0aH, '=====', 0aH, '  OpenCL Function Call'
	DB	' Failed: %s (file ''%s'', line %d)', 0aH, 07H, 0aH, '  Hit an'
	DB	'y key to exit.', 00H
	ORG $+3
$SG4294899382 DB 0aH, 'ERROR', 0aH, '=====', 0aH, '  OpenCL Function Call'
	DB	' Failed: %s (file ''%s'', line %d)', 0aH, 07H, 0aH, '  Hit an'
	DB	'y key to exit.', 00H
	ORG $+3
$SG4294899372 DB 'AMD ', 00H
	ORG $+3
$SG4294899383 DB '..\SourceFiles\Main.cpp', 00H
$SG4294899378 DB 0aH, 'ERROR', 0aH, '=====', 0aH, '  OpenCL Function Call'
	DB	' Failed: %s (file ''%s'', line %d)', 0aH, 07H, 0aH, '  Hit an'
	DB	'y key to exit.', 00H
	ORG $+3
$SG4294899371 DB 'Intel(R) Corporation', 00H
	ORG $+3
$SG4294899379 DB '..\SourceFiles\Main.cpp', 00H
$SG4294899374 DB 0aH, 'ERROR', 0aH, '=====', 0aH, '  OpenCL Function Call'
	DB	' Failed: %s (file ''%s'', line %d)', 0aH, 07H, 0aH, '  Hit an'
	DB	'y key to exit.', 00H
	ORG $+3
$SG4294899348 DB '  Clock Rate:               %.0fMHz', 0aH, 00H
	ORG $+3
$SG4294899375 DB '..\SourceFiles\Main.cpp', 00H
$SG4294899373 DB 'Advanced Micro Devices, Inc.', 00H
	ORG $+3
$SG4294899352 DB '===========', 0aH, 00H
	ORG $+3
$SG4294899353 DB 'CUDA DEVICE', 0aH, 00H
	ORG $+3
$SG4294899301 DB '  Name:                     %s (%s)', 0aH, 00H
	ORG $+3
$SG4294899332 DB '..\SourceFiles\Main.cpp', 00H
$SG4294899331 DB 0aH, 'ERROR', 0aH, '=====', 0aH, '  OpenCL Function Call'
	DB	' Failed: %s (file ''%s'', line %d)', 0aH, 07H, 0aH, '  Hit an'
	DB	'y key to exit.', 00H
	ORG $+3
$SG4294899292 DB 'CPU', 0aH, 00H
	ORG $+3
$SG4294899328 DB '..\SourceFiles\Main.cpp', 00H
$SG4294899327 DB 0aH, 'ERROR', 0aH, '=====', 0aH, '  OpenCL Function Call'
	DB	' Failed: %s (file ''%s'', line %d)', 0aH, 07H, 0aH, '  Hit an'
	DB	'y key to exit.', 00H
	ORG $+3
$SG4294899291 DB '===', 0aH, 00H
	ORG $+3
$SG4294899324 DB '..\SourceFiles\Main.cpp', 00H
$SG4294899323 DB 0aH, 'ERROR', 0aH, '=====', 0aH, '  OpenCL Function Call'
	DB	' Failed: %s (file ''%s'', line %d)', 0aH, 07H, 0aH, '  Hit an'
	DB	'y key to exit.', 00H
	ORG $+3
$SG4294899252 DB 'The number of work items per CU must be at least %d.', 00H
	ORG $+3
$SG4294899320 DB '..\SourceFiles\Main.cpp', 00H
$SG4294899319 DB 0aH, 'ERROR', 0aH, '=====', 0aH, '  OpenCL Function Call'
	DB	' Failed: %s (file ''%s'', line %d)', 0aH, 07H, 0aH, '  Hit an'
	DB	'y key to exit.', 00H
	ORG $+3
$SG4294899241 DB 'The number of work items per WG must be at least %d.', 00H
	ORG $+3
$SG4294899316 DB '..\SourceFiles\Main.cpp', 00H
$SG4294899315 DB 0aH, 'ERROR', 0aH, '=====', 0aH, '  OpenCL Function Call'
	DB	' Failed: %s (file ''%s'', line %d)', 0aH, 07H, 0aH, '  Hit an'
	DB	'y key to exit.', 00H
	ORG $+3
$SG4294899210 DB 'The number of processes per AMD GPU cannot exceed %d.', 00H
	ORG $+2
$SG4294899312 DB '..\SourceFiles\Main.cpp', 00H
$SG4294899311 DB 0aH, 'ERROR', 0aH, '=====', 0aH, '  OpenCL Function Call'
	DB	' Failed: %s (file ''%s'', line %d)', 0aH, 07H, 0aH, '  Hit an'
	DB	'y key to exit.', 00H
	ORG $+3
$SG4294899207 DB '%d', 0aH, 00H
	ORG $+4
$SG4294899308 DB '..\SourceFiles\Main.cpp', 00H
$SG4294899307 DB 0aH, 'ERROR', 0aH, '=====', 0aH, '  OpenCL Function Call'
	DB	' Failed: %s (file ''%s'', line %d)', 0aH, 07H, 0aH, '  Hit an'
	DB	'y key to exit.', 00H
	ORG $+3
$SG4294899204 DB 0aH, 'ERROR', 0aH, '=====', 0aH, '  %s', 0aH, 07H, 0aH, ' '
	DB	' Hit any key to exit.', 00H
	ORG $+5
$SG4294899303 DB 0aH, 'ERROR', 0aH, '=====', 0aH, '  OpenCL Function Call'
	DB	' Failed: %s (file ''%s'', line %d)', 0aH, 07H, 0aH, '  Hit an'
	DB	'y key to exit.', 00H
	ORG $+3
$SG4294899202 DB '-i', 00H
	ORG $+5
$SG4294899304 DB '..\SourceFiles\Main.cpp', 00H
$SG4294899205 DB 'The length of tripcodes must be either 10 or 12.', 00H
	ORG $+3
$SG4294899203 DB '-b', 00H
	ORG $+1
$SG4294899200 DB '-n', 00H
	ORG $+1
$SG4294899201 DB '-w', 00H
	ORG $+1
$SG4294899198 DB '-g', 00H
	ORG $+1
$SG4294899199 DB '-c', 00H
	ORG $+1
$SG4294899196 DB '%d', 0aH, 00H
$SG4294899197 DB '-t', 00H
	ORG $+1
$SG4294899194 DB 'The number of CPU search threads must be at least 1.', 00H
	ORG $+3
$SG4294899195 DB '[error],%d', 0aH, 00H
$SG4294899192 DB '--output-for-redirection', 00H
	ORG $+3
$SG4294899193 DB 0aH, 'ERROR', 0aH, '=====', 0aH, '  %s', 0aH, 07H, 0aH, ' '
	DB	' Hit any key to exit.', 00H
	ORG $+1
$SG4294899190 DB '-E', 00H
	ORG $+1
$SG4294899191 DB '-e', 00H
	ORG $+1
$SG4294899188 DB '--search-for-hiseki-on-cpu', 00H
	ORG $+1
$SG4294899189 DB '--use-one-byte-characters-for-keys', 00H
	ORG $+1
$SG4294899186 DB '--search-for-kaibun-on-cpu', 00H
	ORG $+1
$SG4294899187 DB '--search-for-kakuhi-on-cpu', 00H
	ORG $+1
$SG4294899184 DB '--search-for-yamabiko-on-cpu', 00H
	ORG $+3
$SG4294899185 DB '--search-for-kagami-on-cpu', 00H
	ORG $+1
$SG4294899182 DB '--use-opencl-for-cuda-devices', 00H
	ORG $+2
$SG4294899183 DB '--search-for-souren-on-cpu', 00H
	ORG $+1
$SG4294899180 DB '--disable-avx2', 00H
	ORG $+1
$SG4294899181 DB '--disable-avx', 00H
	ORG $+2
$SG4294899178 DB '--use-ascii-characters-for-keys', 00H
$SG4294899179 DB '--use-one-byte-characters-for-keys', 00H
	ORG $+1
$SG4294899176 DB '--maximize-key-space', 00H
	ORG $+3
$SG4294899177 DB '--use-one-and-two-byte-characters-for-keys', 00H
	ORG $+1
$SG4294899174 DB '--disable-gcn-assembler', 00H
$SG4294899175 DB '--disable-tripcode-checks', 00H
	ORG $+2
$SG4294899172 DB '--list-expanded-patterns', 00H
	ORG $+3
$SG4294899173 DB '--display-device-information', 00H
	ORG $+3
$SG4294899170 DB '%d', 0aH, 00H
$SG4294899171 DB '--gpu-list', 00H
	ORG $+1
$SG4294899168 DB 'An invalid option was specified.', 00H
	ORG $+3
$SG4294899169 DB '[error],%d', 0aH, 00H
$SG4294899166 DB 'patterns.txt', 00H
	ORG $+3
$SG4294899167 DB 0aH, 'ERROR', 0aH, '=====', 0aH, '  %s', 0aH, 07H, 0aH, ' '
	DB	' Hit any key to exit.', 00H
	ORG $+1
$SG4294899164 DB '[error],%d', 0aH, 00H
$SG4294899165 DB '%d', 0aH, 00H
$SG4294899162 DB 0aH, 'ERROR', 0aH, '=====', 0aH, '  Assertion Failed: fi'
	DB	'le %s, line %d', 0aH, 07H, 0aH, '  Hit any key to exit.', 00H
	ORG $+1
$SG4294899163 DB '..\SourceFiles\Main.cpp', 00H
$SG4294899160 DB '[error],%d', 0aH, 00H
$SG4294899161 DB '%d', 0aH, 00H
$SG4294899156 DB '%c', 00H
	ORG $+1
$SG4294899158 DB 0aH, 'ERROR', 0aH, '=====', 0aH, '  Assertion Failed: fi'
	DB	'le %s, line %d', 0aH, 07H, 0aH, '  Hit any key to exit.', 00H
	ORG $+1
$SG4294899159 DB '..\SourceFiles\Main.cpp', 00H
$SG4294899157 DB '!', 00H
	ORG $+2
$SG4294899154 DB '%c', 00H
	ORG $+1
$SG4294899155 DB ' #', 00H
	ORG $+1
$SG4294899152 DB '%02X', 00H
	ORG $+3
$SG4294899153 DB ' (', 00H
	ORG $+1
$SG4294899150 DB ')', 0aH, 00H
	ORG $+1
$SG4294899151 DB ' ', 00H
	ORG $+2
$SG4294899148 DB '%c', 00H
	ORG $+1
$SG4294899149 DB '  !', 00H
$SG4294899146 DB '%c', 00H
	ORG $+1
$SG4294899147 DB ' #', 00H
	ORG $+1
$SG4294899144 DB '%02X', 00H
	ORG $+3
$SG4294899145 DB ' (', 00H
	ORG $+1
$SG4294899142 DB ')', 00H
	ORG $+2
$SG4294899143 DB ' ', 00H
	ORG $+2
$SG4294899140 DB 0aH, 00H
	ORG $+2
$SG4294899141 DB ' ', 00H
	ORG $+2
$SG4294899138 DB '%c', 00H
	ORG $+1
$SG4294899139 DB '[tripcode],%c%c', 00H
$SG4294899136 DB '%c', 00H
	ORG $+1
$SG4294899137 DB ',#', 00H
	ORG $+1
$SG4294899134 DB '%02X', 00H
	ORG $+3
$SG4294899135 DB ',(', 00H
	ORG $+1
$SG4294899132 DB ')', 0aH, 00H
	ORG $+1
$SG4294899133 DB ' ', 00H
	ORG $+2
$SG4294899130 DB '!', 00H
	ORG $+2
$SG4294899131 DB 07H, 00H
	ORG $+2
$SG4294899128 DB '  ', 00H
	ORG $+1
$SG4294899129 DB '%c', 00H
	ORG $+1
$SG4294899126 DB ' (', 00H
	ORG $+1
$SG4294899127 DB ' ', 00H
	ORG $+2
$SG4294899124 DB ' ', 00H
	ORG $+2
$SG4294899125 DB '%02X', 00H
	ORG $+3
$SG4294899122 DB '  !', 00H
$SG4294899123 DB ')', 0aH, 00H
	ORG $+1
$SG4294899120 DB '  ', 00H
	ORG $+1
$SG4294899121 DB '%c', 00H
	ORG $+1
$SG4294899118 DB ' (', 00H
	ORG $+1
$SG4294899119 DB ' ', 00H
	ORG $+2
$SG4294899116 DB ' ', 00H
	ORG $+2
$SG4294899117 DB '%02X', 00H
	ORG $+3
$SG4294899114 DB ' ', 00H
	ORG $+2
$SG4294899115 DB ')', 00H
	ORG $+2
$SG4294899112 DB 'a', 00H
	ORG $+2
$SG4294899113 DB 0aH, 00H
	ORG $+2
$SG4294899110 DB '[error],%d', 0aH, 00H
$SG4294899111 DB '%d', 0aH, 00H
$SG4294899108 DB 0aH, 'ERROR', 0aH, '=====', 0aH, '  %s', 0aH, 07H, 0aH, ' '
	DB	' Hit any key to exit.', 00H
	ORG $+1
$SG4294899109 DB 'The output file cannot be opened.', 00H
	ORG $+2
$SG4294899106 DB '[error],%d', 0aH, 00H
$SG4294899107 DB '%d', 0aH, 00H
$SG4294899104 DB 0aH, 'ERROR', 0aH, '=====', 0aH, '  %s', 0aH, 07H, 0aH, ' '
	DB	' Hit any key to exit.', 00H
	ORG $+1
$SG4294899105 DB 'Failed to open an event.', 00H
	ORG $+3
$SG4294899102 DB '[error],%d', 0aH, 00H
$SG4294899103 DB '%d', 0aH, 00H
$SG4294899100 DB 0aH, 'ERROR', 0aH, '=====', 0aH, '  Assertion Failed: fi'
	DB	'le %s, line %d', 0aH, 07H, 0aH, '  Hit any key to exit.', 00H
	ORG $+1
$SG4294899101 DB '..\SourceFiles\Main.cpp', 00H
$SG4294899098 DB '[error],%d', 0aH, 00H
$SG4294899099 DB '%d', 0aH, 00H
$SG4294899096 DB '%d', 0aH, 00H
$SG4294899097 DB 0aH, 'ERROR', 0aH, '=====', 0aH, '  %s', 0aH, 07H, 0aH, ' '
	DB	' Hit any key to exit.', 00H
	ORG $+1
$SG4294899094 DB 0aH, 'ERROR', 0aH, '=====', 0aH, '  %s', 0aH, 07H, 0aH, ' '
	DB	' Hit any key to exit.', 00H
	ORG $+1
$SG4294899095 DB '[error],%d', 0aH, 00H
$SG4294899092 DB '[error],%d', 0aH, 00H
$SG4294899093 DB '%d', 0aH, 00H
$SG4294899088 DB '[error],%d', 0aH, 00H
$SG4294899090 DB 0aH, 'ERROR', 0aH, '=====', 0aH, '  Assertion Failed: fi'
	DB	'le %s, line %d', 0aH, 07H, 0aH, '  Hit any key to exit.', 00H
	ORG $+1
$SG4294899091 DB '..\SourceFiles\Main.cpp', 00H
$SG4294899089 DB '%d', 0aH, 00H
$SG4294899086 DB 0aH, 'ERROR', 0aH, '=====', 0aH, '  CUDA Function Call F'
	DB	'ailed: %s [%d] (file ''%s'', line %d)', 0aH, '  The video car'
	DB	'd may be low on resources.', 0aH, 07H, 0aH, '  Hit any key to'
	DB	' exit.', 00H
	ORG $+2
$SG4294899084 DB '[error],%d', 0aH, 00H
$SG4294899087 DB '..\SourceFiles\Main.cpp', 00H
$SG4294899085 DB '%d', 0aH, 00H
$SG4294899080 DB '[error],%d', 0aH, 00H
$SG4294899082 DB 0aH, 'ERROR', 0aH, '=====', 0aH, '  Assertion Failed: fi'
	DB	'le %s, line %d', 0aH, 07H, 0aH, '  Hit any key to exit.', 00H
	ORG $+1
$SG4294899083 DB '..\SourceFiles\Main.cpp', 00H
$SG4294899081 DB '%d', 0aH, 00H
$SG4294899078 DB 0aH, 'ERROR', 0aH, '=====', 0aH, '  CUDA Function Call F'
	DB	'ailed: %s [%d] (file ''%s'', line %d)', 0aH, '  The video car'
	DB	'd may be low on resources.', 0aH, 07H, 0aH, '  Hit any key to'
	DB	' exit.', 00H
	ORG $+6
$SG4294899079 DB '..\SourceFiles\Main.cpp', 00H
$SG4294899076 DB '[error],%d', 0aH, 00H
$SG4294899077 DB '%d', 0aH, 00H
$SG4294899074 DB 0aH, 'ERROR', 0aH, '=====', 0aH, '  %s', 0aH, 07H, 0aH, ' '
	DB	' Hit any key to exit.', 00H
	ORG $+1
$SG4294899075 DB 'Failed to start a CUDA device search thread.', 00H
	ORG $+3
$SG4294899072 DB '[error],%d', 0aH, 00H
$SG4294899073 DB '%d', 0aH, 00H
$SG4294899068 DB '[error],%d', 0aH, 00H
$SG4294899070 DB 0aH, 'ERROR', 0aH, '=====', 0aH, '  Assertion Failed: fi'
	DB	'le %s, line %d', 0aH, 07H, 0aH, '  Hit any key to exit.', 00H
	ORG $+1
$SG4294899071 DB '..\SourceFiles\Main.cpp', 00H
$SG4294899069 DB '%d', 0aH, 00H
$SG4294899066 DB 0aH, 'ERROR', 0aH, '=====', 0aH, '  %s', 0aH, 07H, 0aH, ' '
	DB	' Hit any key to exit.', 00H
	ORG $+1
$SG4294899067 DB 'Failed to start a CUDA device search thread.', 00H
	ORG $+3
$SG4294899064 DB '[error],%d', 0aH, 00H
$SG4294899065 DB '%d', 0aH, 00H
$SG4294899060 DB '[error],%d', 0aH, 00H
$SG4294899062 DB 0aH, 'ERROR', 0aH, '=====', 0aH, '  Assertion Failed: fi'
	DB	'le %s, line %d', 0aH, 07H, 0aH, '  Hit any key to exit.', 00H
	ORG $+1
$SG4294899063 DB '..\SourceFiles\Main.cpp', 00H
$SG4294899061 DB '%d', 0aH, 00H
$SG4294899058 DB '%d', 0aH, 00H
$SG4294899059 DB 0aH, 'ERROR', 0aH, '=====', 0aH, '  %s', 0aH, 07H, 0aH, ' '
	DB	' Hit any key to exit.', 00H
	ORG $+1
$SG4294899056 DB 0aH, 'ERROR', 0aH, '=====', 0aH, '  %s', 0aH, 07H, 0aH, ' '
	DB	' Hit any key to exit.', 00H
	ORG $+1
$SG4294899057 DB '[error],%d', 0aH, 00H
$SG4294899054 DB '[error],%d', 0aH, 00H
$SG4294899055 DB '%d', 0aH, 00H
$SG4294899052 DB 0aH, 'ERROR', 0aH, '=====', 0aH, '  OpenCL Function Call'
	DB	' Failed: %s (file ''%s'', line %d)', 0aH, 07H, 0aH, '  Hit an'
	DB	'y key to exit.', 00H
	ORG $+3
$SG4294899053 DB '..\SourceFiles\Main.cpp', 00H
$SG4294899050 DB '[error],%d', 0aH, 00H
$SG4294899051 DB '%d', 0aH, 00H
$SG4294899048 DB 0aH, 'ERROR', 0aH, '=====', 0aH, '  Assertion Failed: fi'
	DB	'le %s, line %d', 0aH, 07H, 0aH, '  Hit any key to exit.', 00H
	ORG $+1
$SG4294899049 DB '..\SourceFiles\Main.cpp', 00H
$SG4294899046 DB '[error],%d', 0aH, 00H
$SG4294899047 DB '%d', 0aH, 00H
$SG4294899042 DB '[error],%d', 0aH, 00H
$SG4294899044 DB 0aH, 'ERROR', 0aH, '=====', 0aH, '  Assertion Failed: fi'
	DB	'le %s, line %d', 0aH, 07H, 0aH, '  Hit any key to exit.', 00H
	ORG $+1
$SG4294899045 DB '..\SourceFiles\Main.cpp', 00H
$SG4294899043 DB '%d', 0aH, 00H
$SG4294899040 DB 0aH, 'ERROR', 0aH, '=====', 0aH, '  Assertion Failed: fi'
	DB	'le %s, line %d', 0aH, 07H, 0aH, '  Hit any key to exit.', 00H
	ORG $+1
$SG4294899041 DB '..\SourceFiles\Main.cpp', 00H
$SG4294899038 DB '[error],%d', 0aH, 00H
$SG4294899039 DB '%d', 0aH, 00H
$SG4294899034 DB '[error],%d', 0aH, 00H
$SG4294899036 DB 0aH, 'ERROR', 0aH, '=====', 0aH, '  Assertion Failed: fi'
	DB	'le %s, line %d', 0aH, 07H, 0aH, '  Hit any key to exit.', 00H
	ORG $+1
$SG4294899037 DB '..\SourceFiles\Main.cpp', 00H
$SG4294899035 DB '%d', 0aH, 00H
$SG4294899032 DB 0aH, 'ERROR', 0aH, '=====', 0aH, '  OpenCL Function Call'
	DB	' Failed: %s (file ''%s'', line %d)', 0aH, 07H, 0aH, '  Hit an'
	DB	'y key to exit.', 00H
	ORG $+3
$SG4294899030 DB '[error],%d', 0aH, 00H
$SG4294899031 DB '%d', 0aH, 00H
$SG4294899029 DB '..\SourceFiles\Main.cpp', 00H
$SG4294899033 DB '..\SourceFiles\Main.cpp', 00H
$SG4294899028 DB 0aH, 'ERROR', 0aH, '=====', 0aH, '  Assertion Failed: fi'
	DB	'le %s, line %d', 0aH, 07H, 0aH, '  Hit any key to exit.', 00H
	ORG $+1
$SG4294899026 DB '[error],%d', 0aH, 00H
$SG4294899027 DB '%d', 0aH, 00H
$SG4294899022 DB '[error],%d', 0aH, 00H
$SG4294899024 DB 0aH, 'ERROR', 0aH, '=====', 0aH, '  Assertion Failed: fi'
	DB	'le %s, line %d', 0aH, 07H, 0aH, '  Hit any key to exit.', 00H
	ORG $+1
$SG4294899025 DB '..\SourceFiles\Main.cpp', 00H
$SG4294899023 DB '%d', 0aH, 00H
$SG4294899020 DB 0aH, 'ERROR', 0aH, '=====', 0aH, '  %s', 0aH, 07H, 0aH, ' '
	DB	' Hit any key to exit.', 00H
	ORG $+1
$SG4294899021 DB 'Failed to start a OpenCL device search thread.', 00H
	ORG $+1
$SG4294899018 DB '[error],%d', 0aH, 00H
$SG4294899019 DB '%d', 0aH, 00H
$SG4294899014 DB '[error],%d', 0aH, 00H
$SG4294899016 DB 0aH, 'ERROR', 0aH, '=====', 0aH, '  Assertion Failed: fi'
	DB	'le %s, line %d', 0aH, 07H, 0aH, '  Hit any key to exit.', 00H
	ORG $+1
$SG4294899017 DB '..\SourceFiles\Main.cpp', 00H
$SG4294899015 DB '%d', 0aH, 00H
$SG4294899012 DB 0aH, 'ERROR', 0aH, '=====', 0aH, '  %s', 0aH, 07H, 0aH, ' '
	DB	' Hit any key to exit.', 00H
	ORG $+1
$SG4294899013 DB 'Failed to start a OpenCL device search thread.', 00H
	ORG $+1
$SG4294899010 DB '[error],%d', 0aH, 00H
$SG4294899011 DB '%d', 0aH, 00H
$SG4294899006 DB '[error],%d', 0aH, 00H
$SG4294899008 DB 0aH, 'ERROR', 0aH, '=====', 0aH, '  Assertion Failed: fi'
	DB	'le %s, line %d', 0aH, 07H, 0aH, '  Hit any key to exit.', 00H
	ORG $+1
$SG4294899009 DB '..\SourceFiles\Main.cpp', 00H
$SG4294899007 DB '%d', 0aH, 00H
$SG4294899004 DB '%d', 0aH, 00H
$SG4294899005 DB 0aH, 'ERROR', 0aH, '=====', 0aH, '  %s', 0aH, 07H, 0aH, ' '
	DB	' Hit any key to exit.', 00H
	ORG $+1
$SG4294899002 DB '..\SourceFiles\Main.cpp', 00H
$SG4294899003 DB '[error],%d', 0aH, 00H
$SG4294899000 DB '%d', 0aH, 00H
$SG4294899001 DB 0aH, 'ERROR', 0aH, '=====', 0aH, '  Assertion Failed: fi'
	DB	'le %s, line %d', 0aH, 07H, 0aH, '  Hit any key to exit.', 00H
	ORG $+1
$SG4294898998 DB 'Failed to start a CPU search thread.', 00H
	ORG $+3
$SG4294898999 DB '[error],%d', 0aH, 00H
$SG4294898996 DB '%d: `%s'' @ %d', 0aH, 00H
	ORG $+1
$SG4294898997 DB 0aH, 'ERROR', 0aH, '=====', 0aH, '  %s', 0aH, 07H, 0aH, ' '
	DB	' Hit any key to exit.', 00H
	ORG $+1
$SG4294898994 DB '--list-expanded-patterns', 00H
	ORG $+3
$SG4294898995 DB '--display-device-information', 00H
	ORG $+3
$SG4294898992 DB '--output-for-redirection', 00H
	ORG $+3
$SG4294898993 DB '--gpu-list', 00H
	ORG $+1
$SG4294898990 DB '%d', 0aH, 00H
$SG4294898991 DB '--gpu-list', 00H
	ORG $+1
$SG4294898988 DB 'Failed to open an event.', 00H
	ORG $+3
$SG4294898989 DB '[error],%d', 0aH, 00H
$SG4294898986 DB 'TRIPCODES', 0aH, 00H
	ORG $+1
$SG4294898987 DB 0aH, 'ERROR', 0aH, '=====', 0aH, '  %s', 0aH, 07H, 0aH, ' '
	DB	' Hit any key to exit.', 00H
	ORG $+1
$SG4294898984 DB '[started]', 0aH, 00H
	ORG $+1
$SG4294898985 DB '=========', 0aH, 00H
	ORG $+1
$SG4294898983 DB 07H, 00H
PUBLIC	??$_Fixarg@AAP6AXPAUOpenCLDeviceSearchThreadInfo@@@ZPAU1@V?$tuple@PAUOpenCLDeviceSearchThreadInfo@@@std@@V?$tuple@$$$V@3@@std@@YAAAPAUOpenCLDeviceSearchThreadInfo@@AAP6AXPAU1@@ZAAV?$tuple@PAUOpenCLDeviceSearchThreadInfo@@@0@AAV?$tuple@$$$V@0@AAPAU1@@Z ; std::_Fixarg<void (__cdecl*&)(OpenCLDeviceSearchThreadInfo *),OpenCLDeviceSearchThreadInfo *,std::tuple<OpenCLDeviceSearchThreadInfo *>,std::tuple<> >
PUBLIC	??$get@$0A@PAUOpenCLDeviceSearchThreadInfo@@@std@@YAAAPAUOpenCLDeviceSearchThreadInfo@@AAV?$tuple@PAUOpenCLDeviceSearchThreadInfo@@@0@@Z ; std::get<0,OpenCLDeviceSearchThreadInfo *>
PUBLIC	??$_Fixarg@AAP6AXPAUCUDADeviceSearchThreadInfo@@@ZPAU1@V?$tuple@PAUCUDADeviceSearchThreadInfo@@@std@@V?$tuple@$$$V@3@@std@@YAAAPAUCUDADeviceSearchThreadInfo@@AAP6AXPAU1@@ZAAV?$tuple@PAUCUDADeviceSearchThreadInfo@@@0@AAV?$tuple@$$$V@0@AAPAU1@@Z ; std::_Fixarg<void (__cdecl*&)(CUDADeviceSearchThreadInfo *),CUDADeviceSearchThreadInfo *,std::tuple<CUDADeviceSearchThreadInfo *>,std::tuple<> >
PUBLIC	??$get@$0A@PAUCUDADeviceSearchThreadInfo@@@std@@YAAAPAUCUDADeviceSearchThreadInfo@@AAV?$tuple@PAUCUDADeviceSearchThreadInfo@@@0@@Z ; std::get<0,CUDADeviceSearchThreadInfo *>
PUBLIC	??$?0PAUOpenCLDeviceSearchThreadInfo@@@?$_Tuple_val@PAUOpenCLDeviceSearchThreadInfo@@@std@@QAE@$$QAPAUOpenCLDeviceSearchThreadInfo@@@Z ; std::_Tuple_val<OpenCLDeviceSearchThreadInfo *>::_Tuple_val<OpenCLDeviceSearchThreadInfo *><OpenCLDeviceSearchThreadInfo *>
PUBLIC	??$?0PAUCUDADeviceSearchThreadInfo@@@?$_Tuple_val@PAUCUDADeviceSearchThreadInfo@@@std@@QAE@$$QAPAUCUDADeviceSearchThreadInfo@@@Z ; std::_Tuple_val<CUDADeviceSearchThreadInfo *>::_Tuple_val<CUDADeviceSearchThreadInfo *><CUDADeviceSearchThreadInfo *>
PUBLIC	??$_Do_call@$$$V$S@?$_Bind@$00XQ6AXXZ$$$V@std@@QAEXV?$tuple@$$$V@1@U?$_Arg_idx@$S@1@@Z ; std::_Bind<1,void,void (__cdecl*const)(void)>::_Do_call<>
PUBLIC	??$_Do_call@$$$V$0A@@?$_Bind@$00XQ6AXPAUOpenCLDeviceSearchThreadInfo@@@ZPAU1@@std@@QAEXV?$tuple@$$$V@1@U?$_Arg_idx@$0A@@1@@Z ; std::_Bind<1,void,void (__cdecl*const)(OpenCLDeviceSearchThreadInfo *),OpenCLDeviceSearchThreadInfo *>::_Do_call<,0>
PUBLIC	??$_Do_call@$$$V$0A@@?$_Bind@$00XQ6AXPAUCUDADeviceSearchThreadInfo@@@ZPAU1@@std@@QAEXV?$tuple@$$$V@1@U?$_Arg_idx@$0A@@1@@Z ; std::_Bind<1,void,void (__cdecl*const)(CUDADeviceSearchThreadInfo *),CUDADeviceSearchThreadInfo *>::_Do_call<,0>
PUBLIC	??$tie@$$$V@std@@YA?AV?$tuple@$$$V@0@XZ		; std::tie<>
PUBLIC	??$forward@AAP6AXXZ@std@@YAAAP6AXXZAAP6AXXZ@Z	; std::forward<void (__cdecl*&)(void)>
PUBLIC	??$?0PAUOpenCLDeviceSearchThreadInfo@@$$$VPAPAX@?$tuple@PAUOpenCLDeviceSearchThreadInfo@@@std@@QAE@$$QAPAUOpenCLDeviceSearchThreadInfo@@@Z ; std::tuple<OpenCLDeviceSearchThreadInfo *>::tuple<OpenCLDeviceSearchThreadInfo *><OpenCLDeviceSearchThreadInfo *,void * *>
PUBLIC	??$forward@AAP6AXPAUOpenCLDeviceSearchThreadInfo@@@Z@std@@YAAAP6AXPAUOpenCLDeviceSearchThreadInfo@@@ZAAP6AX0@Z@Z ; std::forward<void (__cdecl*&)(OpenCLDeviceSearchThreadInfo *)>
PUBLIC	??$?0PAUCUDADeviceSearchThreadInfo@@$$$VPAPAX@?$tuple@PAUCUDADeviceSearchThreadInfo@@@std@@QAE@$$QAPAUCUDADeviceSearchThreadInfo@@@Z ; std::tuple<CUDADeviceSearchThreadInfo *>::tuple<CUDADeviceSearchThreadInfo *><CUDADeviceSearchThreadInfo *,void * *>
PUBLIC	??$forward@AAP6AXPAUCUDADeviceSearchThreadInfo@@@Z@std@@YAAAP6AXPAUCUDADeviceSearchThreadInfo@@@ZAAP6AX0@Z@Z ; std::forward<void (__cdecl*&)(CUDADeviceSearchThreadInfo *)>
PUBLIC	?_Get_rest@?$tuple@PAUOpenCLDeviceSearchThreadInfo@@@std@@QAEAAV?$tuple@$$$V@2@XZ ; std::tuple<OpenCLDeviceSearchThreadInfo *>::_Get_rest
PUBLIC	?_Get_rest@?$tuple@PAUCUDADeviceSearchThreadInfo@@@std@@QAEAAV?$tuple@$$$V@2@XZ ; std::tuple<CUDADeviceSearchThreadInfo *>::_Get_rest
PUBLIC	??$forward@V?$tuple@$$$V@std@@@std@@YA$$QAV?$tuple@$$$V@0@AAV10@@Z ; std::forward<std::tuple<> >
PUBLIC	??$forward@P6AXXZ@std@@YA$$QAP6AXXZAAP6AXXZ@Z	; std::forward<void (__cdecl*)(void)>
PUBLIC	??$?0PAUOpenCLDeviceSearchThreadInfo@@PAPAX@?$tuple@PAUOpenCLDeviceSearchThreadInfo@@@std@@QAE@$$QAV01@@Z ; std::tuple<OpenCLDeviceSearchThreadInfo *>::tuple<OpenCLDeviceSearchThreadInfo *><OpenCLDeviceSearchThreadInfo *,void * *>
PUBLIC	??$forward@V?$tuple@PAUOpenCLDeviceSearchThreadInfo@@@std@@@std@@YA$$QAV?$tuple@PAUOpenCLDeviceSearchThreadInfo@@@0@AAV10@@Z ; std::forward<std::tuple<OpenCLDeviceSearchThreadInfo *> >
PUBLIC	??$forward@P6AXPAUOpenCLDeviceSearchThreadInfo@@@Z@std@@YA$$QAP6AXPAUOpenCLDeviceSearchThreadInfo@@@ZAAP6AX0@Z@Z ; std::forward<void (__cdecl*)(OpenCLDeviceSearchThreadInfo *)>
PUBLIC	??$?0PAUCUDADeviceSearchThreadInfo@@PAPAX@?$tuple@PAUCUDADeviceSearchThreadInfo@@@std@@QAE@$$QAV01@@Z ; std::tuple<CUDADeviceSearchThreadInfo *>::tuple<CUDADeviceSearchThreadInfo *><CUDADeviceSearchThreadInfo *,void * *>
PUBLIC	??$forward@V?$tuple@PAUCUDADeviceSearchThreadInfo@@@std@@@std@@YA$$QAV?$tuple@PAUCUDADeviceSearchThreadInfo@@@0@AAV10@@Z ; std::forward<std::tuple<CUDADeviceSearchThreadInfo *> >
PUBLIC	??$forward@P6AXPAUCUDADeviceSearchThreadInfo@@@Z@std@@YA$$QAP6AXPAUCUDADeviceSearchThreadInfo@@@ZAAP6AX0@Z@Z ; std::forward<void (__cdecl*)(CUDADeviceSearchThreadInfo *)>
PUBLIC	??$?R$$$V@?$_Bind@$00XQ6AXXZ$$$V@std@@QAEXXZ	; std::_Bind<1,void,void (__cdecl*const)(void)>::operator()<>
PUBLIC	??$?R$$$V@?$_Bind@$00XQ6AXPAUOpenCLDeviceSearchThreadInfo@@@ZPAU1@@std@@QAEXXZ ; std::_Bind<1,void,void (__cdecl*const)(OpenCLDeviceSearchThreadInfo *),OpenCLDeviceSearchThreadInfo *>::operator()<>
PUBLIC	??$?R$$$V@?$_Bind@$00XQ6AXPAUCUDADeviceSearchThreadInfo@@@ZPAU1@@std@@QAEXXZ ; std::_Bind<1,void,void (__cdecl*const)(CUDADeviceSearchThreadInfo *),CUDADeviceSearchThreadInfo *>::operator()<>
PUBLIC	??$?0V?$_Bind@$00XQ6AXXZ$$$V@std@@@?$_LaunchPad@V?$_Bind@$00XQ6AXXZ$$$V@std@@@std@@QAE@$$QAV?$_Bind@$00XQ6AXXZ$$$V@1@@Z ; std::_LaunchPad<std::_Bind<1,void,void (__cdecl*const)(void)> >::_LaunchPad<std::_Bind<1,void,void (__cdecl*const)(void)> ><std::_Bind<1,void,void (__cdecl*const)(void)> >
PUBLIC	??$forward@V?$_Bind@$00XQ6AXXZ$$$V@std@@@std@@YA$$QAV?$_Bind@$00XQ6AXXZ$$$V@0@AAV10@@Z ; std::forward<std::_Bind<1,void,void (__cdecl*const)(void)> >
PUBLIC	??$?0AAP6AXXZ$$$V@?$_Bind@$00XQ6AXXZ$$$V@std@@QAE@AAP6AXXZ@Z ; std::_Bind<1,void,void (__cdecl*const)(void)>::_Bind<1,void,void (__cdecl*const)(void)><void (__cdecl*&)(void)>
PUBLIC	??$?0V?$_Bind@$00XQ6AXPAUOpenCLDeviceSearchThreadInfo@@@ZPAU1@@std@@@?$_LaunchPad@V?$_Bind@$00XQ6AXPAUOpenCLDeviceSearchThreadInfo@@@ZPAU1@@std@@@std@@QAE@$$QAV?$_Bind@$00XQ6AXPAUOpenCLDeviceSearchThreadInfo@@@ZPAU1@@1@@Z ; std::_LaunchPad<std::_Bind<1,void,void (__cdecl*const)(OpenCLDeviceSearchThreadInfo *),OpenCLDeviceSearchThreadInfo *> >::_LaunchPad<std::_Bind<1,void,void (__cdecl*const)(OpenCLDeviceSearchThreadInfo *),OpenCLDeviceSearchThreadInfo *> ><std::_Bind<1,void,void (__cdecl*const)(OpenCLDeviceSearchThreadInfo *),OpenCLDeviceSearchThreadInfo *> >
PUBLIC	??$forward@V?$_Bind@$00XQ6AXPAUOpenCLDeviceSearchThreadInfo@@@ZPAU1@@std@@@std@@YA$$QAV?$_Bind@$00XQ6AXPAUOpenCLDeviceSearchThreadInfo@@@ZPAU1@@0@AAV10@@Z ; std::forward<std::_Bind<1,void,void (__cdecl*const)(OpenCLDeviceSearchThreadInfo *),OpenCLDeviceSearchThreadInfo *> >
PUBLIC	??$?0AAP6AXPAUOpenCLDeviceSearchThreadInfo@@@ZPAU0@@?$_Bind@$00XQ6AXPAUOpenCLDeviceSearchThreadInfo@@@ZPAU1@@std@@QAE@AAP6AXPAUOpenCLDeviceSearchThreadInfo@@@Z$$QAPAU2@@Z ; std::_Bind<1,void,void (__cdecl*const)(OpenCLDeviceSearchThreadInfo *),OpenCLDeviceSearchThreadInfo *>::_Bind<1,void,void (__cdecl*const)(OpenCLDeviceSearchThreadInfo *),OpenCLDeviceSearchThreadInfo *><void (__cdecl*&)(OpenCLDeviceSearchThreadInfo *),OpenCLDeviceSearchThreadInfo *>
PUBLIC	??$?0V?$_Bind@$00XQ6AXPAUCUDADeviceSearchThreadInfo@@@ZPAU1@@std@@@?$_LaunchPad@V?$_Bind@$00XQ6AXPAUCUDADeviceSearchThreadInfo@@@ZPAU1@@std@@@std@@QAE@$$QAV?$_Bind@$00XQ6AXPAUCUDADeviceSearchThreadInfo@@@ZPAU1@@1@@Z ; std::_LaunchPad<std::_Bind<1,void,void (__cdecl*const)(CUDADeviceSearchThreadInfo *),CUDADeviceSearchThreadInfo *> >::_LaunchPad<std::_Bind<1,void,void (__cdecl*const)(CUDADeviceSearchThreadInfo *),CUDADeviceSearchThreadInfo *> ><std::_Bind<1,void,void (__cdecl*const)(CUDADeviceSearchThreadInfo *),CUDADeviceSearchThreadInfo *> >
PUBLIC	??$forward@V?$_Bind@$00XQ6AXPAUCUDADeviceSearchThreadInfo@@@ZPAU1@@std@@@std@@YA$$QAV?$_Bind@$00XQ6AXPAUCUDADeviceSearchThreadInfo@@@ZPAU1@@0@AAV10@@Z ; std::forward<std::_Bind<1,void,void (__cdecl*const)(CUDADeviceSearchThreadInfo *),CUDADeviceSearchThreadInfo *> >
PUBLIC	??$?0AAP6AXPAUCUDADeviceSearchThreadInfo@@@ZPAU0@@?$_Bind@$00XQ6AXPAUCUDADeviceSearchThreadInfo@@@ZPAU1@@std@@QAE@AAP6AXPAUCUDADeviceSearchThreadInfo@@@Z$$QAPAU2@@Z ; std::_Bind<1,void,void (__cdecl*const)(CUDADeviceSearchThreadInfo *),CUDADeviceSearchThreadInfo *>::_Bind<1,void,void (__cdecl*const)(CUDADeviceSearchThreadInfo *),CUDADeviceSearchThreadInfo *><void (__cdecl*&)(CUDADeviceSearchThreadInfo *),CUDADeviceSearchThreadInfo *>
PUBLIC	??0?$_Bind@$00XQ6AXXZ$$$V@std@@QAE@$$QAV01@@Z	; std::_Bind<1,void,void (__cdecl*const)(void)>::_Bind<1,void,void (__cdecl*const)(void)>
PUBLIC	??0?$_Bind@$00XQ6AXPAUOpenCLDeviceSearchThreadInfo@@@ZPAU1@@std@@QAE@$$QAV01@@Z ; std::_Bind<1,void,void (__cdecl*const)(OpenCLDeviceSearchThreadInfo *),OpenCLDeviceSearchThreadInfo *>::_Bind<1,void,void (__cdecl*const)(OpenCLDeviceSearchThreadInfo *),OpenCLDeviceSearchThreadInfo *>
PUBLIC	??0?$_Bind@$00XQ6AXPAUCUDADeviceSearchThreadInfo@@@ZPAU1@@std@@QAE@$$QAV01@@Z ; std::_Bind<1,void,void (__cdecl*const)(CUDADeviceSearchThreadInfo *),CUDADeviceSearchThreadInfo *>::_Bind<1,void,void (__cdecl*const)(CUDADeviceSearchThreadInfo *),CUDADeviceSearchThreadInfo *>
PUBLIC	?_Run@?$_LaunchPad@V?$_Bind@$00XQ6AXXZ$$$V@std@@@std@@CAIPAV12@@Z ; std::_LaunchPad<std::_Bind<1,void,void (__cdecl*const)(void)> >::_Run
PUBLIC	?_Run@?$_LaunchPad@V?$_Bind@$00XQ6AXPAUOpenCLDeviceSearchThreadInfo@@@ZPAU1@@std@@@std@@CAIPAV12@@Z ; std::_LaunchPad<std::_Bind<1,void,void (__cdecl*const)(OpenCLDeviceSearchThreadInfo *),OpenCLDeviceSearchThreadInfo *> >::_Run
PUBLIC	?_Run@?$_LaunchPad@V?$_Bind@$00XQ6AXPAUCUDADeviceSearchThreadInfo@@@ZPAU1@@std@@@std@@CAIPAV12@@Z ; std::_LaunchPad<std::_Bind<1,void,void (__cdecl*const)(CUDADeviceSearchThreadInfo *),CUDADeviceSearchThreadInfo *> >::_Run
PUBLIC	?_Go@?$_LaunchPad@V?$_Bind@$00XQ6AXXZ$$$V@std@@@std@@UAEIXZ ; std::_LaunchPad<std::_Bind<1,void,void (__cdecl*const)(void)> >::_Go
PUBLIC	?_Go@?$_LaunchPad@V?$_Bind@$00XQ6AXPAUOpenCLDeviceSearchThreadInfo@@@ZPAU1@@std@@@std@@UAEIXZ ; std::_LaunchPad<std::_Bind<1,void,void (__cdecl*const)(OpenCLDeviceSearchThreadInfo *),OpenCLDeviceSearchThreadInfo *> >::_Go
PUBLIC	?_Go@?$_LaunchPad@V?$_Bind@$00XQ6AXPAUCUDADeviceSearchThreadInfo@@@ZPAU1@@std@@@std@@UAEIXZ ; std::_LaunchPad<std::_Bind<1,void,void (__cdecl*const)(CUDADeviceSearchThreadInfo *),CUDADeviceSearchThreadInfo *> >::_Go
PUBLIC	??1?$_LaunchPad@V?$_Bind@$00XQ6AXXZ$$$V@std@@@std@@QAE@XZ ; std::_LaunchPad<std::_Bind<1,void,void (__cdecl*const)(void)> >::~_LaunchPad<std::_Bind<1,void,void (__cdecl*const)(void)> >
PUBLIC	??1?$_LaunchPad@V?$_Bind@$00XQ6AXPAUOpenCLDeviceSearchThreadInfo@@@ZPAU1@@std@@@std@@QAE@XZ ; std::_LaunchPad<std::_Bind<1,void,void (__cdecl*const)(OpenCLDeviceSearchThreadInfo *),OpenCLDeviceSearchThreadInfo *> >::~_LaunchPad<std::_Bind<1,void,void (__cdecl*const)(OpenCLDeviceSearchThreadInfo *),OpenCLDeviceSearchThreadInfo *> >
PUBLIC	??1?$_LaunchPad@V?$_Bind@$00XQ6AXPAUCUDADeviceSearchThreadInfo@@@ZPAU1@@std@@@std@@QAE@XZ ; std::_LaunchPad<std::_Bind<1,void,void (__cdecl*const)(CUDADeviceSearchThreadInfo *),CUDADeviceSearchThreadInfo *> >::~_LaunchPad<std::_Bind<1,void,void (__cdecl*const)(CUDADeviceSearchThreadInfo *),CUDADeviceSearchThreadInfo *> >
PUBLIC	??$_Launch@V?$_Bind@$00XQ6AXXZ$$$V@std@@@std@@YAXPAU_Thrd_imp_t@@$$QAV?$_Bind@$00XQ6AXXZ$$$V@0@@Z ; std::_Launch<std::_Bind<1,void,void (__cdecl*const)(void)> >
PUBLIC	??$bind@X$$$V$$$V@std@@YA?AV?$_Bind@$00XQ6AXXZ$$$V@0@P6AXXZ@Z ; std::bind<void>
PUBLIC	??$_Decay_copy@A6AXXZ@std@@YAP6AXXZA6AXXZ@Z	; std::_Decay_copy<void (__cdecl&)(void)>
PUBLIC	??$forward@A6AXXZ@std@@YAA6AXXZA6AXXZ@Z		; std::forward<void (__cdecl&)(void)>
PUBLIC	??$_Launch@V?$_Bind@$00XQ6AXPAUOpenCLDeviceSearchThreadInfo@@@ZPAU1@@std@@@std@@YAXPAU_Thrd_imp_t@@$$QAV?$_Bind@$00XQ6AXPAUOpenCLDeviceSearchThreadInfo@@@ZPAU1@@0@@Z ; std::_Launch<std::_Bind<1,void,void (__cdecl*const)(OpenCLDeviceSearchThreadInfo *),OpenCLDeviceSearchThreadInfo *> >
PUBLIC	??$bind@XPAUOpenCLDeviceSearchThreadInfo@@PAU1@@std@@YA?AV?$_Bind@$00XQ6AXPAUOpenCLDeviceSearchThreadInfo@@@ZPAU1@@0@P6AXPAUOpenCLDeviceSearchThreadInfo@@@Z$$QAPAU2@@Z ; std::bind<void,OpenCLDeviceSearchThreadInfo *,OpenCLDeviceSearchThreadInfo *>
PUBLIC	??$_Decay_copy@PAUOpenCLDeviceSearchThreadInfo@@@std@@YAPAUOpenCLDeviceSearchThreadInfo@@$$QAPAU1@@Z ; std::_Decay_copy<OpenCLDeviceSearchThreadInfo *>
PUBLIC	??$forward@PAUOpenCLDeviceSearchThreadInfo@@@std@@YA$$QAPAUOpenCLDeviceSearchThreadInfo@@AAPAU1@@Z ; std::forward<OpenCLDeviceSearchThreadInfo *>
PUBLIC	??$_Decay_copy@A6AXPAUOpenCLDeviceSearchThreadInfo@@@Z@std@@YAP6AXPAUOpenCLDeviceSearchThreadInfo@@@ZA6AX0@Z@Z ; std::_Decay_copy<void (__cdecl&)(OpenCLDeviceSearchThreadInfo *)>
PUBLIC	??$forward@A6AXPAUOpenCLDeviceSearchThreadInfo@@@Z@std@@YAA6AXPAUOpenCLDeviceSearchThreadInfo@@@ZA6AX0@Z@Z ; std::forward<void (__cdecl&)(OpenCLDeviceSearchThreadInfo *)>
PUBLIC	??$_Launch@V?$_Bind@$00XQ6AXPAUCUDADeviceSearchThreadInfo@@@ZPAU1@@std@@@std@@YAXPAU_Thrd_imp_t@@$$QAV?$_Bind@$00XQ6AXPAUCUDADeviceSearchThreadInfo@@@ZPAU1@@0@@Z ; std::_Launch<std::_Bind<1,void,void (__cdecl*const)(CUDADeviceSearchThreadInfo *),CUDADeviceSearchThreadInfo *> >
PUBLIC	??$bind@XPAUCUDADeviceSearchThreadInfo@@PAU1@@std@@YA?AV?$_Bind@$00XQ6AXPAUCUDADeviceSearchThreadInfo@@@ZPAU1@@0@P6AXPAUCUDADeviceSearchThreadInfo@@@Z$$QAPAU2@@Z ; std::bind<void,CUDADeviceSearchThreadInfo *,CUDADeviceSearchThreadInfo *>
PUBLIC	??$_Decay_copy@PAUCUDADeviceSearchThreadInfo@@@std@@YAPAUCUDADeviceSearchThreadInfo@@$$QAPAU1@@Z ; std::_Decay_copy<CUDADeviceSearchThreadInfo *>
PUBLIC	??$forward@PAUCUDADeviceSearchThreadInfo@@@std@@YA$$QAPAUCUDADeviceSearchThreadInfo@@AAPAU1@@Z ; std::forward<CUDADeviceSearchThreadInfo *>
PUBLIC	??$_Decay_copy@A6AXPAUCUDADeviceSearchThreadInfo@@@Z@std@@YAP6AXPAUCUDADeviceSearchThreadInfo@@@ZA6AX0@Z@Z ; std::_Decay_copy<void (__cdecl&)(CUDADeviceSearchThreadInfo *)>
PUBLIC	??$forward@A6AXPAUCUDADeviceSearchThreadInfo@@@Z@std@@YAA6AXPAUCUDADeviceSearchThreadInfo@@@ZA6AX0@Z@Z ; std::forward<void (__cdecl&)(CUDADeviceSearchThreadInfo *)>
PUBLIC	??$?0A6AXXZ$$$V@thread@std@@QAE@A6AXXZ@Z	; std::thread::thread<void (__cdecl&)(void)>
PUBLIC	??$?0A6AXPAUOpenCLDeviceSearchThreadInfo@@@ZPAU0@@thread@std@@QAE@A6AXPAUOpenCLDeviceSearchThreadInfo@@@Z$$QAPAU2@@Z ; std::thread::thread<void (__cdecl&)(OpenCLDeviceSearchThreadInfo *),OpenCLDeviceSearchThreadInfo *>
PUBLIC	??$?0A6AXPAUCUDADeviceSearchThreadInfo@@@ZPAU0@@thread@std@@QAE@A6AXPAUCUDADeviceSearchThreadInfo@@@Z$$QAPAU2@@Z ; std::thread::thread<void (__cdecl&)(CUDADeviceSearchThreadInfo *),CUDADeviceSearchThreadInfo *>
PUBLIC	_main
PUBLIC	?ListExpandedPatterns@@YAXXZ			; ListExpandedPatterns
PUBLIC	?GetParentProcessID@@YAHXZ			; GetParentProcessID
PUBLIC	?StartCPUSearchThreads@@YAXXZ			; StartCPUSearchThreads
PUBLIC	?StartGPUSearchThreads@@YAXXZ			; StartGPUSearchThreads
PUBLIC	?StartOpenCLDeviceSearchThreads@@YAXXZ		; StartOpenCLDeviceSearchThreads
PUBLIC	?StartCUDADeviceSearchThreads@@YAXXZ		; StartCUDADeviceSearchThreads
PUBLIC	?UpdateCurrentStatus@@YAN_K@Z			; UpdateCurrentStatus
PUBLIC	?SetTerminationState@@YAXXZ			; SetTerminationState
PUBLIC	?SetPauseState@@YAXH@Z				; SetPauseState
PUBLIC	?GetNumGeneratedTripcodesByGPU@@YANXZ		; GetNumGeneratedTripcodesByGPU
PUBLIC	?GetNumGeneratedTripcodesByCPU@@YANXZ		; GetNumGeneratedTripcodesByCPU
PUBLIC	?AddToNumGeneratedTripcodesByGPU@@YAXI@Z	; AddToNumGeneratedTripcodesByGPU
PUBLIC	?OpenTripcodeFile@@YAXXZ			; OpenTripcodeFile
PUBLIC	?ObtainOptions@@YAXHPAPAD@Z			; ObtainOptions
PUBLIC	?InitSearchDevices@@YAXH@Z			; InitSearchDevices
PUBLIC	?ListGPUsAndExit@@YAXXZ				; ListGPUsAndExit
PUBLIC	?ListOpenCLDevices@@YAXXZ			; ListOpenCLDevices
PUBLIC	?CountOpenCLDevices@@YAXXZ			; CountOpenCLDevices
PUBLIC	?ListCUDADevices@@YAXXZ				; ListCUDADevices
PUBLIC	?InitProcess@@YAXXZ				; InitProcess
PUBLIC	?ControlHandler@@YGHK@Z				; ControlHandler
PUBLIC	?PrintStatus@@YAXXZ				; PrintStatus
PUBLIC	?KeepSearchThreadsAlive@@YAXXZ			; KeepSearchThreadsAlive
PUBLIC	??_Gthread@std@@QAEPAXI@Z			; std::thread::`scalar deleting destructor'
PUBLIC	?CheckSearchThreads@@YAXXZ			; CheckSearchThreads
PUBLIC	?UpdateCUDADeviceStatus@@YAXPAUCUDADeviceSearchThreadInfo@@PAD@Z ; UpdateCUDADeviceStatus
PUBLIC	?DisplayCopyrights@@YAXXZ			; DisplayCopyrights
PUBLIC	?CreateCharacterTables@@YAXXZ			; CreateCharacterTables
PUBLIC	?CreateKey8AndKey9@@YAXPAE@Z			; CreateKey8AndKey9
PUBLIC	?hide_cursor@@YAXXZ				; hide_cursor
PUBLIC	?ReleaseResources@@YAXXZ			; ReleaseResources
PUBLIC	?native_handle@thread@std@@QAEPAXXZ		; std::thread::native_handle
PUBLIC	?detach@thread@std@@QAEXXZ			; std::thread::detach
PUBLIC	?joinable@thread@std@@QBE_NXZ			; std::thread::joinable
PUBLIC	??1thread@std@@QAE@XZ				; std::thread::~thread
PUBLIC	?_Thrd_detachX@std@@YAHU_Thrd_imp_t@@@Z		; std::_Thrd_detachX
PUBLIC	?_Check_C_return@std@@YAHH@Z			; std::_Check_C_return
PUBLIC	??0?$tuple@$$$V@std@@QAE@ABV01@@Z		; std::tuple<>::tuple<>
PUBLIC	??0?$tuple@$$$V@std@@QAE@XZ			; std::tuple<>::tuple<>
PUBLIC	?ProcessValidTripcodePair@@YAXPAE0@Z		; ProcessValidTripcodePair
PUBLIC	?ProcessInvalidTripcodePair@@YAXPAE0@Z		; ProcessInvalidTripcodePair
PUBLIC	?UpdateOpenCLDeviceStatus_ChildProcess@@YAXPAUOpenCLDeviceSearchThreadInfo@@PADNNNIPAVchild@windows@process@boost@@@Z ; UpdateOpenCLDeviceStatus_ChildProcess
PUBLIC	?SetErrorState@@YAXXZ				; SetErrorState
PUBLIC	?UpdateOpenCLDeviceStatus@@YAXPAUOpenCLDeviceSearchThreadInfo@@PAD@Z ; UpdateOpenCLDeviceStatus
PUBLIC	?GetErrorMessage@@YAPADH@Z			; GetErrorMessage
PUBLIC	?GetErrorState@@YAHXZ				; GetErrorState
PUBLIC	?reset_cursor_pos@@YAXH@Z			; reset_cursor_pos
PUBLIC	?show_cursor@@YAXXZ				; show_cursor
PUBLIC	?ProcessGPUOutput@@YANPAEPAUGPUOutput@@IH@Z	; ProcessGPUOutput
PUBLIC	?SetCharactersInTripcodeKeyForSHA1Tripcode@@YAXPAE@Z ; SetCharactersInTripcodeKeyForSHA1Tripcode
PUBLIC	?GetPauseState@@YAHXZ				; GetPauseState
PUBLIC	?AddToNumGeneratedTripcodesByCPU@@YAXI@Z	; AddToNumGeneratedTripcodesByCPU
PUBLIC	?IsValidKey@@YAHPAE@Z				; IsValidKey
PUBLIC	?GetTerminationState@@YAHXZ			; GetTerminationState
PUBLIC	?RandomByte@@YAEXZ				; RandomByte
PUBLIC	?IsFirstByteSJIS@@YAHE@Z			; IsFirstByteSJIS
PUBLIC	?SetCharactersInTripcodeKey@@YAXPAEH@Z		; SetCharactersInTripcodeKey
PUBLIC	?num_generated_tripcodes_spinlock@@3Vspinlock@@A ; num_generated_tripcodes_spinlock
PUBLIC	?process_tripcode_pair_spinlock@@3Vspinlock@@A	; process_tripcode_pair_spinlock
PUBLIC	?cuda_device_search_thread_info_array_spinlock@@3Vspinlock@@A ; cuda_device_search_thread_info_array_spinlock
PUBLIC	?current_state_spinlock@@3Vspinlock@@A		; current_state_spinlock
PUBLIC	?opencl_device_search_thread_info_array_spinlock@@3Vspinlock@@A ; opencl_device_search_thread_info_array_spinlock
PUBLIC	?boost_process_spinlock@@3Vspinlock@@A		; boost_process_spinlock
PUBLIC	?system_command_spinlock@@3Vspinlock@@A		; system_command_spinlock
__Tuple_alloc DB 01H DUP (?)
	ALIGN	4

_errno_ecat DD	01H DUP (?)
_ignore	DB	01H DUP (?)
	ALIGN	4

?num_generated_tripcodes_spinlock@@3Vspinlock@@A DD 01H DUP (?) ; num_generated_tripcodes_spinlock
_allocator_arg DB 01H DUP (?)
	ALIGN	4

?process_tripcode_pair_spinlock@@3Vspinlock@@A DD 01H DUP (?) ; process_tripcode_pair_spinlock
_native_ecat DD	01H DUP (?)
_piecewise_construct DB 01H DUP (?)
	ALIGN	4

?cuda_device_search_thread_info_array_spinlock@@3Vspinlock@@A DD 01H DUP (?) ; cuda_device_search_thread_info_array_spinlock
?current_state_spinlock@@3Vspinlock@@A DD 01H DUP (?)	; current_state_spinlock
_posix_category DD 01H DUP (?)
?opencl_device_search_thread_info_array_spinlock@@3Vspinlock@@A DD 01H DUP (?) ; opencl_device_search_thread_info_array_spinlock
?boost_process_spinlock@@3Vspinlock@@A DD 01H DUP (?)	; boost_process_spinlock
?system_command_spinlock@@3Vspinlock@@A DD 01H DUP (?)	; system_command_spinlock
_BSS	ENDS
;	COMDAT xdata$x
xdata$x	SEGMENT
__ehfuncinfo$?CheckSearchThreads@@YAXXZ DD 019930522H
	DD	04H
	DD	FLAT:__unwindtable$?CheckSearchThreads@@YAXXZ
	DD	2 DUP(00H)
	DD	2 DUP(00H)
	DD	00H
	DD	01H
__unwindtable$?CheckSearchThreads@@YAXXZ DD 0ffffffffH
	DD	FLAT:__unwindfunclet$?CheckSearchThreads@@YAXXZ$0
	DD	00H
	DD	FLAT:__unwindfunclet$?CheckSearchThreads@@YAXXZ$2
	DD	0ffffffffH
	DD	FLAT:__unwindfunclet$?CheckSearchThreads@@YAXXZ$1
	DD	02H
	DD	FLAT:__unwindfunclet$?CheckSearchThreads@@YAXXZ$4
xdata$x	ENDS
;	COMDAT xdata$x
xdata$x	SEGMENT
__ehfuncinfo$?StartCUDADeviceSearchThreads@@YAXXZ DD 019930522H
	DD	06H
	DD	FLAT:__unwindtable$?StartCUDADeviceSearchThreads@@YAXXZ
	DD	2 DUP(00H)
	DD	2 DUP(00H)
	DD	00H
	DD	01H
__unwindtable$?StartCUDADeviceSearchThreads@@YAXXZ DD 0ffffffffH
	DD	FLAT:__unwindfunclet$?StartCUDADeviceSearchThreads@@YAXXZ$0
	DD	00H
	DD	FLAT:__unwindfunclet$?StartCUDADeviceSearchThreads@@YAXXZ$3
	DD	0ffffffffH
	DD	FLAT:__unwindfunclet$?StartCUDADeviceSearchThreads@@YAXXZ$1
	DD	02H
	DD	FLAT:__unwindfunclet$?StartCUDADeviceSearchThreads@@YAXXZ$5
	DD	0ffffffffH
	DD	FLAT:__unwindfunclet$?StartCUDADeviceSearchThreads@@YAXXZ$2
	DD	04H
	DD	FLAT:__unwindfunclet$?StartCUDADeviceSearchThreads@@YAXXZ$7
xdata$x	ENDS
;	COMDAT xdata$x
xdata$x	SEGMENT
__ehfuncinfo$?StartOpenCLDeviceSearchThreads@@YAXXZ DD 019930522H
	DD	04H
	DD	FLAT:__unwindtable$?StartOpenCLDeviceSearchThreads@@YAXXZ
	DD	2 DUP(00H)
	DD	2 DUP(00H)
	DD	00H
	DD	01H
__unwindtable$?StartOpenCLDeviceSearchThreads@@YAXXZ DD 0ffffffffH
	DD	FLAT:__unwindfunclet$?StartOpenCLDeviceSearchThreads@@YAXXZ$0
	DD	00H
	DD	FLAT:__unwindfunclet$?StartOpenCLDeviceSearchThreads@@YAXXZ$2
	DD	0ffffffffH
	DD	FLAT:__unwindfunclet$?StartOpenCLDeviceSearchThreads@@YAXXZ$1
	DD	02H
	DD	FLAT:__unwindfunclet$?StartOpenCLDeviceSearchThreads@@YAXXZ$4
xdata$x	ENDS
;	COMDAT xdata$x
xdata$x	SEGMENT
__ehfuncinfo$?StartCPUSearchThreads@@YAXXZ DD 019930522H
	DD	04H
	DD	FLAT:__unwindtable$?StartCPUSearchThreads@@YAXXZ
	DD	2 DUP(00H)
	DD	2 DUP(00H)
	DD	00H
	DD	01H
__unwindtable$?StartCPUSearchThreads@@YAXXZ DD 0ffffffffH
	DD	FLAT:__unwindfunclet$?StartCPUSearchThreads@@YAXXZ$0
	DD	00H
	DD	FLAT:__unwindfunclet$?StartCPUSearchThreads@@YAXXZ$2
	DD	0ffffffffH
	DD	FLAT:__unwindfunclet$?StartCPUSearchThreads@@YAXXZ$1
	DD	02H
	DD	FLAT:__unwindfunclet$?StartCPUSearchThreads@@YAXXZ$4
xdata$x	ENDS
;	COMDAT xdata$x
xdata$x	SEGMENT
__ehfuncinfo$??$?0A6AXPAUCUDADeviceSearchThreadInfo@@@ZPAU0@@thread@std@@QAE@A6AXPAUCUDADeviceSearchThreadInfo@@@Z$$QAPAU2@@Z DD 019930522H
	DD	01H
	DD	FLAT:__unwindtable$??$?0A6AXPAUCUDADeviceSearchThreadInfo@@@ZPAU0@@thread@std@@QAE@A6AXPAUCUDADeviceSearchThreadInfo@@@Z$$QAPAU2@@Z
	DD	2 DUP(00H)
	DD	2 DUP(00H)
	DD	00H
	DD	01H
__unwindtable$??$?0A6AXPAUCUDADeviceSearchThreadInfo@@@ZPAU0@@thread@std@@QAE@A6AXPAUCUDADeviceSearchThreadInfo@@@Z$$QAPAU2@@Z DD 0ffffffffH
	DD	FLAT:__unwindfunclet$??$?0A6AXPAUCUDADeviceSearchThreadInfo@@@ZPAU0@@thread@std@@QAE@A6AXPAUCUDADeviceSearchThreadInfo@@@Z$$QAPAU2@@Z$0
xdata$x	ENDS
;	COMDAT xdata$x
xdata$x	SEGMENT
__ehfuncinfo$??$?0A6AXPAUOpenCLDeviceSearchThreadInfo@@@ZPAU0@@thread@std@@QAE@A6AXPAUOpenCLDeviceSearchThreadInfo@@@Z$$QAPAU2@@Z DD 019930522H
	DD	01H
	DD	FLAT:__unwindtable$??$?0A6AXPAUOpenCLDeviceSearchThreadInfo@@@ZPAU0@@thread@std@@QAE@A6AXPAUOpenCLDeviceSearchThreadInfo@@@Z$$QAPAU2@@Z
	DD	2 DUP(00H)
	DD	2 DUP(00H)
	DD	00H
	DD	01H
__unwindtable$??$?0A6AXPAUOpenCLDeviceSearchThreadInfo@@@ZPAU0@@thread@std@@QAE@A6AXPAUOpenCLDeviceSearchThreadInfo@@@Z$$QAPAU2@@Z DD 0ffffffffH
	DD	FLAT:__unwindfunclet$??$?0A6AXPAUOpenCLDeviceSearchThreadInfo@@@ZPAU0@@thread@std@@QAE@A6AXPAUOpenCLDeviceSearchThreadInfo@@@Z$$QAPAU2@@Z$0
xdata$x	ENDS
;	COMDAT xdata$x
xdata$x	SEGMENT
__ehfuncinfo$??$?0A6AXXZ$$$V@thread@std@@QAE@A6AXXZ@Z DD 019930522H
	DD	01H
	DD	FLAT:__unwindtable$??$?0A6AXXZ$$$V@thread@std@@QAE@A6AXXZ@Z
	DD	2 DUP(00H)
	DD	2 DUP(00H)
	DD	00H
	DD	01H
__unwindtable$??$?0A6AXXZ$$$V@thread@std@@QAE@A6AXXZ@Z DD 0ffffffffH
	DD	FLAT:__unwindfunclet$??$?0A6AXXZ$$$V@thread@std@@QAE@A6AXXZ@Z$0
xdata$x	ENDS
;	COMDAT xdata$x
xdata$x	SEGMENT
__ehfuncinfo$??$_Launch@V?$_Bind@$00XQ6AXPAUCUDADeviceSearchThreadInfo@@@ZPAU1@@std@@@std@@YAXPAU_Thrd_imp_t@@$$QAV?$_Bind@$00XQ6AXPAUCUDADeviceSearchThreadInfo@@@ZPAU1@@0@@Z DD 019930522H
	DD	01H
	DD	FLAT:__unwindtable$??$_Launch@V?$_Bind@$00XQ6AXPAUCUDADeviceSearchThreadInfo@@@ZPAU1@@std@@@std@@YAXPAU_Thrd_imp_t@@$$QAV?$_Bind@$00XQ6AXPAUCUDADeviceSearchThreadInfo@@@ZPAU1@@0@@Z
	DD	2 DUP(00H)
	DD	2 DUP(00H)
	DD	00H
	DD	01H
__unwindtable$??$_Launch@V?$_Bind@$00XQ6AXPAUCUDADeviceSearchThreadInfo@@@ZPAU1@@std@@@std@@YAXPAU_Thrd_imp_t@@$$QAV?$_Bind@$00XQ6AXPAUCUDADeviceSearchThreadInfo@@@ZPAU1@@0@@Z DD 0ffffffffH
	DD	FLAT:__unwindfunclet$??$_Launch@V?$_Bind@$00XQ6AXPAUCUDADeviceSearchThreadInfo@@@ZPAU1@@std@@@std@@YAXPAU_Thrd_imp_t@@$$QAV?$_Bind@$00XQ6AXPAUCUDADeviceSearchThreadInfo@@@ZPAU1@@0@@Z$0
xdata$x	ENDS
;	COMDAT xdata$x
xdata$x	SEGMENT
__ehfuncinfo$??$_Launch@V?$_Bind@$00XQ6AXPAUOpenCLDeviceSearchThreadInfo@@@ZPAU1@@std@@@std@@YAXPAU_Thrd_imp_t@@$$QAV?$_Bind@$00XQ6AXPAUOpenCLDeviceSearchThreadInfo@@@ZPAU1@@0@@Z DD 019930522H
	DD	01H
	DD	FLAT:__unwindtable$??$_Launch@V?$_Bind@$00XQ6AXPAUOpenCLDeviceSearchThreadInfo@@@ZPAU1@@std@@@std@@YAXPAU_Thrd_imp_t@@$$QAV?$_Bind@$00XQ6AXPAUOpenCLDeviceSearchThreadInfo@@@ZPAU1@@0@@Z
	DD	2 DUP(00H)
	DD	2 DUP(00H)
	DD	00H
	DD	01H
__unwindtable$??$_Launch@V?$_Bind@$00XQ6AXPAUOpenCLDeviceSearchThreadInfo@@@ZPAU1@@std@@@std@@YAXPAU_Thrd_imp_t@@$$QAV?$_Bind@$00XQ6AXPAUOpenCLDeviceSearchThreadInfo@@@ZPAU1@@0@@Z DD 0ffffffffH
	DD	FLAT:__unwindfunclet$??$_Launch@V?$_Bind@$00XQ6AXPAUOpenCLDeviceSearchThreadInfo@@@ZPAU1@@std@@@std@@YAXPAU_Thrd_imp_t@@$$QAV?$_Bind@$00XQ6AXPAUOpenCLDeviceSearchThreadInfo@@@ZPAU1@@0@@Z$0
xdata$x	ENDS
;	COMDAT xdata$x
xdata$x	SEGMENT
__ehfuncinfo$??$_Launch@V?$_Bind@$00XQ6AXXZ$$$V@std@@@std@@YAXPAU_Thrd_imp_t@@$$QAV?$_Bind@$00XQ6AXXZ$$$V@0@@Z DD 019930522H
	DD	01H
	DD	FLAT:__unwindtable$??$_Launch@V?$_Bind@$00XQ6AXXZ$$$V@std@@@std@@YAXPAU_Thrd_imp_t@@$$QAV?$_Bind@$00XQ6AXXZ$$$V@0@@Z
	DD	2 DUP(00H)
	DD	2 DUP(00H)
	DD	00H
	DD	01H
__unwindtable$??$_Launch@V?$_Bind@$00XQ6AXXZ$$$V@std@@@std@@YAXPAU_Thrd_imp_t@@$$QAV?$_Bind@$00XQ6AXXZ$$$V@0@@Z DD 0ffffffffH
	DD	FLAT:__unwindfunclet$??$_Launch@V?$_Bind@$00XQ6AXXZ$$$V@std@@@std@@YAXPAU_Thrd_imp_t@@$$QAV?$_Bind@$00XQ6AXXZ$$$V@0@@Z$0
_posix_category$initializer$ DD FLAT:??__Eposix_category@system@boost@@YAXXZ
_errno_ecat$initializer$ DD FLAT:??__Eerrno_ecat@system@boost@@YAXXZ
_native_ecat$initializer$ DD FLAT:??__Enative_ecat@system@boost@@YAXXZ
_num_generated_tripcodes_spinlock$initializer$ DD FLAT:??__Enum_generated_tripcodes_spinlock@@YAXXZ
_process_tripcode_pair_spinlock$initializer$ DD FLAT:??__Eprocess_tripcode_pair_spinlock@@YAXXZ
_current_state_spinlock$initializer$ DD FLAT:??__Ecurrent_state_spinlock@@YAXXZ
_cuda_device_search_thread_info_array_spinlock$initializer$ DD FLAT:??__Ecuda_device_search_thread_info_array_spinlock@@YAXXZ
_opencl_device_search_thread_info_array_spinlock$initializer$ DD FLAT:??__Eopencl_device_search_thread_info_array_spinlock@@YAXXZ
_system_command_spinlock$initializer$ DD FLAT:??__Esystem_command_spinlock@@YAXXZ
_boost_process_spinlock$initializer$ DD FLAT:??__Eboost_process_spinlock@@YAXXZ
; Function compile flags: /Ogtp
; File z:\github\merikens-tripcode-engine\sourcefiles\main.cpp
;	COMDAT ?SetCharactersInTripcodeKey@@YAXPAEH@Z
_TEXT	SEGMENT
_randomValue$1 = -16					; size = 4
_randomValue$2 = -12					; size = 4
_randomValue$3 = -8					; size = 4
_randomValue$4 = -8					; size = 4
_randomValue$5 = -8					; size = 4
_randomValue$6 = -4					; size = 4
_randomValue$7 = -4					; size = 4
_randomValue$8 = -4					; size = 4
_key$ = 8						; size = 4
_n$ = 12						; size = 4
?SetCharactersInTripcodeKey@@YAXPAEH@Z PROC		; SetCharactersInTripcodeKey, COMDAT

; 1723 : {

	push	ebp
	mov	ebp, esp
	sub	esp, 16					; 00000010H
	push	ebx
	push	esi

; 1724 : 	if (options.useOnlyASCIICharactersForKeys) {
; 1725 : 		for (int32_t i = 0; i < n; i++){

	xor	esi, esi
	push	edi
	cmp	DWORD PTR ?options@@3UOptions@@A+84, esi
	je	SHORT $LN72@SetCharact
	mov	ebx, DWORD PTR _n$[ebp]
	test	ebx, ebx
	jle	$LN151@SetCharact
	mov	edi, DWORD PTR _key$[ebp]
$LL71@SetCharact:

; 229  : 	rand_s(&randomValue);

	lea	eax, DWORD PTR _randomValue$8[ebp]
	push	eax
	call	_rand_s

; 1726 : 			key[i] = RandomByte();

	mov	al, BYTE PTR _randomValue$8[ebp]
$LN152@SetCharact:

; 229  : 	rand_s(&randomValue);

	add	esp, 4

; 1726 : 			key[i] = RandomByte();

	mov	BYTE PTR [esi+edi], al

; 1727 : 			while ((i == 0 && (key[i] == '#' || key[i] == '$')) || !IS_ASCII_KEY_CHAR(key[i]))

	test	esi, esi
	jne	SHORT $LN65@SetCharact
	mov	al, BYTE PTR [edi]
	cmp	al, 35					; 00000023H
	je	SHORT $LN61@SetCharact
	cmp	al, 36					; 00000024H
	je	SHORT $LN61@SetCharact
$LN65@SetCharact:
	mov	al, BYTE PTR [esi+edi]
	cmp	al, 33					; 00000021H
	je	SHORT $LN70@SetCharact
	cmp	al, 36					; 00000024H
	je	SHORT $LN70@SetCharact
	cmp	al, 39					; 00000027H
	jb	SHORT $LN64@SetCharact
	cmp	al, 42					; 0000002aH
	jbe	SHORT $LN70@SetCharact
$LN64@SetCharact:
	cmp	al, 45					; 0000002dH
	jb	SHORT $LN63@SetCharact
	cmp	al, 59					; 0000003bH
	jbe	SHORT $LN70@SetCharact
$LN63@SetCharact:
	cmp	al, 61					; 0000003dH
	jb	SHORT $LN62@SetCharact
	jbe	SHORT $LN70@SetCharact
$LN62@SetCharact:
	cmp	al, 63					; 0000003fH
	jb	SHORT $LN61@SetCharact
	cmp	al, 126					; 0000007eH
	jbe	SHORT $LN70@SetCharact
$LN61@SetCharact:

; 229  : 	rand_s(&randomValue);

	lea	eax, DWORD PTR _randomValue$5[ebp]
	push	eax
	call	_rand_s

; 1728 : 				key[i] = (unsigned char)(RandomByte() & 0xff);

	mov	al, BYTE PTR _randomValue$5[ebp]
	jmp	SHORT $LN152@SetCharact
$LN70@SetCharact:

; 1724 : 	if (options.useOnlyASCIICharactersForKeys) {
; 1725 : 		for (int32_t i = 0; i < n; i++){

	inc	esi
	cmp	esi, ebx
	jl	SHORT $LL71@SetCharact
	pop	edi
	pop	esi
	pop	ebx

; 1750 : 			}
; 1751 : 		}
; 1752 : 	}
; 1753 : }

	mov	esp, ebp
	pop	ebp
	ret	0
$LN72@SetCharact:

; 1729 : 		}
; 1730 : 	} else if (options.useOneByteCharactersForKeys) {

	cmp	DWORD PTR ?options@@3UOptions@@A+48, 0
	je	SHORT $LN59@SetCharact

; 1731 : 		for (int32_t i = 0; i < n; i++){

	mov	ebx, DWORD PTR _n$[ebp]
	test	ebx, ebx
	jle	$LN151@SetCharact
	mov	edi, DWORD PTR _key$[ebp]
	npad	5
$LL58@SetCharact:

; 229  : 	rand_s(&randomValue);

	lea	eax, DWORD PTR _randomValue$4[ebp]
	push	eax
	call	_rand_s

; 1732 : 			key[i] = RandomByte();

	mov	al, BYTE PTR _randomValue$4[ebp]
$LN153@SetCharact:

; 229  : 	rand_s(&randomValue);

	add	esp, 4

; 1732 : 			key[i] = RandomByte();

	mov	BYTE PTR [esi+edi], al

; 1733 : 			while ((i == 0 && (key[i] == '#' || key[i] == '$')) || !IS_ONE_BYTE_KEY_CHAR(key[i]))

	test	esi, esi
	jne	SHORT $LN52@SetCharact
	mov	al, BYTE PTR [edi]
	cmp	al, 35					; 00000023H
	je	SHORT $LN48@SetCharact
	cmp	al, 36					; 00000024H
	je	SHORT $LN48@SetCharact
$LN52@SetCharact:
	mov	al, BYTE PTR [esi+edi]
	cmp	al, 33					; 00000021H
	jb	SHORT $LN51@SetCharact
	cmp	al, 36					; 00000024H
	jbe	SHORT $LN57@SetCharact
$LN51@SetCharact:
	cmp	al, 38					; 00000026H
	jb	SHORT $LN50@SetCharact
	cmp	al, 42					; 0000002aH
	jbe	SHORT $LN57@SetCharact
$LN50@SetCharact:
	cmp	al, 45					; 0000002dH
	jb	SHORT $LN49@SetCharact
	cmp	al, 126					; 0000007eH
	jbe	SHORT $LN57@SetCharact
$LN49@SetCharact:
	cmp	al, 161					; 000000a1H
	jb	SHORT $LN48@SetCharact
	cmp	al, 223					; 000000dfH
	jbe	SHORT $LN57@SetCharact
$LN48@SetCharact:

; 229  : 	rand_s(&randomValue);

	lea	eax, DWORD PTR _randomValue$7[ebp]
	push	eax
	call	_rand_s

; 1734 : 				key[i] = (unsigned char)(RandomByte() & 0xff);

	mov	al, BYTE PTR _randomValue$7[ebp]
	jmp	SHORT $LN153@SetCharact
$LN57@SetCharact:

; 1731 : 		for (int32_t i = 0; i < n; i++){

	inc	esi
	cmp	esi, ebx
	jl	SHORT $LL58@SetCharact
	pop	edi
	pop	esi
	pop	ebx

; 1750 : 			}
; 1751 : 		}
; 1752 : 	}
; 1753 : }

	mov	esp, ebp
	pop	ebp
	ret	0
$LN59@SetCharact:

; 1735 : 		}
; 1736 : 	} else {
; 1737 : 		BOOL isSecondByteSJIS = FALSE;
; 1738 : 		for (int32_t i = 0; i < n; i++){

	xor	edi, edi
	cmp	DWORD PTR _n$[ebp], esi
	jle	$LN151@SetCharact
	mov	ebx, DWORD PTR _key$[ebp]
	npad	5
$LL46@SetCharact:

; 1739 : 			if (!isSecondByteSJIS) {

	test	esi, esi
	jne	$LN43@SetCharact

; 229  : 	rand_s(&randomValue);

	lea	eax, DWORD PTR _randomValue$3[ebp]
	push	eax
	call	_rand_s

; 1740 : 				key[i] = RandomByte();

	mov	al, BYTE PTR _randomValue$3[ebp]
$LN155@SetCharact:

; 229  : 	rand_s(&randomValue);

	add	esp, 4

; 1740 : 				key[i] = RandomByte();

	mov	BYTE PTR [edi+ebx], al

; 1741 : 				while ((i == 0 && (key[i] == '#' || key[i] == '$')) || !(IS_ONE_BYTE_KEY_CHAR(key[i]) || IsFirstByteSJIS(key[i])))

	test	edi, edi
	jne	SHORT $LN39@SetCharact
	mov	al, BYTE PTR [ebx]
	cmp	al, 35					; 00000023H
	je	SHORT $LN40@SetCharact
	cmp	al, 36					; 00000024H
	je	SHORT $LN40@SetCharact
$LN39@SetCharact:
	mov	al, BYTE PTR [edi+ebx]
	mov	ecx, DWORD PTR ?options@@3UOptions@@A+88
	cmp	al, 33					; 00000021H
	jb	SHORT $LN38@SetCharact
	cmp	al, 36					; 00000024H
	jbe	SHORT $LN91@SetCharact
$LN38@SetCharact:
	cmp	al, 38					; 00000026H
	jb	SHORT $LN37@SetCharact
	cmp	al, 42					; 0000002aH
	jbe	SHORT $LN91@SetCharact
$LN37@SetCharact:
	cmp	al, 45					; 0000002dH
	jb	SHORT $LN36@SetCharact
	cmp	al, 126					; 0000007eH
	jbe	SHORT $LN91@SetCharact
$LN36@SetCharact:
	cmp	al, 161					; 000000a1H
	jb	SHORT $LN35@SetCharact
	cmp	al, 223					; 000000dfH
	jbe	SHORT $LN91@SetCharact
$LN35@SetCharact:

; 230  : 	return (unsigned char)(randomValue & 0x000000ff);
; 231  : }
; 232  : 
; 233  : void ReleaseResources()
; 234  : {
; 235  : 	RELEASE_AND_SET_TO_NULL(expandedPatternArray, free);
; 236  : 	RELEASE_AND_SET_TO_NULL(tripcodeChunkArray,   free);
; 237  : 	RELEASE_AND_SET_TO_NULL(regexPatternArray,    free);
; 238  : 	if (tripcodeFile) {
; 239  : 		RELEASE_AND_SET_TO_NULL(tripcodeFile,     fclose);
; 240  : 	}
; 241  : 	if (eventForTerminating) {
; 242  : 		CloseHandle(eventForTerminating);
; 243  : 		eventForTerminating = NULL;
; 244  : 	}
; 245  : }
; 246  : 
; 247  : void PrintUsage()
; 248  : {
; 249  : 	printf("Usage: %s [-c] [-g] [-d device_no] [-x blocks_per_SM] [-y global_work_size] [-z local_work_size] [-o tripcode_file] [-f pattern_file] [-i] [-w]\n", COMMAND);
; 250  : 	getchar();
; 251  : 	exit(-1);
; 252  : }
; 253  : 
; 254  : void reset_cursor_pos(int n)
; 255  : {
; 256  : #ifdef _WINDOWS_
; 257  : 	CONSOLE_SCREEN_BUFFER_INFO scrnBufInfo;
; 258  : 	COORD                      cursorPos;
; 259  : 	if (!GetConsoleScreenBufferInfo(GetStdHandle(STD_OUTPUT_HANDLE), &scrnBufInfo))
; 260  : 		return;
; 261  : 	cursorPos.X = 0;
; 262  : 	cursorPos.Y = (scrnBufInfo.dwCursorPosition.Y + n) >= 0
; 263  : 		? (scrnBufInfo.dwCursorPosition.Y + n)
; 264  : 		: 0;
; 265  : 	SetConsoleCursorPosition(GetStdHandle(STD_OUTPUT_HANDLE), cursorPos);
; 266  : #else
; 267  : 	if (n >= 0) {
; 268  : 		std::cout << "\033[" << n << "B";
; 269  : 	} else {
; 270  : 		std::cout << "\033[" << -n << "A";
; 271  : 	}
; 272  : #endif
; 273  : }
; 274  : 
; 275  : #ifdef _WINDOWS_
; 276  : 
; 277  : void hide_cursor()
; 278  : {
; 279  : 	CONSOLE_CURSOR_INFO info;
; 280  : 
; 281  : 	info.bVisible = false;
; 282  : 	info.dwSize = 100;
; 283  : 	SetConsoleCursorInfo((HWND)GetStdHandle(STD_OUTPUT_HANDLE), &info);
; 284  : }
; 285  : 
; 286  : void show_cursor()
; 287  : {
; 288  : 	CONSOLE_CURSOR_INFO info;
; 289  : 
; 290  : 	info.bVisible = true;
; 291  : 	info.dwSize = 100;
; 292  : 	SetConsoleCursorInfo((HWND)GetStdHandle(STD_OUTPUT_HANDLE), &info); 
; 293  : }
; 294  : 
; 295  : #else
; 296  : 
; 297  : void hide_cursor()
; 298  : {
; 299  : }
; 300  : 
; 301  : void show_cursor()
; 302  : {
; 303  : }
; 304  : 
; 305  : #endif
; 306  : 
; 307  : void CreateKey8AndKey9(unsigned char *key)
; 308  : {
; 309  : 	ASSERT(lenTripcode == 10);
; 310  : 	if (options.useOneByteCharactersForKeys) {
; 311  : 		key[8] = keyCharTable_OneByte[RandomByte()];
; 312  : 		key[9] = keyCharTable_OneByte[RandomByte()];
; 313  : 	} else {
; 314  : 		BOOL isSecondByte = FALSE;
; 315  : 		for (int32_t i = 0; i < 8; ++i) {
; 316  : 			if (!isSecondByte) {
; 317  : 				isSecondByte = IS_FIRST_BYTE_SJIS_FULL(key[i]);
; 318  : 			} else {
; 319  : 				isSecondByte = FALSE;
; 320  : 			}
; 321  : 		}
; 322  : 		if (isSecondByte) {
; 323  : 			key[8] = keyCharTable_SecondByte[RandomByte()];
; 324  : 			key[9] = keyCharTable_OneByte   [RandomByte()];
; 325  : 		} else {
; 326  : 			key[8] = keyCharTable_FirstByte[RandomByte()];
; 327  : 			key[9] = (IS_FIRST_BYTE_SJIS_FULL(key[8]))
; 328  : 							? keyCharTable_SecondByte[RandomByte()]
; 329  : 							: keyCharTable_OneByte   [RandomByte()];
; 330  : 		}
; 331  : 	}
; 332  : }
; 333  : 
; 334  : double ProcessGPUOutput(unsigned char *partialKey, GPUOutput *outputArray, uint32_t sizeOutputArray, BOOL newFormat)
; 335  : {
; 336  : 	unsigned char  tripcode[MAX_LEN_TRIPCODE     + 1];
; 337  : 	unsigned char  key     [MAX_LEN_TRIPCODE_KEY + 1];
; 338  : 	double numGeneratedTripcodesInThisOutput = 0;
; 339  : 	
; 340  : 	tripcode[lenTripcode   ] = '\0';
; 341  : 	key     [lenTripcodeKey] = '\0';
; 342  : 	memcpy(key, partialKey, lenTripcodeKey);
; 343  : 	for (uint32_t indexOutput = 0; indexOutput < sizeOutputArray; indexOutput++){
; 344  : 		GPUOutput *output = &outputArray[indexOutput];
; 345  : 		AddToNumGeneratedTripcodesByGPU(output->numGeneratedTripcodes);
; 346  : 		numGeneratedTripcodesInThisOutput += output->numGeneratedTripcodes;
; 347  : 		if (output->numMatchingTripcodes > 0) {
; 348  : 			memcpy(tripcode, output->pair.tripcode.c, lenTripcode);
; 349  : 			if (lenTripcode == 12 && newFormat) {
; 350  : 				memcpy(key, output->pair.key.c, 4);
; 351  : 				key[7]  = output->pair.key.c[7];
; 352  : 				key[11] = output->pair.key.c[11];
; 353  : 			} else if (lenTripcode == 12) {
; 354  : 				memcpy(key + 7,  output->pair.key.c + 7, lenTripcode - 7);
; 355  : 			} else {
; 356  : 				ASSERT(lenTripcode == 10);
; 357  : 				memcpy(key,  output->pair.key.c, 8);
; 358  : 				CreateKey8AndKey9(key);
; 359  : 			}
; 360  : 			//printf("{%s, %s}\n", tripcode, key);
; 361  : 			ERROR0(!IsTripcodeChunkValid(tripcode),
; 362  : 				   ERROR_TRIPCODE_VERIFICATION_FAILED, 
; 363  : 				   GetErrorMessage(ERROR_TRIPCODE_VERIFICATION_FAILED));
; 364  : 			ProcessPossibleMatch(tripcode, key);
; 365  : 		}
; 366  : 	}
; 367  : 	return numGeneratedTripcodesInThisOutput;
; 368  : }
; 369  : 
; 370  : BOOL IsValidKey(unsigned char *key)
; 371  : {
; 372  : 	int32_t i;
; 373  : 	BOOL isSecondByteSJIS = FALSE;
; 374  : 	char results[13] = {0x00, 0x00, 0x00, 0x00, 0x00, 0x00, 0x00, 0x00, 0x00, 0x00, 0x00, 0x00, 0x00};
; 375  : 	
; 376  : 	if (key[0] == '#' || key[0] == '$') {
; 377  : #ifdef DEBUG_PRINT_INVALID_KEY_INFO
; 378  : 		printf("  results: %c                                                     \n", key[0]);
; 379  : #endif
; 380  : 		return FALSE;
; 381  : 	}
; 382  : 
; 383  : 	for (i = 0; i < lenTripcode; ++i) {
; 384  : 		if (!isSecondByteSJIS && IS_ONE_BYTE_KEY_CHAR(key[i])) {
; 385  : 			// Don't do anything
; 386  : 			results[i] = 'O';
; 387  : 		} else if (!isSecondByteSJIS && i < lenTripcode - 1 && IS_FIRST_BYTE_SJIS_FULL(key[i])) {
; 388  : 			isSecondByteSJIS = TRUE;
; 389  : 			results[i] = '1';
; 390  : 		} else if (isSecondByteSJIS && IS_SECOND_BYTE_SJIS(key[i])) {
; 391  : 		    isSecondByteSJIS = FALSE;
; 392  : 		    if (!IS_VALID_SJIS_CHAR(key[i - 1], key[i])) {
; 393  : #ifdef DEBUG_PRINT_INVALID_KEY_INFO
; 394  : 				printf("  results: %sx                                                     \n", results);
; 395  : 				printf("  key[%2d]: 0x%02x ('%c')                                            \n", i, key[i], key[i]);
; 396  : #endif
; 397  : 				return FALSE;
; 398  : 			}
; 399  : 			results[i] = '2';
; 400  : 		} else {
; 401  : #ifdef DEBUG_PRINT_INVALID_KEY_INFO
; 402  : 			printf("  results: %sX                                                     \n", results);
; 403  : 			printf("  key[%2d]: 0x%02x ('%c')                                            \n", i, key[i], key[i]);
; 404  : #endif
; 405  : 			return FALSE;
; 406  : 		}
; 407  : 	}
; 408  : 	return TRUE;
; 409  : }
; 410  : 
; 411  : void CreateCharacterTables(void)
; 412  : {
; 413  : 	unsigned char keyChar;
; 414  : 	int32_t i;
; 415  : 
; 416  : #if FALSE
; 417  : 	for (i = 0; i < 64; ++i)
; 418  : 		base64CharTable[i] = i + ((i < 26) ?  'A'       :
; 419  : 		                          (i < 52) ? ('a' - 26) :
; 420  : 		                          (i < 62) ? ('0' - 52) :
; 421  : 		                                     ('.' - 62));
; 422  : #endif
; 423  : 
; 424  : 	numFirstByte = numSecondByte = numOneByte = 0;
; 425  : 
; 426  : 	// Set keyCharTable_OneByte[]
; 427  : 	if (options.useOnlyASCIICharactersForKeys) {
; 428  : 		do {
; 429  : 			keyChar = RandomByte();
; 430  : 		} while (!IS_ASCII_KEY_CHAR(keyChar));
; 431  : 		for (i = 0; i < SIZE_KEY_CHAR_TABLE; ++i) {
; 432  : 			keyChar = ((int32_t)keyChar + 1) & 0xff;
; 433  : 			while (!IS_ASCII_KEY_CHAR(keyChar))
; 434  : 				keyChar = ((int32_t)keyChar + 1) & 0xff;
; 435  : 			keyCharTable_OneByte[i] = keyChar;
; 436  : 		}
; 437  : 	} else {
; 438  : 		do {
; 439  : 			keyChar = RandomByte();
; 440  : 		} while (!IS_ONE_BYTE_KEY_CHAR(keyChar));
; 441  : 		for (i = 0; i < SIZE_KEY_CHAR_TABLE; ++i) {
; 442  : 			keyChar = ((int32_t)keyChar + 1) & 0xff;
; 443  : 			while (!IS_ONE_BYTE_KEY_CHAR(keyChar))
; 444  : 				keyChar = ((int32_t)keyChar + 1) & 0xff;
; 445  : 			keyCharTable_OneByte[i] = keyChar;
; 446  : 		}
; 447  : 	}
; 448  : 
; 449  : 	// Set keyCharTable_FirstByte[], keyCharTable_SecondByte[], and keyCharTable_SecondByteAndOneByte[].
; 450  : 	if (options.useOnlyASCIICharactersForKeys) {
; 451  : 		for (i = 0; i < SIZE_KEY_CHAR_TABLE; ++i) {
; 452  : 			keyCharTable_FirstByte [i]           = keyCharTable_OneByte[i];
; 453  : 			keyCharTable_SecondByte[i]           = keyCharTable_OneByte[i];
; 454  : 			keyCharTable_SecondByteAndOneByte[i] = keyCharTable_OneByte[i];
; 455  : 		}
; 456  : 		for (int32_t i = 0; i < 256; ++i) {
; 457  : 			if (IS_ASCII_KEY_CHAR(i)) {
; 458  : 				++numFirstByte;
; 459  : 				++numSecondByte;
; 460  : 				++numOneByte;
; 461  : 			}
; 462  : 		}
; 463  : 	} else if (options.useOneByteCharactersForKeys) {
; 464  : 		for (i = 0; i < SIZE_KEY_CHAR_TABLE; ++i) {
; 465  : 			keyCharTable_FirstByte           [i] = keyCharTable_OneByte[i];
; 466  : 			keyCharTable_SecondByte          [i] = keyCharTable_OneByte[i];
; 467  : 			keyCharTable_SecondByteAndOneByte[i] = keyCharTable_OneByte[i];
; 468  : 		}
; 469  : 		for (int32_t i = 0; i < 256; ++i) {
; 470  : 			if (IS_ONE_BYTE_KEY_CHAR(i)) {
; 471  : 				++numFirstByte;
; 472  : 				++numSecondByte;
; 473  : 				++numOneByte;
; 474  : 			}
; 475  : 		}
; 476  : 	} else {
; 477  : 		// Set keyCharTable_FirstByte[].
; 478  : 		do {
; 479  : 			keyChar = RandomByte();
; 480  : 		} while (!(IS_ONE_BYTE_KEY_CHAR(keyChar) || IsFirstByteSJIS(keyChar)));
; 481  : 		for (i = 0; i < SIZE_KEY_CHAR_TABLE; ++i) {
; 482  : 			keyCharTable_FirstByte[i] = keyChar;
; 483  : 			do {
; 484  : 				keyChar = ((int32_t)keyChar + 1) & 0xff;
; 485  : 			} while (!(IS_ONE_BYTE_KEY_CHAR(keyChar) || IsFirstByteSJIS(keyChar)));
; 486  : 		}
; 487  : 
; 488  : 		// Set keyCharTable_SecondByte[].
; 489  : 		do {
; 490  : 			keyChar = RandomByte();
; 491  : 		} while (!IS_SECOND_BYTE_SJIS(keyChar));
; 492  : 		for (i = 0; i < SIZE_KEY_CHAR_TABLE; ++i) {
; 493  : 			keyCharTable_SecondByte[i] = keyChar;
; 494  : 			do {
; 495  : 				keyChar = ((int32_t)keyChar + 1) & 0xff;
; 496  : 			} while (!IS_SECOND_BYTE_SJIS(keyChar));
; 497  : 		}
; 498  : 
; 499  : 		// Set keyCharTable_SecondByteAndOneByte[].
; 500  : 		do {
; 501  : 			keyChar = RandomByte();
; 502  : 		} while (!(IS_SECOND_BYTE_SJIS(keyChar) && IS_ONE_BYTE_KEY_CHAR(keyChar)));
; 503  : 		for (i = 0; i < SIZE_KEY_CHAR_TABLE; ++i) {
; 504  : 			keyCharTable_SecondByteAndOneByte[i] = keyChar;
; 505  : 			do {
; 506  : 				keyChar = ((int32_t)keyChar + 1) & 0xff;
; 507  : 			} while (!(IS_SECOND_BYTE_SJIS(keyChar) && IS_ONE_BYTE_KEY_CHAR(keyChar)));
; 508  : 		}
; 509  : 
; 510  : 		// Count characters in each table.
; 511  : 		for (int32_t i = 0; i < 256; ++i) {
; 512  : 			if (IS_ONE_BYTE_KEY_CHAR(i) || IsFirstByteSJIS(i) ) ++numFirstByte;
; 513  : 			if (                           IS_SECOND_BYTE_SJIS(i)) ++numSecondByte;
; 514  : 			if (IS_ONE_BYTE_KEY_CHAR(i)                          ) ++numOneByte;
; 515  : 		}
; 516  : 	}
; 517  : #if FALSE
; 518  : 	printf("numFirstByte  = %d\n", numFirstByte);
; 519  : 	printf("numSecondByte = %d\n", numSecondByte);
; 520  : 	printf("numOneByte    = %d\n", numOneByte);
; 521  : #endif
; 522  : }
; 523  : 
; 524  : void DisplayCopyrights()
; 525  : {
; 526  : #ifdef ENGLISH_VERSION
; 527  : 	printf("%s English\n", PRODUCT_NAME);
; 528  : 	printf("[compiled at %s on %s (PST)]\n", __TIME__, __DATE__);
; 529  : 	printf("Copyright (C) 2014-2016 !/Meriken/. <meriken.ygch.net@gmail.com>\n");
; 530  : #else
; 531  : 	printf("%s\n", PRODUCT_NAME);
; 532  : 	printf("[compiled at %s on %s (PST)]\n", __TIME__, __DATE__);
; 533  : 	printf("Copyright (C) 2011-2016 %c%c/Meriken/. <meriken.ygch.net@gmail.com>\n", 0x81, 0x9f);
; 534  : #endif
; 535  : 	printf("This program comes with ABSOLUTELY NO WARRANTY.\n");
; 536  :     printf("This is free software, and you are welcome to redistribute it\n");
; 537  :     printf("under certain conditions.\n");
; 538  :     printf("\n");
; 539  : }
; 540  : 
; 541  : void UpdateCUDADeviceStatus(struct CUDADeviceSearchThreadInfo *info, char *status)
; 542  : {
; 543  : 	cuda_device_search_thread_info_array_spinlock.lock();
; 544  : 	strcpy(info->status, status);
; 545  : 	info->timeLastUpdated = TIME_SINCE_EPOCH_IN_MILLISECONDS;
; 546  : 	cuda_device_search_thread_info_array_spinlock.unlock();
; 547  : }
; 548  : 
; 549  : void UpdateOpenCLDeviceStatus(struct OpenCLDeviceSearchThreadInfo *info, char *status)
; 550  : {
; 551  : 	opencl_device_search_thread_info_array_spinlock.lock();
; 552  : 	ASSERT(!info->runChildProcess);
; 553  : 	strcpy(info->status, status);
; 554  : 	info->timeLastUpdated = TIME_SINCE_EPOCH_IN_MILLISECONDS;
; 555  : 	opencl_device_search_thread_info_array_spinlock.unlock();
; 556  : }
; 557  : 
; 558  : void UpdateOpenCLDeviceStatus_ChildProcess(struct OpenCLDeviceSearchThreadInfo *info, char *status, double currentSpeed, double averageSpeed, double totalNumGeneratedTripcodes, uint32_t numDiscardedTripcodes, boost::process::child *child_process)
; 559  : {
; 560  : 	opencl_device_search_thread_info_array_spinlock.lock();
; 561  : 	ASSERT(info->runChildProcess);
; 562  : 	strcpy(info->status, status);
; 563  : 	info->currentSpeed = currentSpeed;
; 564  : 	info->averageSpeed = averageSpeed;
; 565  : 	info->totalNumGeneratedTripcodes = totalNumGeneratedTripcodes;
; 566  : 	info->numDiscardedTripcodes = numDiscardedTripcodes;
; 567  : 	info->child_process = child_process;
; 568  : 	info->timeLastUpdated = TIME_SINCE_EPOCH_IN_MILLISECONDS;
; 569  : 	opencl_device_search_thread_info_array_spinlock.unlock();
; 570  : }
; 571  : 
; 572  : void CheckSearchThreads()
; 573  : {
; 574  : 	cuda_device_search_thread_info_array_spinlock.lock();
; 575  : 	for (int32_t index = 0; index < numCUDADeviceSearchThreads; ++index) {
; 576  : 		struct CUDADeviceSearchThreadInfo *info = &CUDADeviceSearchThreadInfoArray[index];
; 577  : 		uint64_t  currentTime = TIME_SINCE_EPOCH_IN_MILLISECONDS;
; 578  : 		uint64_t  deltaTime = currentTime - info->timeLastUpdated;
; 579  : 		// if (deltaTime > 60 * 1000)
; 580  : 		//	strcpy(info->status, "Search thread became unresponsive.");
; 581  : 		//ERROR0(deltaTime > 1 * 60 * 1000, ERROR_SEARCH_THREAD_UNRESPONSIVE, "Search thread became unresponsive.");
; 582  : 		///*
; 583  : 		if (deltaTime > 60 * 1000) {
; 584  : 			strcpy(info->status, "Restarting search thread...");
; 585  : 			auto native_handle = cuda_device_search_threads[index]->native_handle();
; 586  : 			cuda_device_search_threads[index]->detach();
; 587  : 			delete cuda_device_search_threads[index];
; 588  : #ifdef _WINDOWS_
; 589  : 			TerminateThread(native_handle, 0);
; 590  : #elif defined(_POSIX_THREADS)
; 591  : 			pthread_setcanceltype(PTHREAD_CANCEL_ASYNCHRONOUS, NULL);
; 592  : 			pthread_cancel(native_handle);
; 593  : #endif
; 594  : 			cuda_device_search_threads[index] = new std::thread((lenTripcode == 10) 
; 595  : 														          ? Thread_SearchForDESTripcodesOnCUDADevice
; 596  : 															      : Thread_SearchForSHA1TripcodesOnCUDADevice,
; 597  : 															    &(CUDADeviceSearchThreadInfoArray[index]));
; 598  : 		}
; 599  : 		//*/
; 600  : 	}
; 601  : 	cuda_device_search_thread_info_array_spinlock.unlock();
; 602  : 
; 603  : 	opencl_device_search_thread_info_array_spinlock.lock();
; 604  : 	for (int32_t index = 0; index < numOpenCLDeviceSearchThreads; ++index) {
; 605  : 		struct OpenCLDeviceSearchThreadInfo *info = &openCLDeviceSearchThreadInfoArray[index];
; 606  : 		uint64_t  currentTime = TIME_SINCE_EPOCH_IN_MILLISECONDS;
; 607  : 		uint64_t  deltaTime = currentTime - info->timeLastUpdated;
; 608  : 		//ERROR0(deltaTime > 1 * 60 * 1000, ERROR_SEARCH_THREAD_UNRESPONSIVE, "Search thread became unresponsive.");
; 609  : 		///*
; 610  : 		if (deltaTime > 60 * 1000) {
; 611  : 			// If we restart the search thread while the OpenCL kernel is running, amdocl64.dll may crash.
; 612  : 			ERROR0(!info->runChildProcess, ERROR_SEARCH_THREAD_UNRESPONSIVE, "Search thread became unresponsive.");
; 613  : 
; 614  : 			strcpy(info->status, "[process] Restarting search thread...");
; 615  : 			auto native_handle = opencl_device_search_threads[index]->native_handle();
; 616  : 			opencl_device_search_threads[index]->detach();
; 617  : 			delete opencl_device_search_threads[index];
; 618  : #if 0
; 619  : 			if (info->child_process) {
; 620  : 				boost_process_spinlock.lock();
; 621  : 				boost::process::terminate(*(info->child_process));
; 622  : 				boost_process_spinlock.unlock();
; 623  : 			}
; 624  : #endif
; 625  : 			info->child_process = NULL;
; 626  : #ifdef _WINDOWS_
; 627  : 			TerminateThread(native_handle, 0);
; 628  : #elif defined(_POSIX_THREADS)
; 629  : 			pthread_setcanceltype(PTHREAD_CANCEL_ASYNCHRONOUS, NULL);
; 630  : 			pthread_cancel(native_handle);
; 631  : #endif
; 632  : 			info->currentSpeed = 0;
; 633  : 			info->averageSpeed = 0;
; 634  : 			++info->numRestarts;
; 635  : 
; 636  : 			uint32_t winThreadID;
; 637  : 			opencl_device_search_threads[index] = new std::thread((lenTripcode == 10) 
; 638  : 																	       ? Thread_SearchForDESTripcodesOnOpenCLDevice
; 639  : 													                       : Thread_SearchForSHA1TripcodesOnOpenCLDevice,
; 640  : 																	   &(openCLDeviceSearchThreadInfoArray[index]));
; 641  : 		}
; 642  : 		//*/
; 643  : 	}
; 644  : 	opencl_device_search_thread_info_array_spinlock.unlock();
; 645  : }
; 646  : 
; 647  : void KeepSearchThreadsAlive()
; 648  : {
; 649  : 	cuda_device_search_thread_info_array_spinlock.lock();
; 650  : 	for (int32_t index = 0; index < numCUDADeviceSearchThreads; ++index)
; 651  : 		CUDADeviceSearchThreadInfoArray[index].timeLastUpdated = TIME_SINCE_EPOCH_IN_MILLISECONDS;
; 652  : 	cuda_device_search_thread_info_array_spinlock.unlock();
; 653  : 
; 654  : 	opencl_device_search_thread_info_array_spinlock.lock();
; 655  : 	for (int32_t index = 0; index < numOpenCLDeviceSearchThreads; ++index)
; 656  : 		openCLDeviceSearchThreadInfoArray[index].timeLastUpdated = TIME_SINCE_EPOCH_IN_MILLISECONDS;
; 657  : 	opencl_device_search_thread_info_array_spinlock.unlock();
; 658  : }
; 659  : 
; 660  : void PrintStatus()
; 661  : {
; 662  : 	if (GetErrorState() || GetTerminationState())
; 663  : 		return;
; 664  : 
; 665  : 	current_state_spinlock.lock();
; 666  : 
; 667  : 	char msg[MAX_NUM_LINES_STATUS_MSG][LEN_LINE_BUFFER_FOR_SCREEN];
; 668  : 	int32_t lineCount = 0;
; 669  : 
; 670  : #define NEXT_LINE &(msg[lineCount++][0])
; 671  : 
; 672  : 	sprintf(NEXT_LINE, "%-79s", "");
; 673  : 	sprintf(NEXT_LINE, "%-79s", "STATUS");
; 674  : 	sprintf(NEXT_LINE, "%-79s", "======");
; 675  : 	sprintf(NEXT_LINE, "  Performing a %s search on %s",
; 676  : 			(searchMode == SEARCH_MODE_FORWARD_MATCHING             ) ? "forward-matching"  :
; 677  : 			(searchMode == SEARCH_MODE_BACKWARD_MATCHING            ) ? "backward-matching" :
; 678  : 			(searchMode == SEARCH_MODE_FORWARD_AND_BACKWARD_MATCHING) ? "forward- and backward-matching" :
; 679  : 	                                                                    "flexible",
; 680  : 			(searchDevice == SEARCH_DEVICE_CPU) ? "CPU" :
; 681  : 			(searchDevice == SEARCH_DEVICE_GPU) ? "GPU(s)" :
; 682  : 	                                              "CPU and GPU(s)");
; 683  : 	if (minLenExpandedPattern != maxLenExpandedPattern) {
; 684  : 		sprintf(NEXT_LINE,
; 685  : 				"  for %d pattern%s (%d chunk%s) with %d to %d characters%s",
; 686  : 				numExpandedPatterns,
; 687  : 				(numExpandedPatterns == 1) ? "" : "s",
; 688  : 				numTripcodeChunk,
; 689  : 				(numTripcodeChunk == 1) ? "" : "s",
; 690  : 				minLenExpandedPattern,
; 691  : 				maxLenExpandedPattern,
; 692  : 				(searchDevice == SEARCH_DEVICE_CPU) ? "." : ":");
; 693  : 		
; 694  : 	} else {
; 695  : 		sprintf(NEXT_LINE,
; 696  : 				"  for %d pattern%s (%d chunk%s) with %d characters%s",
; 697  : 				numExpandedPatterns,
; 698  : 				(numExpandedPatterns == 1) ? "" : "s",
; 699  : 				numTripcodeChunk,
; 700  : 				(numTripcodeChunk == 1) ? "" : "s",
; 701  : 				minLenExpandedPattern,
; 702  : 				(searchDevice == SEARCH_DEVICE_CPU) ? "." : ":");
; 703  : 	}
; 704  : 	if (searchDevice != SEARCH_DEVICE_CPU && CUDADeviceSearchThreadInfoArray) {
; 705  : 		cuda_device_search_thread_info_array_spinlock.lock();
; 706  : 		if (numCUDADeviceSearchThreads == 1) {
; 707  : 			sprintf(NEXT_LINE, "      CUDA0:     %s", CUDADeviceSearchThreadInfoArray[0].status);
; 708  : 		} else {
; 709  : 			for (int32_t i = 0; i < numCUDADeviceSearchThreads; ++i)
; 710  : 				sprintf(NEXT_LINE, "      CUDA%d-%d:     %s", CUDADeviceSearchThreadInfoArray[i].CUDADeviceIndex, CUDADeviceSearchThreadInfoArray[i].subindex, CUDADeviceSearchThreadInfoArray[i].status);
; 711  : 		}
; 712  : 		cuda_device_search_thread_info_array_spinlock.unlock();
; 713  : 	}
; 714  : 	if (searchDevice != SEARCH_DEVICE_CPU && openCLDeviceSearchThreadInfoArray) {
; 715  : 		opencl_device_search_thread_info_array_spinlock.lock();
; 716  : 		if (numOpenCLDeviceSearchThreads == 1) {
; 717  : 			sprintf(NEXT_LINE, "      OpenCL0:   %s", openCLDeviceSearchThreadInfoArray[0].status);
; 718  : 		} else {
; 719  : 			for (int32_t i = 0; i < numOpenCLDeviceSearchThreads; ++i) {
; 720  : 				if (openCLDeviceSearchThreadInfoArray[i].subindex < 0) {
; 721  : 					sprintf(NEXT_LINE, "      OpenCL%d:   %s",  openCLDeviceSearchThreadInfoArray[i].index, openCLDeviceSearchThreadInfoArray[i].status);
; 722  : 				} else {
; 723  : 					sprintf(NEXT_LINE, "      OpenCL%d-%d: %s", openCLDeviceSearchThreadInfoArray[i].index, openCLDeviceSearchThreadInfoArray[i].subindex, openCLDeviceSearchThreadInfoArray[i].status);
; 724  : 				}
; 725  : 			}
; 726  : 		}
; 727  : 		opencl_device_search_thread_info_array_spinlock.unlock();
; 728  : 	}
; 729  : #if FALSE
; 730  : 	if (CUDADeviceSearchThreadInfoArray && IsCUDADeviceOptimizationInProgress())
; 731  : 		sprintf(NEXT_LINE, "      [optimization in progress]");
; 732  : #endif
; 733  : 
; 734  : 	double currentSpeed_childProcesses = 0;
; 735  : 	double averageSpeed_childProcesses = 0;
; 736  : 	double totalNumGeneratedTripcodes_childProcesses = 0;
; 737  : 	uint32_t numDiscardedTripcodes_childProcesses = 0;
; 738  : 	// printf("numOpenCLDeviceSearchThreads = %d\n", numOpenCLDeviceSearchThreads);
; 739  : 	if (openCLDeviceSearchThreadInfoArray && openCLRunChildProcesses) {
; 740  : 		opencl_device_search_thread_info_array_spinlock.lock();
; 741  : 		for (int32_t i = 0; i < numOpenCLDeviceSearchThreads; ++i) {
; 742  : 			// printf("deviceNo = %d\n", openCLDeviceSearchThreadInfoArray[i].deviceNo);
; 743  : 			if (!(openCLDeviceSearchThreadInfoArray[i].runChildProcess))
; 744  : 				continue;
; 745  : 			currentSpeed_childProcesses               += openCLDeviceSearchThreadInfoArray[i].currentSpeed;
; 746  : 			averageSpeed_childProcesses               += openCLDeviceSearchThreadInfoArray[i].averageSpeed;
; 747  : 			totalNumGeneratedTripcodes_childProcesses += openCLDeviceSearchThreadInfoArray[i].totalNumGeneratedTripcodes;
; 748  : 			numDiscardedTripcodes_childProcesses      += openCLDeviceSearchThreadInfoArray[i].numDiscardedTripcodes;
; 749  : 		}
; 750  : 		opencl_device_search_thread_info_array_spinlock.unlock();
; 751  : 	}
; 752  : 
; 753  : 	double averageSpeed;
; 754  : 	double averageSpeed_GPU;
; 755  : 	double averageSpeed_CPU;
; 756  : 	double timeForOneMatch;
; 757  : 	double actualMatchingProb;
; 758  : 	double matchingProbDiff;
; 759  : 	double invalidTripcodeRatio = (prevNumValidTripcodes + prevNumDiscardedTripcodes > 0)
; 760  : 			                            ? ((double)(prevNumDiscardedTripcodes) / (prevNumValidTripcodes + prevNumDiscardedTripcodes))
; 761  : 										: 0;
; 762  : 	if (totalTime > 0) {
; 763  : 		uint32_t remainingSeconds = (uint32_t)totalTime;
; 764  : 		uint32_t totalTimeDays    = remainingSeconds / (24 * 60 * 60); remainingSeconds -= totalTimeDays    * 24 * 60 * 60;
; 765  : 		uint32_t totalTimeHours   = remainingSeconds / (     60 * 60); remainingSeconds -= totalTimeHours        * 60 * 60;
; 766  : 		uint32_t totalTimeMinutes = remainingSeconds / (          60); remainingSeconds -= totalTimeMinutes           * 60;
; 767  : 		uint32_t totalTimeSeconds = remainingSeconds;
; 768  : 		
; 769  : 		sprintf(NEXT_LINE, "");
; 770  : 		sprintf(NEXT_LINE, "  %.3lfT tripcodes were generated in %dd %dh %dm %02ds at:",
; 771  : 				(prevTotalNumGeneratedTripcodes + totalNumGeneratedTripcodes_childProcesses) * 0.000000000001,
; 772  : 				totalTimeDays,
; 773  : 				totalTimeHours,
; 774  : 				totalTimeMinutes,
; 775  : 				totalTimeSeconds);
; 776  : 		sprintf(NEXT_LINE, "      %3.2lfM tripcode/s (current)", (currentSpeed_thisProcess + currentSpeed_childProcesses) / 1000000);
; 777  : 		if (searchDevice == SEARCH_DEVICE_GPU_AND_CPU) {
; 778  : 			sprintf(NEXT_LINE, "          GPU: %7.2lfM tripcode/s", (currentSpeed_thisProcess_GPU + currentSpeed_childProcesses) / 1000000);
; 779  : 			sprintf(NEXT_LINE, "          CPU: %7.2lfM tripcode/s", currentSpeed_CPU / 1000000);
; 780  : 		}
; 781  : #ifdef DISPLAY_MAXIMUM_SPEED
; 782  : 		sprintf(NEXT_LINE, "      %3.2lfM tripcode/s (maximum)", maximumSpeed);
; 783  : #endif
; 784  : 		averageSpeed     = prevTotalNumGeneratedTripcodes     / totalTime + averageSpeed_childProcesses;
; 785  : 		averageSpeed_GPU = prevTotalNumGeneratedTripcodes_GPU / totalTime + averageSpeed_childProcesses;
; 786  : 		averageSpeed_CPU = prevTotalNumGeneratedTripcodes_CPU / totalTime;
; 787  : 		sprintf(NEXT_LINE, "      %3.2lfM tripcode/s (average)",  averageSpeed / 1000000);
; 788  : 		if (searchDevice == SEARCH_DEVICE_GPU_AND_CPU) {
; 789  : 			sprintf(NEXT_LINE, "          GPU: %7.2lfM tripcode/s", averageSpeed_GPU / 1000000);
; 790  : 			sprintf(NEXT_LINE, "          CPU: %7.2lfM tripcode/s", averageSpeed_CPU / 1000000);
; 791  : 		}
; 792  : 		
; 793  : 		timeForOneMatch = numAverageTrialsForOneMatch / averageSpeed;
; 794  : 		if (averageSpeed > 0 && !searchForSpecialPatternsOnCPU) {
; 795  : 			if (timeForOneMatch >= 100.0 * 365 * 24 * 60 * 60) {
; 796  : 				sprintf(NEXT_LINE, "  On average, it takes %.1lf centuries to find one match at this speed.", timeForOneMatch / (100.0 * 365 * 24 * 60 * 60));			
; 797  : 			} else if (timeForOneMatch >= 365.0 * 24 * 60 * 60) {
; 798  : 				sprintf(NEXT_LINE, "  On average, it takes %.1lf years to find one match at this speed.", timeForOneMatch / (365.0 * 24 * 60 * 60));			
; 799  : 			} else if (timeForOneMatch >= 30.4 * 24 * 60 * 60) {
; 800  : 				sprintf(NEXT_LINE, "  On average, it takes %.1lf months to find one match at this speed.", timeForOneMatch / (30.4 * 24 * 60 * 60));			
; 801  : 			} else if (timeForOneMatch >= 24 * 60 * 60) {
; 802  : 				sprintf(NEXT_LINE, "  On average, it takes %.1lf days to find one match at this speed.", timeForOneMatch / (24 * 60 * 60));			
; 803  : 			} else if (timeForOneMatch >= 60 * 60) {
; 804  : 				sprintf(NEXT_LINE, "  On average, it takes %.1lf hours to find one match at this speed.", timeForOneMatch / (60 * 60));			
; 805  : 			} else if (timeForOneMatch >= 60) {
; 806  : 				sprintf(NEXT_LINE, "  On average, it takes %.1lf minutes to find one match at this speed.", timeForOneMatch / 60);			
; 807  : 			} else {
; 808  : 				sprintf(NEXT_LINE, "  On average, it takes %.1lf seconds to find one match at this speed.", timeForOneMatch);			
; 809  : 			}
; 810  : 		}
; 811  : 		sprintf(NEXT_LINE, "");
; 812  : 		if (numValidTripcodes <= 0) {
; 813  : 			sprintf(NEXT_LINE, "  No matches were found yet.");
; 814  : 		} else {
; 815  : 			if (prevNumValidTripcodes > 0) {
; 816  : 				sprintf(NEXT_LINE, "  %ld match%s found at %.2lf matches/h and %.2lfG tripcodes/match.",
; 817  : 						prevNumValidTripcodes,
; 818  : 						(prevNumValidTripcodes == 1) ? "" : "es",
; 819  : 						prevNumValidTripcodes / (totalTime / 3600),
; 820  : 						(double)(prevTotalNumGeneratedTripcodes + totalNumGeneratedTripcodes_childProcesses) / prevNumValidTripcodes * 0.000000001);
; 821  : 			}
; 822  : 			actualMatchingProb = (prevNumValidTripcodes + prevNumDiscardedTripcodes + numDiscardedTripcodes_childProcesses) / (prevTotalNumGeneratedTripcodes + totalNumGeneratedTripcodes_childProcesses);
; 823  : 			matchingProbDiff = (actualMatchingProb - matchingProb) / matchingProb;
; 824  : #ifdef DEBUG_DISPLAY_MATCHING_PROBABILITY
; 825  : 			sprintf(NEXT_LINE, "  The theoretical matching probability is %0.20lf%%.", matchingProb);
; 826  : #endif
; 827  : 			if (!searchForSpecialPatternsOnCPU) {
; 828  : 				if (matchingProbDiff > 0.01) {
; 829  : 					sprintf(NEXT_LINE, "  The actual matching probability is %.0f%% higher than expected.", matchingProbDiff * 100);
; 830  : 				} else if (matchingProbDiff < -0.01) {
; 831  : 					sprintf(NEXT_LINE, "  The actual matching probability is %.0f%% lower than expected.",
; 832  : 							-matchingProbDiff * 100);
; 833  : 				} else {
; 834  : 					sprintf(NEXT_LINE, "  The actual matching probability is about the same as expected.");
; 835  : 				}
; 836  : 			}
; 837  : 			if (prevNumValidTripcodes + prevNumDiscardedTripcodes > 0) {
; 838  : 				sprintf(NEXT_LINE, "  %.0f%% of matching tripcodes were invalid.",
; 839  : 						invalidTripcodeRatio * 100);
; 840  : 			}
; 841  : 		}
; 842  : 	}
; 843  : 	
; 844  : 	if (!options.redirection) {
; 845  : 		for (int32_t i = 0; i < lineCount; ++i)
; 846  : 			printf("%-79s\n", &(msg[i][0]));
; 847  : 		reset_cursor_pos(-lineCount);
; 848  : 		prevLineCount = lineCount;
; 849  : 	} else {
; 850  : 		if (totalTime > 0 && !searchForSpecialPatternsOnCPU) {
; 851  : 			printf("[status],%.0lf,%.0lf,%.0lf,%.0lf,%.0lf,%.1lf,%s%d%%,%.0lf,%ld,%d,%.0lf,%.0lf,%u,%.0f%%\n",
; 852  : 			       totalTime,
; 853  : 				   currentSpeed_thisProcess     + currentSpeed_childProcesses,
; 854  : 				   currentSpeed_thisProcess_GPU + currentSpeed_childProcesses,
; 855  : 				   currentSpeed_CPU,
; 856  : 				   averageSpeed,
; 857  : 				   timeForOneMatch,
; 858  : 				   ((int32_t)(matchingProbDiff * 100) > 0) ? "+" : "", // All I want to do here is to avoid "-0%" and "+0%".
; 859  : 				    (int32_t)(matchingProbDiff * 100),
; 860  : 				   prevTotalNumGeneratedTripcodes + totalNumGeneratedTripcodes_childProcesses,
; 861  : 				   prevNumValidTripcodes,
; 862  : 				   FALSE,
; 863  : 				   averageSpeed_GPU,
; 864  : 				   averageSpeed_CPU,
; 865  : 				   prevNumDiscardedTripcodes,
; 866  : 				   invalidTripcodeRatio * 100);
; 867  : 		} else if (totalTime > 0) {
; 868  : 			printf("[status],%.0lf,%.0lf,%.0lf,%.0lf,%.0lf,-,-,%.0lf,%ld,%d,%.0lf,%.0lf,%u,%.0f%%\n",
; 869  : 			       totalTime,
; 870  : 				   currentSpeed_thisProcess     + currentSpeed_childProcesses,
; 871  : 				   currentSpeed_thisProcess_GPU + currentSpeed_childProcesses,
; 872  : 				   currentSpeed_CPU,
; 873  : 				   averageSpeed,
; 874  : 				   prevTotalNumGeneratedTripcodes + totalNumGeneratedTripcodes_childProcesses,
; 875  : 				   prevNumValidTripcodes,
; 876  : 				   FALSE,
; 877  : 				   averageSpeed_GPU,
; 878  : 				   averageSpeed_CPU,
; 879  : 				   prevNumDiscardedTripcodes,
; 880  : 				   invalidTripcodeRatio * 100);
; 881  : 		}
; 882  : 		fflush(stdout);
; 883  : 	}
; 884  : 	
; 885  : 	current_state_spinlock.unlock();
; 886  : #undef NEXT_LINE
; 887  : }
; 888  : 
; 889  : BOOL WINAPI ControlHandler(_In_  DWORD dwCtrlType)
; 890  : {
; 891  : 	switch (dwCtrlType) {
; 892  : 	case CTRL_C_EVENT:
; 893  : 	case CTRL_CLOSE_EVENT:
; 894  : 	case CTRL_SHUTDOWN_EVENT:
; 895  : 	case CTRL_LOGOFF_EVENT:
; 896  : 		SetTerminationState();
; 897  : 		while (TRUE)
; 898  : 			Sleep(1000);
; 899  : 		return TRUE;
; 900  : 	default:
; 901  : 		return FALSE;
; 902  : 	}
; 903  : }
; 904  : 
; 905  : void InitProcess()
; 906  : {
; 907  : 	hide_cursor();
; 908  : 	SetConsoleCtrlHandler(ControlHandler, true);
; 909  : }
; 910  : 
; 911  : void ListCUDADevices()
; 912  : {
; 913  : 	int32_t i;
; 914  : 	cudaDeviceProp CUDADeviceProperties;
; 915  : 	
; 916  : 	cudaGetDeviceCount(&CUDADeviceCount);
; 917  : 
; 918  : 	for (i = 0; i < CUDADeviceCount; ++i) {
; 919  : 		cudaGetDeviceProperties(&CUDADeviceProperties, i);
; 920  : 		printf("NVIDIA %s (CUDA)\n", CUDADeviceProperties.name); 
; 921  : 	}
; 922  : }
; 923  : 
; 924  : void CountOpenCLDevices()
; 925  : {
; 926  :     cl_int        errorCode;
; 927  :     cl_uint       numPlatforms;
; 928  : 	cl_uint       deviceCount;
; 929  : 	cl_device_id *devices = NULL;
; 930  : 
; 931  : 	openCLDeviceCount = 0;
; 932  : 
; 933  : 	// Get a list of platforms
; 934  : 	errorCode = clGetPlatformIDs(0, NULL, &numPlatforms);
; 935  :     if (errorCode != CL_SUCCESS || numPlatforms <= 0)
; 936  : 		return;
; 937  : 	cl_platform_id* platforms = (cl_platform_id*)malloc(sizeof(cl_platform_id) * numPlatforms);
; 938  : 	ERROR0(platforms == NULL, ERROR_NO_MEMORY, GetErrorMessage(ERROR_NO_MEMORY));
; 939  :     errorCode = clGetPlatformIDs(numPlatforms, platforms, NULL);
; 940  :     OPENCL_ERROR(errorCode);
; 941  : 
; 942  : 	int32_t openCLDeviceIDArrayIndex = 0;
; 943  : 	for (int32_t pass = 0; pass <= 1; ++pass) {
; 944  : 		for (int32_t platformIndex = 0; platformIndex < numPlatforms; ++platformIndex) {
; 945  : 			// Skip CUDA devices.
; 946  : 			char platformVendor[LEN_LINE_BUFFER_FOR_SCREEN];
; 947  : 			errorCode = clGetPlatformInfo(platforms[platformIndex], CL_PLATFORM_VENDOR, sizeof(platformVendor), platformVendor, NULL);
; 948  : 			// OPENCL_ERROR(errorCode);
; 949  : 			if (errorCode != CL_SUCCESS)
; 950  : 				continue;
; 951  : 			if (   (strcmp(platformVendor, OPENCL_VENDOR_NVIDIA) == 0 && !options.useOpenCLForCUDADevices)
; 952  : 				||  strcmp(platformVendor, OPENCL_VENDOR_INTEL ) == 0                                     )
; 953  : 				continue;
; 954  : 		
; 955  : 			// Get a list of devices on the platform.
; 956  : 			errorCode = clGetDeviceIDs(platforms[platformIndex], CL_DEVICE_TYPE_ALL, 0, NULL, &deviceCount);
; 957  : 			// OPENCL_ERROR(errorCode);
; 958  : 			// if (errorCode == CL_DEVICE_NOT_FOUND)
; 959  : 			//	continue;
; 960  : 			if (errorCode != CL_SUCCESS)
; 961  : 				continue;
; 962  : 			devices = (cl_device_id*)malloc(sizeof(cl_device_id) * deviceCount);
; 963  : 			ERROR0(devices == NULL, ERROR_NO_MEMORY, GetErrorMessage(ERROR_NO_MEMORY));
; 964  : 			errorCode = clGetDeviceIDs(platforms[platformIndex], CL_DEVICE_TYPE_GPU | CL_DEVICE_TYPE_ACCELERATOR, deviceCount, devices, &deviceCount);
; 965  : 			if (errorCode != CL_DEVICE_NOT_FOUND) {
; 966  : 				OPENCL_ERROR(errorCode);
; 967  : 				for(int32_t deviceIndex = 0; deviceIndex < deviceCount; ++deviceIndex) {
; 968  : 					if (pass == 0) {
; 969  : 						++openCLDeviceCount;
; 970  : 					} else {
; 971  : 						openCLDeviceIDArray[openCLDeviceIDArrayIndex++] = devices[deviceIndex];
; 972  : 					}
; 973  : 				}
; 974  : 			}
; 975  : 			free(devices);
; 976  : 		}
; 977  : 		if (pass == 0) {
; 978  : 			openCLDeviceIDArray = (cl_device_id *)malloc(sizeof(cl_device_id) * openCLDeviceCount);
; 979  : 			ERROR0(openCLDeviceIDArray == NULL, ERROR_NO_MEMORY, GetErrorMessage(ERROR_NO_MEMORY));
; 980  : 		}
; 981  : 	}
; 982  : 
; 983  :     free(platforms);
; 984  : }
; 985  : 
; 986  : void ListOpenCLDevices()
; 987  : {
; 988  :     cl_int  errorCode;
; 989  :     cl_uint numPlatforms;
; 990  : 	cl_uint deviceCount;
; 991  : 	char    deviceVendor[LEN_LINE_BUFFER_FOR_SCREEN];
; 992  : 	char    deviceName  [LEN_LINE_BUFFER_FOR_SCREEN];
; 993  : 	cl_uint numComputeUnits;
; 994  : 
; 995  : 	CountOpenCLDevices();
; 996  : 
; 997  : 	for(int32_t deviceIndex = 0; deviceIndex < openCLDeviceCount; ++deviceIndex) {  
; 998  : 		OPENCL_ERROR(clGetDeviceInfo(openCLDeviceIDArray[deviceIndex], CL_DEVICE_VENDOR,            sizeof(deviceVendor),    &deviceVendor,    NULL));
; 999  : 		OPENCL_ERROR(clGetDeviceInfo(openCLDeviceIDArray[deviceIndex], CL_DEVICE_NAME,              sizeof(deviceName),      &deviceName,      NULL));
; 1000 : 		OPENCL_ERROR(clGetDeviceInfo(openCLDeviceIDArray[deviceIndex], CL_DEVICE_MAX_COMPUTE_UNITS, sizeof(numComputeUnits), &numComputeUnits, NULL));
; 1001 : 		// printf("%d: ", CUDADeviceCount + deviceIndex);
; 1002 : 		if (strcmp(deviceVendor, OPENCL_VENDOR_AMD) == 0) {
; 1003 : 			printf("AMD ");
; 1004 : 		} else if (strcmp(deviceVendor, OPENCL_VENDOR_INTEL) == 0) {
; 1005 : 			// Do not print anything.
; 1006 : 		} else if (strcmp(deviceVendor, OPENCL_VENDOR_NVIDIA) == 0) {
; 1007 : 			printf("NVIDIA ");
; 1008 : 		} else {
; 1009 : 			printf("%s ", deviceVendor);
; 1010 : 		}
; 1011 : 		char *productName = GetProductNameForOpenCLDevice(deviceVendor, deviceName, numComputeUnits);
; 1012 : 		if (productName) {
; 1013 : 			printf("%s", productName);
; 1014 : 		} else {
; 1015 : 			printf("%s", deviceName);
; 1016 : 		}
; 1017 : 		printf(" (OpenCL)\n");
; 1018 : 	}
; 1019 : }
; 1020 : 
; 1021 : void ListGPUsAndExit()
; 1022 : {
; 1023 : 	if (!options.useOpenCLForCUDADevices)
; 1024 : 		ListCUDADevices();
; 1025 : 	ListOpenCLDevices();
; 1026 : 	exit(0);
; 1027 : }
; 1028 : 
; 1029 : void InitSearchDevices(BOOL displayDeviceInformation)
; 1030 : {
; 1031 : 	int32_t i;
; 1032 : 	cudaDeviceProp CUDADeviceProperties;
; 1033 : 	
; 1034 : 	if (options.useOpenCLForCUDADevices) {
; 1035 : 		CUDADeviceCount = 0;
; 1036 : 	} else {
; 1037 : 		cudaGetDeviceCount(&CUDADeviceCount);
; 1038 : 	}
; 1039 : 	CountOpenCLDevices();
; 1040 : 	ERROR0(   options.GPUIndex != GPU_INDEX_ALL
; 1041 : 		   && (options.GPUIndex < 0 || CUDADeviceCount + openCLDeviceCount <= options.GPUIndex),
; 1042 : 			ERROR_INVALID_OPTION,
; 1043 : 			"An invalid device was specified.");
; 1044 : 	if (options.searchDevice == SEARCH_DEVICE_NIL) {
; 1045 : 		searchDevice = (CUDADeviceCount <= 0 && openCLDeviceCount <= 0) ? (SEARCH_DEVICE_CPU) : (SEARCH_DEVICE_GPU);
; 1046 : 	} else {
; 1047 : 		searchDevice = options.searchDevice;
; 1048 : 	}
; 1049 : #ifdef DEBUG_USE_CPU_ONLY
; 1050 : 	searchDevice = SEARCH_DEVICE_CPU;
; 1051 : #endif
; 1052 : 	
; 1053 : #if FALSE
; 1054 : 	if (displayDeviceInformation) {
; 1055 : 		if (searchDevice == SEARCH_DEVICE_CPU) {
; 1056 : 			printf("CPU will be used as a search device.\n\n");
; 1057 : 		} else if (searchDevice == SEARCH_DEVICE_GPU && CUDADeviceCount + openCLDeviceCount <= 1 || options.GPUIndex != GPU_INDEX_ALL) {
; 1058 : 			printf("GPU will be used as a search device.\n\n");
; 1059 : 		} else if (searchDevice == SEARCH_DEVICE_GPU) {
; 1060 : 			printf("GPUs will be used as search devices.\n\n");
; 1061 : 		} else {
; 1062 : 			printf("Both GPU(s) and CPU will be used as search devices.\n\n");
; 1063 : 		}
; 1064 : 	}
; 1065 : #endif
; 1066 : 	ERROR0((searchDevice == SEARCH_DEVICE_GPU || searchDevice == SEARCH_DEVICE_GPU_AND_CPU) && CUDADeviceCount <= 0 && openCLDeviceCount <= 0,
; 1067 : 		   ERROR_INVALID_OPTION, "There is no GPU.");
; 1068 : 		
; 1069 : 	numCUDADeviceSearchThreads   = 0;
; 1070 : 	numOpenCLDeviceSearchThreads = 0;
; 1071 : 	numCPUSearchThreads          = 0;
; 1072 : 
; 1073 : 	if (   (searchDevice == SEARCH_DEVICE_GPU || searchDevice == SEARCH_DEVICE_GPU_AND_CPU)
; 1074 : 		&& CUDADeviceCount > 0
; 1075 : 		&& !options.useOpenCLForCUDADevices
; 1076 : 		&& (options.GPUIndex == GPU_INDEX_ALL || options.GPUIndex < CUDADeviceCount)) {
; 1077 : 
; 1078 : 		if (displayDeviceInformation && CUDADeviceCount > 1 && options.GPUIndex == GPU_INDEX_ALL) {
; 1079 : 			printf("CUDA DEVICES\n");
; 1080 : 			printf("============\n");
; 1081 : 			printf(        "  CUDA Device Count:        %d\n\n", CUDADeviceCount);
; 1082 : 		} else if (displayDeviceInformation) {
; 1083 : 			printf("CUDA DEVICE\n");
; 1084 : 			printf("===========\n");
; 1085 : 		}
; 1086 : 		for (i = ((options.GPUIndex == GPU_INDEX_ALL) ? 0               :  options.GPUIndex     );
; 1087 : 		     i < ((options.GPUIndex == GPU_INDEX_ALL) ? CUDADeviceCount : (options.GPUIndex + 1));
; 1088 : 			 ++i) {
; 1089 : 			if (displayDeviceInformation) {
; 1090 : 				cudaGetDeviceProperties(&CUDADeviceProperties, i);
; 1091 : 				printf(    "  Device No.:               %d\n",      i);
; 1092 : 				printf(    "  Device Name:              %s\n",      CUDADeviceProperties.name);
; 1093 : 				printf(    "  Multiprocessor Count:     %d\n",      CUDADeviceProperties.multiProcessorCount);
; 1094 : 				printf(    "  Clock Rate:               %.0fMHz\n", CUDADeviceProperties.clockRate * 1e-3f);
; 1095 : 				printf(    "  Compute Capability:       %d.%d\n",   CUDADeviceProperties.major, CUDADeviceProperties.minor);
; 1096 : 				printf(    "  Compute Mode:             %s\n",
; 1097 : 					   (CUDADeviceProperties.computeMode == cudaComputeModeDefault         ) ? "cudaComputeModeDefault"          :
; 1098 : 					   (CUDADeviceProperties.computeMode == cudaComputeModeExclusive       ) ? "cudaComputeModeExclusive"        :
; 1099 : 					   (CUDADeviceProperties.computeMode == cudaComputeModeProhibited      ) ? "cudaComputeModeProhibited"       :
; 1100 : 					   (CUDADeviceProperties.computeMode == cudaComputeModeExclusiveProcess) ? "cudaComputeModeExclusiveProcess" :
; 1101 : 					                                                                           "(unknown)"                        );
; 1102 : 				printf("\n");
; 1103 : 			}
; 1104 : 			numCUDADeviceSearchThreads += CUDA_NUM_THREADS_PER_DEVICE;
; 1105 : 		}
; 1106 : 	}
; 1107 : 
; 1108 : 	if (   (searchDevice == SEARCH_DEVICE_GPU || searchDevice == SEARCH_DEVICE_GPU_AND_CPU)
; 1109 : 		&& openCLDeviceCount > 0
; 1110 : 		&& (options.GPUIndex == GPU_INDEX_ALL || CUDADeviceCount <= options.GPUIndex)) {
; 1111 : 
; 1112 : 		if (displayDeviceInformation && openCLDeviceCount > 1 && options.GPUIndex == GPU_INDEX_ALL) {
; 1113 : 			printf("OPENCL DEVICES\n");
; 1114 : 			printf("==============\n");
; 1115 : 			printf(        "  OpenCL Device Count:      %d\n\n", openCLDeviceCount);
; 1116 : 		} else if (displayDeviceInformation) {
; 1117 : 			printf("OPENCL DEVICE\n");
; 1118 : 			printf("=============\n");
; 1119 : 		}
; 1120 : 		openCLRunChildProcesses =    (   options.openCLRunChildProcesses
; 1121 : 		                              && (openCLDeviceCount > 1)
; 1122 : 			                          && (options.GPUIndex == GPU_INDEX_ALL))
; 1123 : 								  || options.openCLNumProcesses > 1;
; 1124 : 
; 1125 : 		// printf("openCLRunChildProcesses = %d\n", openCLRunChildProcesses);
; 1126 : 		for (i = ((options.GPUIndex == GPU_INDEX_ALL) ? CUDADeviceCount                     : (options.GPUIndex    ));
; 1127 : 		     i < ((options.GPUIndex == GPU_INDEX_ALL) ? CUDADeviceCount + openCLDeviceCount : (options.GPUIndex + 1));
; 1128 : 			 ++i) {
; 1129 : 			int32_t openCLDeviceIndex = i - CUDADeviceCount;
; 1130 : 			char deviceVendor [LEN_LINE_BUFFER_FOR_SCREEN];
; 1131 : 			char deviceName   [LEN_LINE_BUFFER_FOR_SCREEN];
; 1132 : 			char deviceVersion[LEN_LINE_BUFFER_FOR_SCREEN];
; 1133 : 			char driverVersion[LEN_LINE_BUFFER_FOR_SCREEN];
; 1134 : 			cl_ulong globalMemorySize;
; 1135 : 			cl_uint  clockFrequency;
; 1136 : 			cl_uint  numComputeUnits;
; 1137 : 			size_t maxWorkGroupSize;
; 1138 : 			OPENCL_ERROR(clGetDeviceInfo(openCLDeviceIDArray[openCLDeviceIndex], CL_DEVICE_VENDOR,              sizeof(deviceVendor),     &deviceVendor,     NULL));
; 1139 : 			OPENCL_ERROR(clGetDeviceInfo(openCLDeviceIDArray[openCLDeviceIndex], CL_DEVICE_NAME,                sizeof(deviceName),       &deviceName,       NULL));
; 1140 : 			OPENCL_ERROR(clGetDeviceInfo(openCLDeviceIDArray[openCLDeviceIndex], CL_DEVICE_VERSION,             sizeof(deviceVersion),    &deviceVersion,    NULL));
; 1141 : 			OPENCL_ERROR(clGetDeviceInfo(openCLDeviceIDArray[openCLDeviceIndex], CL_DRIVER_VERSION,             sizeof(driverVersion),    &driverVersion,    NULL));
; 1142 : 			OPENCL_ERROR(clGetDeviceInfo(openCLDeviceIDArray[openCLDeviceIndex], CL_DEVICE_GLOBAL_MEM_SIZE,     sizeof(globalMemorySize), &globalMemorySize, NULL));
; 1143 : 			OPENCL_ERROR(clGetDeviceInfo(openCLDeviceIDArray[openCLDeviceIndex], CL_DEVICE_MAX_CLOCK_FREQUENCY, sizeof(clockFrequency),   &clockFrequency,   NULL));
; 1144 : 			OPENCL_ERROR(clGetDeviceInfo(openCLDeviceIDArray[openCLDeviceIndex], CL_DEVICE_MAX_COMPUTE_UNITS,   sizeof(numComputeUnits),  &numComputeUnits,  NULL));
; 1145 : 			OPENCL_ERROR(clGetDeviceInfo(openCLDeviceIDArray[openCLDeviceIndex], CL_DEVICE_MAX_WORK_GROUP_SIZE, sizeof(maxWorkGroupSize), &maxWorkGroupSize, NULL));
; 1146 : 			char *productName = GetProductNameForOpenCLDevice(deviceVendor, deviceName, numComputeUnits);
; 1147 : 			if (displayDeviceInformation) {
; 1148 : 				printf(    "  Vendor:                   %s\n",        deviceVendor);
; 1149 : 				if (productName) {
; 1150 : 					printf(    "  Name:                     %s (%s)\n", deviceName, productName);
; 1151 : 				} else {
; 1152 : 					printf(    "  Name:                     %s\n",      deviceName);
; 1153 : 				}
; 1154 : 				printf(    "  Number of Compute Units:  %d\n",        (int32_t)numComputeUnits);
; 1155 : 				printf(    "  Clock Frequency:          %dMHz\n",     (int32_t)clockFrequency);
; 1156 : 				printf(    "  Global Memory Size:       %dM bytes\n", (int32_t)(globalMemorySize / 1024 / 1024));
; 1157 : 				printf(    "  Max. Work Group Size:     %d\n",        (int32_t)maxWorkGroupSize);
; 1158 : 				printf(    "  Version:                  %s\n",        deviceVersion);
; 1159 : 				printf(    "  Driver Version:           %s\n",        driverVersion);
; 1160 : 				printf("\n");
; 1161 : 			}
; 1162 : 			if (openCLRunChildProcesses) {
; 1163 : 				numOpenCLDeviceSearchThreads += options.openCLNumProcesses;
; 1164 : 			} else {
; 1165 : 				numOpenCLDeviceSearchThreads += options.openCLNumThreads;
; 1166 : 			}
; 1167 : 		}
; 1168 : 	}
; 1169 : 
; 1170 : 	if (searchDevice == SEARCH_DEVICE_CPU || searchDevice == SEARCH_DEVICE_GPU_AND_CPU) {
; 1171 : 		SYSTEM_INFO sysInfo;
; 1172 : 		GetSystemInfo(&sysInfo);
; 1173 : #ifdef DEBUG_ONE_CPU_SEARCH_THREAD
; 1174 : 		numCPUSearchThreads = 1;
; 1175 : #else
; 1176 : 		if (options.numCPUSearchThreads == NUM_CPU_SEARCH_THREADS_NIL) { 
; 1177 : 			numCPUSearchThreads = sysInfo.dwNumberOfProcessors;
; 1178 : 			if (searchDevice == SEARCH_DEVICE_GPU_AND_CPU)
; 1179 : 				numCPUSearchThreads = (numCPUSearchThreads > numCUDADeviceSearchThreads + numOpenCLDeviceSearchThreads)
; 1180 : 										  ? (numCPUSearchThreads - numCUDADeviceSearchThreads - numOpenCLDeviceSearchThreads)
; 1181 : 										  : 0;
; 1182 : 		} else {
; 1183 : 			numCPUSearchThreads = (options.numCPUSearchThreads < sysInfo.dwNumberOfProcessors) ? options.numCPUSearchThreads : sysInfo.dwNumberOfProcessors;
; 1184 : 		}
; 1185 : #endif
; 1186 : 		if (searchDevice == SEARCH_DEVICE_GPU_AND_CPU && numCPUSearchThreads <= 0) {
; 1187 : 			searchDevice = SEARCH_DEVICE_GPU;
; 1188 : 		} else 	if (displayDeviceInformation) {
; 1189 : 			int32_t results[4];
; 1190 : 			__cpuid(results, 1);
; 1191 : 
; 1192 : 			printf("CPU\n");
; 1193 : 			printf("===\n");
; 1194 : 			if (IsCPUBasedOnNehalemMicroarchitecture()) {
; 1195 : 				printf("  Processor Info:           0x%06x (Nehalem)\n", results[0]);
; 1196 : 			} else {
; 1197 : 				printf("  Processor Info:           0x%06x\n", results[0]);
; 1198 : 			}
; 1199 : 			printf("  Number of Logical Cores:  %d\n", sysInfo.dwNumberOfProcessors);
; 1200 : 			printf("  Number of Search Threads: %d\n", numCPUSearchThreads);
; 1201 : 			printf("\n");
; 1202 : 		}
; 1203 : 	}
; 1204 : }
; 1205 : 
; 1206 : void ObtainOptions(int32_t argCount, char **arguments)
; 1207 : {
; 1208 : 	int32_t i;
; 1209 : 	
; 1210 : 	// Get the application path and directory.
; 1211 : 	// strcpy(applicationPath,      arguments[0]);
; 1212 : 	_fullpath(applicationPath, arguments[0], sizeof(applicationPath));
; 1213 : 	strcpy(applicationDirectory, applicationPath);
; 1214 : 	for (i = strlen(applicationPath) - 1; i > 0; --i) {
; 1215 : 		if (applicationDirectory[i] == '\\')
; 1216 : 			break;
; 1217 : 	}
; 1218 : 	if (i < 0)
; 1219 : 		i = 0;
; 1220 : 	applicationDirectory[i] = '\0';
; 1221 : #if FALSE
; 1222 : 	printf("arguments[0]         = \'%s\'\n", arguments[0]);
; 1223 : 	printf("applicationPath      = \'%s\'\n", applicationPath);
; 1224 : 	printf("applicationDirectory = \'%s\'\n", applicationDirectory);
; 1225 : #endif
; 1226 : 
; 1227 : 	// Set default values if necessary.	
; 1228 : 	strncpy(tripcodeFilePath, DEFAULT_NAME_TRIPCODE_FILE, sizeof(tripcodeFilePath));
; 1229 : 
; 1230 : 	for (int32_t indexArg = 1; indexArg < argCount; ++indexArg) {
; 1231 : 		if (strcmp(arguments[indexArg], "-o") == 0 && indexArg + 1 < argCount) {
; 1232 : 			++indexArg;
; 1233 : 			ERROR1(strlen(arguments[indexArg]) + 1 > sizeof(tripcodeFilePath),
; 1234 : 			       ERROR_TRIPCODE_FILE,
; 1235 : 			       "The path of the tripcode file `%s' is too long.",
; 1236 : 			       arguments[indexArg]);
; 1237 : 			strcpy(tripcodeFilePath, arguments[indexArg]);
; 1238 : 
; 1239 : 		} else if (strcmp(arguments[indexArg], "-f") == 0 && indexArg + 1 < argCount) {
; 1240 : 			++indexArg;
; 1241 : 			ERROR1(strlen(arguments[indexArg]) > MAX_LEN_FILE_PATH,
; 1242 : 			       ERROR_PATTERN_FILE,
; 1243 : 			       "The path of the pattern file `%s' is too long.",
; 1244 : 			       arguments[indexArg]);
; 1245 : 			ERROR0(numPatternFiles >= MAX_NUM_PATTERN_FILES, ERROR_PATTERN_FILE, "Too many pattern files were specified.");
; 1246 : 			strcpy(patternFilePathArray[numPatternFiles++], arguments[indexArg]);
; 1247 : 
; 1248 : 		} else if (strcmp(arguments[indexArg], "-d") == 0 && indexArg + 1 < argCount) {
; 1249 : 			options.GPUIndex = atoi(arguments[++indexArg]);
; 1250 : 
; 1251 : 		} else if (strcmp(arguments[indexArg], "-x") == 0 && indexArg + 1 < argCount) {
; 1252 : 			options.CUDANumBlocksPerSM = atoi(arguments[++indexArg]);
; 1253 : 			ERROR1(options.CUDANumBlocksPerSM < CUDA_MIN_NUM_BLOCKS_PER_SM,
; 1254 : 			       ERROR_INVALID_OPTION,
; 1255 : 				   "The number of blocks per SM must be at least %d.", CUDA_MIN_NUM_BLOCKS_PER_SM);
; 1256 : 			ERROR1(options.CUDANumBlocksPerSM > CUDA_MAX_NUM_BLOCKS_PER_SM,
; 1257 : 			       ERROR_INVALID_OPTION,
; 1258 : 				   "The number of blocks per SM cannot exceed %d.",    CUDA_MAX_NUM_BLOCKS_PER_SM);
; 1259 : 
; 1260 : 		} else if (strcmp(arguments[indexArg], "-y") == 0 && indexArg + 1 < argCount) {
; 1261 : 			options.openCLNumWorkItemsPerCU = atoi(arguments[++indexArg]);
; 1262 : 			ERROR1(options.openCLNumWorkItemsPerCU < OPENCL_MIN_NUM_WORK_ITEMS_PER_CU,
; 1263 : 			       ERROR_INVALID_OPTION,
; 1264 : 				   "The number of work items per CU must be at least %d.", OPENCL_MIN_NUM_WORK_ITEMS_PER_CU);
; 1265 : 			ERROR1(options.openCLNumWorkItemsPerCU > OPENCL_MAX_NUM_WORK_ITEMS_PER_CU,
; 1266 : 			       ERROR_INVALID_OPTION,
; 1267 : 				   "The number of work items per CU cannot exceed %d.", OPENCL_MAX_NUM_WORK_ITEMS_PER_CU);
; 1268 : 
; 1269 : 		} else if (strcmp(arguments[indexArg], "-z") == 0 && indexArg + 1 < argCount) {
; 1270 : 			options.openCLNumWorkItemsPerWG = atoi(arguments[++indexArg]);
; 1271 : 			ERROR1(options.openCLNumWorkItemsPerWG < OPENCL_MIN_NUM_WORK_ITEMS_PER_WG,
; 1272 : 			       ERROR_INVALID_OPTION,
; 1273 : 				   "The number of work items per WG must be at least %d.", OPENCL_MIN_NUM_WORK_ITEMS_PER_WG);
; 1274 : 			ERROR1(options.openCLNumWorkItemsPerWG > OPENCL_MAX_NUM_WORK_ITEMS_PER_WG,
; 1275 : 			       ERROR_INVALID_OPTION,
; 1276 : 				   "The number of work items per WG cannot exceed %d.",    OPENCL_MAX_NUM_WORK_ITEMS_PER_WG);
; 1277 : 			ERROR0(options.openCLNumWorkItemsPerWG % 8 != 0,
; 1278 : 			       ERROR_INVALID_OPTION,
; 1279 : 				   "The number of work items per WG must be a multiple of 8.");
; 1280 : 
; 1281 : 		} else if (strcmp(arguments[indexArg], "-a") == 0 && indexArg + 1 < argCount) {
; 1282 : 			options.openCLNumThreads = atoi(arguments[++indexArg]);
; 1283 : 			ERROR1(options.openCLNumThreads < OPENCL_MIN_NUM_THREADS_PER_AMD_GPU,
; 1284 : 			       ERROR_INVALID_OPTION,
; 1285 : 				   "The number of threads per AMD GPU must be at least %d.", OPENCL_MIN_NUM_THREADS_PER_AMD_GPU);
; 1286 : 			ERROR1(options.openCLNumThreads > OPENCL_MAX_NUM_THREADS_PER_AMD_GPU,
; 1287 : 			       ERROR_INVALID_OPTION,
; 1288 : 				   "The number of threads per AMD GPU cannot exceed %d.",    OPENCL_MAX_NUM_THREADS_PER_AMD_GPU);
; 1289 : 
; 1290 : 
; 1291 : 		} else if (strcmp(arguments[indexArg], "-b") == 0 && indexArg + 1 < argCount) {
; 1292 : 			options.openCLNumProcesses = atoi(arguments[++indexArg]);
; 1293 : 			ERROR1(options.openCLNumProcesses < OPENCL_MIN_NUM_PROCESSES_PER_AMD_GPU,
; 1294 : 			       ERROR_INVALID_OPTION,
; 1295 : 				   "The number of processes per AMD GPU must be at least %d.", OPENCL_MIN_NUM_PROCESSES_PER_AMD_GPU);
; 1296 : 			ERROR1(options.openCLNumProcesses > OPENCL_MAX_NUM_PROCESSES_PER_AMD_GPU,
; 1297 : 			       ERROR_INVALID_OPTION,
; 1298 : 				   "The number of processes per AMD GPU cannot exceed %d.",    OPENCL_MAX_NUM_PROCESSES_PER_AMD_GPU);
; 1299 : 
; 1300 : 		} else if (strcmp(arguments[indexArg], "-l") == 0 && indexArg + 1 < argCount) {
; 1301 : 			lenTripcode    = atoi(arguments[++indexArg]);
; 1302 : 			lenTripcodeKey = lenTripcode;
; 1303 : 			ERROR0(lenTripcode != 10 && lenTripcode != 12,
; 1304 : 			       ERROR_INVALID_OPTION,
; 1305 : 			       "The length of tripcodes must be either 10 or 12.");
; 1306 : 
; 1307 : 		} else if (strcmp(arguments[indexArg], "-b") == 0) {
; 1308 : 			options.beepWhenNewTripcodeIsFound = TRUE;
; 1309 : 
; 1310 : 		} else if (strcmp(arguments[indexArg], "-i") == 0) {
; 1311 : 			options.outputInvalidTripcode = TRUE;
; 1312 : 
; 1313 : 		} else if (strcmp(arguments[indexArg], "-w") == 0) {
; 1314 : 			options.warnSpeedDrop= TRUE;
; 1315 : 
; 1316 : 		} else if (strcmp(arguments[indexArg], "-n") == 0) {
; 1317 : 			options.testNewCode = TRUE;
; 1318 : 
; 1319 : 		} else if (strcmp(arguments[indexArg], "-c") == 0) {
; 1320 : 			options.searchDevice = (options.searchDevice == SEARCH_DEVICE_NIL ) ? (SEARCH_DEVICE_CPU)          :
; 1321 : 			                       (options.searchDevice == SEARCH_DEVICE_GPU) ? (SEARCH_DEVICE_GPU_AND_CPU) :
; 1322 : 			                                                                      (options.searchDevice);
; 1323 : 
; 1324 : 		} else if (strcmp(arguments[indexArg], "-g") == 0) {
; 1325 : 			options.searchDevice = (options.searchDevice == SEARCH_DEVICE_NIL)  ? (SEARCH_DEVICE_GPU)         :
; 1326 : 			                       (options.searchDevice == SEARCH_DEVICE_CPU)  ? (SEARCH_DEVICE_GPU_AND_CPU) :
; 1327 : 			                                                                      (options.searchDevice);
; 1328 : 
; 1329 : 		} else if (strcmp(arguments[indexArg], "-t") == 0 && indexArg + 1 < argCount) {
; 1330 : 			options.numCPUSearchThreads = atoi(arguments[++indexArg]);
; 1331 : 			ERROR0(options.numCPUSearchThreads <= 0,
; 1332 : 			       ERROR_INVALID_OPTION,
; 1333 : 			       "The number of CPU search threads must be at least 1.");
; 1334 : 
; 1335 : 		} else if (strcmp(arguments[indexArg], "--output-for-redirection") == 0) {
; 1336 : 			options.redirection = TRUE;
; 1337 : 
; 1338 : 		} else if (strcmp(arguments[indexArg], "-e") == 0 && indexArg + 1 < argCount) {
; 1339 : 			++indexArg;
; 1340 : 			strcpy(nameMutexForPausing, arguments[indexArg]);
; 1341 : 			int32_t len = MultiByteToWideChar(CP_ACP, 0, arguments[indexArg], -1, nameMutexForPausingWC, MAX_LEN_INPUT_LINE);
; 1342 : 			if (len < 0) {
; 1343 : 				len = 0;
; 1344 : 			} else if (len <= MAX_LEN_INPUT_LINE) {
; 1345 : 				nameMutexForPausingWC[len] = 0;
; 1346 : 			}
; 1347 : 			nameMutexForPausingWC[MAX_LEN_INPUT_LINE] = 0;
; 1348 : 
; 1349 : 		} else if (strcmp(arguments[indexArg], "-E") == 0 && indexArg + 1 < argCount) {
; 1350 : 			++indexArg;
; 1351 : 			strcpy(nameEventForTerminating, arguments[indexArg]);
; 1352 : 			int32_t len = MultiByteToWideChar(CP_ACP, 0, arguments[indexArg], -1, nameEventForTerminatingWC, MAX_LEN_INPUT_LINE);
; 1353 : 			if (len < 0) {
; 1354 : 				len = 0;
; 1355 : 			} else if (len <= MAX_LEN_INPUT_LINE) {
; 1356 : 				nameEventForTerminatingWC[len] = 0;
; 1357 : 			}
; 1358 : 			nameEventForTerminatingWC[MAX_LEN_INPUT_LINE] = 0;
; 1359 : 
; 1360 : 		} else if (strcmp(arguments[indexArg], "--use-one-byte-characters-for-keys") == 0) {
; 1361 : 			options.useOneByteCharactersForKeys = TRUE;
; 1362 : 
; 1363 : 		} else if (strcmp(arguments[indexArg], "--search-for-hiseki-on-cpu") == 0) {
; 1364 : 			options.searchForHisekiOnCPU = TRUE;
; 1365 : 
; 1366 : 		} else if (strcmp(arguments[indexArg], "--search-for-kakuhi-on-cpu") == 0) {
; 1367 : 			options.searchForKakuhiOnCPU = TRUE;
; 1368 : 
; 1369 : 		} else if (strcmp(arguments[indexArg], "--search-for-kaibun-on-cpu") == 0) {
; 1370 : 			options.searchForKaibunOnCPU = TRUE;
; 1371 : 
; 1372 : 		} else if (strcmp(arguments[indexArg], "--search-for-kagami-on-cpu") == 0) {
; 1373 : 			options.searchForKagamiOnCPU = TRUE;
; 1374 : 
; 1375 : 		} else if (strcmp(arguments[indexArg], "--search-for-yamabiko-on-cpu") == 0) {
; 1376 : 			options.searchForYamabikoOnCPU = TRUE;
; 1377 : 
; 1378 : 		} else if (strcmp(arguments[indexArg], "--search-for-souren-on-cpu") == 0) {
; 1379 : 			options.searchForSourenOnCPU = TRUE;
; 1380 : 			
; 1381 : 		} else if (strcmp(arguments[indexArg], "--use-opencl-for-cuda-devices") == 0) {
; 1382 : 			options.useOpenCLForCUDADevices = TRUE;
; 1383 : 
; 1384 : 		} else if (strcmp(arguments[indexArg], "--disable-avx") == 0) {
; 1385 : 			options.isAVXEnabled = FALSE;
; 1386 : 
; 1387 : 		} else if (strcmp(arguments[indexArg], "--disable-avx2") == 0) {
; 1388 : 			options.isAVX2Enabled = FALSE;
; 1389 : 
; 1390 : 		} else if (strcmp(arguments[indexArg], "--use-one-byte-characters-for-keys") == 0) {
; 1391 : 			options.useOnlyASCIICharactersForKeys = FALSE;
; 1392 : 			options.useOneByteCharactersForKeys = TRUE;
; 1393 : 
; 1394 : 		} else if (strcmp(arguments[indexArg], "--use-ascii-characters-for-keys") == 0) {
; 1395 : 			options.useOnlyASCIICharactersForKeys = TRUE;
; 1396 : 			options.useOneByteCharactersForKeys = TRUE;
; 1397 : 
; 1398 : 		} else if (strcmp(arguments[indexArg], "--use-one-and-two-byte-characters-for-keys") == 0) {
; 1399 : 			options.useOneByteCharactersForKeys = FALSE;
; 1400 : 			options.useOnlyASCIICharactersForKeys = FALSE;
; 1401 : 
; 1402 : 		} else if (strcmp(arguments[indexArg], "--maximize-key-space") == 0) {
; 1403 : 			options.useOneByteCharactersForKeys = FALSE;
; 1404 : 			options.useOnlyASCIICharactersForKeys = FALSE;
; 1405 : 			options.maximizeKeySpace = TRUE;
; 1406 : 
; 1407 : 		} else if (strcmp(arguments[indexArg], "--disable-tripcode-checks") == 0) {
; 1408 : 			options.checkTripcodes = FALSE;
; 1409 : 
; 1410 : 		} else if (strcmp(arguments[indexArg], "--disable-gcn-assembler") == 0) {
; 1411 : 			options.enableGCNAssembler = FALSE;
; 1412 : 
; 1413 : 		} else if (   strcmp(arguments[indexArg], "--display-device-information") == 0
; 1414 : 			       || strcmp(arguments[indexArg], "--list-expanded-patterns"    ) == 0
; 1415 : 				   || strcmp(arguments[indexArg], "--gpu-list"                  ) == 0) {
; 1416 : 			// Ignore the option.
; 1417 : 
; 1418 : 		} else {
; 1419 : 			ERROR0(TRUE, ERROR_INVALID_OPTION, "An invalid option was specified.");
; 1420 : 		}
; 1421 : 	}
; 1422 : 
; 1423 : 	if (numPatternFiles <= 0) {
; 1424 : 		strcpy(patternFilePathArray[0], DEFAULT_NAME_PATTERN_FILE);
; 1425 : 		numPatternFiles = 1;
; 1426 : 	}
; 1427 : }
; 1428 : 
; 1429 : void ProcessValidTripcodePair(unsigned char *tripcode, unsigned char *key)
; 1430 : {
; 1431 : 	ASSERT(lenTripcode    == 10 || lenTripcode    == 12);
; 1432 : 	ASSERT(lenTripcodeKey == 10 || lenTripcodeKey == 12);
; 1433 : 	
; 1434 : 	process_tripcode_pair_spinlock.lock();
; 1435 : 	if (!options.redirection) {
; 1436 : #ifdef ENGLISH_VERSION
; 1437 : 		fprintf(tripcodeFile, "!");
; 1438 : #else
; 1439 : 		fprintf(tripcodeFile, "%c%c", 0x81, 0x9f);
; 1440 : #endif
; 1441 : 		for (int32_t i = 0; i < lenTripcode; ++i)
; 1442 : 			fprintf(tripcodeFile, "%c", tripcode[i]);
; 1443 : 		fprintf(tripcodeFile, " #");
; 1444 : 		for (int32_t i = 0; i < lenTripcodeKey; ++i)
; 1445 : 			fprintf(tripcodeFile, "%c", key[i]);
; 1446 : 		fprintf(tripcodeFile, " (");
; 1447 : 		for (int32_t i = 0; i < lenTripcodeKey; ++i) {
; 1448 : 			fprintf(tripcodeFile, "%02X", key[i]);
; 1449 : 			if (i + 1 < lenTripcodeKey)
; 1450 : 				fprintf(tripcodeFile, " ");
; 1451 : 		}
; 1452 : 		fprintf(tripcodeFile, ")\n");
; 1453 : 		fflush(tripcodeFile);
; 1454 : 	}  
; 1455 : 
; 1456 : 	if (!options.redirection && !GetTerminationState() && !GetErrorState()) {
; 1457 : #ifdef ENGLISH_VERSION
; 1458 : 		printf("  !");
; 1459 : #else
; 1460 : 		printf("  %c%c", 0x81, 0x9f);
; 1461 : #endif
; 1462 : 		for (int32_t i = 0; i < lenTripcode; ++i)
; 1463 : 			printf("%c", tripcode[i]);
; 1464 : 		printf(" #");
; 1465 : 		for (int32_t i = 0; i < lenTripcodeKey; ++i)
; 1466 : 			printf("%c", key[i]);
; 1467 : 		printf(" (");
; 1468 : 		for (int32_t i = 0; i < lenTripcodeKey; ++i) {
; 1469 : 			printf("%02X", key[i]);
; 1470 : 			if (i + 1 < lenTripcodeKey)
; 1471 : 				printf(" ");
; 1472 : 		}
; 1473 : 		printf(")");
; 1474 : 		for (int32_t i = 4 + lenTripcode + 2 + lenTripcodeKey + 2 + lenTripcodeKey * 3;
; 1475 : 			i < SCREEN_WIDTH - 1;
; 1476 : 			++i) {
; 1477 : 			printf(" ");
; 1478 : 		}
; 1479 : 		printf("\n");
; 1480 : 	} else if (options.redirection) {
; 1481 : 		printf("[tripcode],%c%c", 0x81, 0x9f);
; 1482 : 		for (int32_t i = 0; i < lenTripcode; ++i)
; 1483 : 			printf("%c", tripcode[i]);
; 1484 : 		printf(",#");
; 1485 : 		for (int32_t i = 0; i < lenTripcodeKey; ++i)
; 1486 : 			printf("%c", key[i]);
; 1487 : 		printf(",(");
; 1488 : 		for (int32_t i = 0; i < lenTripcodeKey; ++i) {
; 1489 : 			printf("%02X", key[i]);
; 1490 : 			if (i + 1 < lenTripcodeKey)
; 1491 : 				printf(" ");
; 1492 : 		}
; 1493 : 		printf(")\n");
; 1494 : 	}
; 1495 : 	fflush(stdout);
; 1496 : 	process_tripcode_pair_spinlock.unlock();
; 1497 : 
; 1498 : 	current_state_spinlock.lock();
; 1499 : 	++numValidTripcodes;
; 1500 : 	current_state_spinlock.unlock();
; 1501 : 
; 1502 : 	if (!options.redirection)
; 1503 : 		PrintStatus();
; 1504 : 	if (!options.redirection && options.beepWhenNewTripcodeIsFound)
; 1505 : 		printf("\a");
; 1506 : }
; 1507 : 
; 1508 : void ProcessInvalidTripcodePair(unsigned char *tripcode, unsigned char *key)
; 1509 : {
; 1510 : 	process_tripcode_pair_spinlock.lock();
; 1511 : 	if (options.outputInvalidTripcode && !options.redirection && !GetTerminationState() && !GetErrorState()) {
; 1512 : #ifdef ENGLISH_VERSION
; 1513 : 		fprintf(tripcodeFile, "!");
; 1514 : #else
; 1515 : 		fprintf(tripcodeFile, "%c%c", 0x81, 0x9f);
; 1516 : #endif
; 1517 : 		for (int32_t i = 0; i < lenTripcode; ++i)
; 1518 : 			fprintf(tripcodeFile, "%c", tripcode[i]);
; 1519 : 		fprintf(tripcodeFile, "  ");
; 1520 : 		for (int32_t i = 0; i < lenTripcodeKey; ++i)
; 1521 : 			fprintf(tripcodeFile, " ");
; 1522 : 		fprintf(tripcodeFile, " (");
; 1523 : 		for (int32_t i = 0; i < lenTripcodeKey; ++i) {
; 1524 : 			fprintf(tripcodeFile, "%02X", key[i]);
; 1525 : 			if (i + 1 < lenTripcodeKey)
; 1526 : 				fprintf(tripcodeFile, " ");
; 1527 : 		}
; 1528 : 		fprintf(tripcodeFile, ")\n");
; 1529 : 		fflush(tripcodeFile);
; 1530 : 
; 1531 : #ifdef ENGLISH_VERSION
; 1532 : 		printf("  !");
; 1533 : #else
; 1534 : 		printf("  %c%c", 0x81, 0x9f);
; 1535 : #endif
; 1536 : 		for (int32_t i = 0; i < lenTripcode; ++i)
; 1537 : 			printf("%c", tripcode[i]);
; 1538 : 		printf("  ");
; 1539 : 		for (int32_t i = 0; i < lenTripcodeKey; ++i)
; 1540 : 			printf(" ");
; 1541 : 		printf(" (");
; 1542 : 		for (int32_t i = 0; i < lenTripcodeKey; ++i) {
; 1543 : 			printf("%02X", key[i]);
; 1544 : 			if (i + 1 < lenTripcodeKey)
; 1545 : 				printf(" ");
; 1546 : 		}
; 1547 : 		printf(")");
; 1548 : 		for (int32_t i = 4 + lenTripcode + 2 + lenTripcodeKey + 2 + lenTripcodeKey * 3;
; 1549 : 			i < SCREEN_WIDTH - 1;
; 1550 : 			++i) {
; 1551 : 			printf(" ");
; 1552 : 		}
; 1553 : 		printf("\n");
; 1554 : 		fflush(stdout);
; 1555 : 	}
; 1556 : 	process_tripcode_pair_spinlock.unlock();
; 1557 : 
; 1558 : 	current_state_spinlock.lock();
; 1559 : 	++numDiscardedTripcodes;
; 1560 : 	current_state_spinlock.unlock();
; 1561 : 
; 1562 : 	if (options.outputInvalidTripcode && !options.redirection && !GetTerminationState() && !GetErrorState())
; 1563 : 		PrintStatus();
; 1564 : }
; 1565 : 
; 1566 : void OpenTripcodeFile()
; 1567 : {
; 1568 : 	tripcodeFile = fopen(tripcodeFilePath, "a");
; 1569 : 	ERROR0(tripcodeFilePath == NULL, ERROR_TRIPCODE_FILE, "The output file cannot be opened.");
; 1570 : }
; 1571 : 
; 1572 : void AddToNumGeneratedTripcodesByCPU(uint32_t num)
; 1573 : {
; 1574 : 	num_generated_tripcodes_spinlock.lock();
; 1575 : 	numGeneratedTripcodes_CPU += num;
; 1576 : 	if (numGeneratedTripcodes_CPU >= 1000000) {
; 1577 : 		numGeneratedTripcodesByCPUInMillions += numGeneratedTripcodes_CPU / 1000000;
; 1578 : 		numGeneratedTripcodes_CPU           %= 1000000;
; 1579 : 	}
; 1580 : 	num_generated_tripcodes_spinlock.unlock();
; 1581 : }
; 1582 : 
; 1583 : void AddToNumGeneratedTripcodesByGPU(uint32_t num)
; 1584 : {
; 1585 : 	num_generated_tripcodes_spinlock.lock();
; 1586 : 	numGeneratedTripcodes_GPU += num;
; 1587 : 	if (numGeneratedTripcodes_GPU >= 1000000) {
; 1588 : 		numGeneratedTripcodesByGPUInMillions += numGeneratedTripcodes_GPU / 1000000;
; 1589 : 		numGeneratedTripcodes_GPU           %= 1000000;
; 1590 : 	}
; 1591 : 	num_generated_tripcodes_spinlock.unlock();
; 1592 : }
; 1593 : 
; 1594 : double GetNumGeneratedTripcodesByCPU()
; 1595 : {
; 1596 : 	num_generated_tripcodes_spinlock.lock();
; 1597 : 
; 1598 : 	double ret =   (double)numGeneratedTripcodesByCPUInMillions * 1000000
; 1599 : 	             +         numGeneratedTripcodes_CPU;
; 1600 : 	numGeneratedTripcodesByCPUInMillions = 0;
; 1601 : 	numGeneratedTripcodes_CPU           = 0;
; 1602 : 
; 1603 : 	num_generated_tripcodes_spinlock.unlock();
; 1604 : 	
; 1605 : 	return ret;
; 1606 : }
; 1607 : 
; 1608 : double GetNumGeneratedTripcodesByGPU()
; 1609 : {
; 1610 : 	num_generated_tripcodes_spinlock.lock();
; 1611 : 
; 1612 : 	double ret =   (double)numGeneratedTripcodesByGPUInMillions * 1000000
; 1613 : 	             +         numGeneratedTripcodes_GPU;
; 1614 : 	numGeneratedTripcodesByGPUInMillions = 0;
; 1615 : 	numGeneratedTripcodes_GPU           = 0;
; 1616 : 
; 1617 : 	num_generated_tripcodes_spinlock.unlock();
; 1618 : 	
; 1619 : 	return ret;
; 1620 : }
; 1621 : 
; 1622 : void SetPauseState(BOOL newPauseState)
; 1623 : {
; 1624 : 	current_state_spinlock.lock();
; 1625 : 	isSearchPaused = newPauseState;
; 1626 : 	current_state_spinlock.unlock();
; 1627 : }
; 1628 : 
; 1629 : BOOL GetPauseState()
; 1630 : {
; 1631 : 	BOOL ret;
; 1632 : 	current_state_spinlock.lock();
; 1633 : 	ret = isSearchPaused;
; 1634 : 	current_state_spinlock.unlock();
; 1635 : 	return ret;
; 1636 : }
; 1637 : 
; 1638 : void SetErrorState()
; 1639 : {
; 1640 : 	current_state_spinlock.lock();
; 1641 : 	wasSearchAbortedWithError = TRUE;
; 1642 : 	current_state_spinlock.unlock();
; 1643 : }
; 1644 : 
; 1645 : BOOL GetErrorState()
; 1646 : {
; 1647 : 	BOOL ret;
; 1648 : 	current_state_spinlock.lock();
; 1649 : 	ret = wasSearchAbortedWithError;
; 1650 : 	current_state_spinlock.unlock();
; 1651 : 	return ret;
; 1652 : }
; 1653 : 
; 1654 : void SetTerminationState()
; 1655 : {
; 1656 : 	current_state_spinlock.lock();
; 1657 : 	wasSearchTerminated = TRUE;
; 1658 : 	current_state_spinlock.unlock();
; 1659 : }
; 1660 : 
; 1661 : BOOL GetTerminationState()
; 1662 : {
; 1663 : 	BOOL ret;
; 1664 : 
; 1665 : 	current_state_spinlock.lock();
; 1666 : 
; 1667 : 	// Prepare for termination.
; 1668 : 	if (options.redirection && nameEventForTerminatingWC[0] != 0x0 && eventForTerminating == NULL) {
; 1669 : 		eventForTerminating = OpenEvent(EVENT_ALL_ACCESS, false, nameEventForTerminatingWC);
; 1670 : 		ERROR0(!eventForTerminating, ERROR_EVENT, "Failed to open an event.") 
; 1671 : 	}
; 1672 : 
; 1673 : 	// Check to see if a termination event has occured.
; 1674 : 	if (eventForTerminating && WaitForSingleObject(eventForTerminating, 0) == WAIT_OBJECT_0)
; 1675 : 		wasSearchTerminated = true;
; 1676 : 
; 1677 : 	ret = wasSearchTerminated;
; 1678 : 
; 1679 : 	current_state_spinlock.unlock();
; 1680 : 
; 1681 : 	return ret;
; 1682 : }
; 1683 : 
; 1684 : double UpdateCurrentStatus(uint64_t startingTime)
; 1685 : {
; 1686 : 	current_state_spinlock.lock();
; 1687 : 	
; 1688 : 	double numGeneratedTripcodes_GPU = GetNumGeneratedTripcodesByGPU();
; 1689 : 	double numGeneratedTripcodes_CPU = GetNumGeneratedTripcodesByCPU();
; 1690 : 	uint64_t  endingTime = TIME_SINCE_EPOCH_IN_MILLISECONDS;
; 1691 : 	double deltaTime = (endingTime - startingTime             ) * 0.001;
; 1692 : 
; 1693 : 	totalNumGeneratedTripcodes     += numGeneratedTripcodes_GPU + numGeneratedTripcodes_CPU;
; 1694 : 	totalNumGeneratedTripcodes_GPU += numGeneratedTripcodes_GPU;
; 1695 : 	totalNumGeneratedTripcodes_CPU += numGeneratedTripcodes_CPU;
; 1696 : 	totalTime += deltaTime;
; 1697 : 	currentSpeed_thisProcess     = ((double)(numGeneratedTripcodes_GPU + numGeneratedTripcodes_CPU) / deltaTime);
; 1698 : 	currentSpeed_thisProcess_GPU = ((double) numGeneratedTripcodes_GPU                              / deltaTime);
; 1699 : 	currentSpeed_CPU        = ((double)numGeneratedTripcodes_CPU        / deltaTime);
; 1700 : 	if (maximumSpeed < currentSpeed_thisProcess)
; 1701 : 		maximumSpeed = currentSpeed_thisProcess;
; 1702 : 	prevTotalNumGeneratedTripcodes     = totalNumGeneratedTripcodes;
; 1703 : 	prevTotalNumGeneratedTripcodes_GPU = totalNumGeneratedTripcodes_GPU;
; 1704 : 	prevTotalNumGeneratedTripcodes_CPU = totalNumGeneratedTripcodes_CPU;
; 1705 : 	prevNumValidTripcodes     = numValidTripcodes;
; 1706 : 	prevNumDiscardedTripcodes = numDiscardedTripcodes;
; 1707 : 
; 1708 : 	current_state_spinlock.unlock();
; 1709 : 
; 1710 : 	return deltaTime;
; 1711 : }
; 1712 : 
; 1713 : BOOL IsFirstByteSJIS(unsigned char ch)
; 1714 : {
; 1715 : 	if (options.maximizeKeySpace) {

	test	ecx, ecx
	je	SHORT $LN86@SetCharact

; 1716 : 		return IS_FIRST_BYTE_SJIS_FULL(ch);

	cmp	al, 129					; 00000081H
	jb	SHORT $LN89@SetCharact
	cmp	al, 132					; 00000084H
	jbe	SHORT $LN91@SetCharact
$LN89@SetCharact:
	cmp	al, 136					; 00000088H
	jb	SHORT $LN90@SetCharact
	cmp	al, 159					; 0000009fH
	jbe	SHORT $LN91@SetCharact
$LN90@SetCharact:
	add	al, 32					; 00000020H
	cmp	al, 10					; 0000000aH
	jmp	SHORT $LN154@SetCharact
$LN86@SetCharact:

; 1717 : 	} else {
; 1718 : 		return IS_FIRST_BYTE_SJIS_CONSERVATIVE(ch);

	cmp	al, 137					; 00000089H
	jb	SHORT $LN94@SetCharact
	cmp	al, 151					; 00000097H
	jbe	SHORT $LN91@SetCharact
$LN94@SetCharact:
	cmp	al, 153					; 00000099H
	jb	SHORT $LN95@SetCharact
	cmp	al, 159					; 0000009fH
	jbe	SHORT $LN91@SetCharact
$LN95@SetCharact:
	add	al, 32					; 00000020H
	cmp	al, 9
$LN154@SetCharact:
	jbe	SHORT $LN91@SetCharact
$LN40@SetCharact:

; 229  : 	rand_s(&randomValue);

	lea	eax, DWORD PTR _randomValue$6[ebp]
	push	eax
	call	_rand_s

; 1742 : 					key[i] = (unsigned char)(RandomByte() & 0xff);

	mov	al, BYTE PTR _randomValue$6[ebp]
	jmp	SHORT $LN155@SetCharact
$LN91@SetCharact:

; 1743 : 				if (IsFirstByteSJIS(key[i]))

	mov	al, BYTE PTR [edi+ebx]

; 230  : 	return (unsigned char)(randomValue & 0x000000ff);
; 231  : }
; 232  : 
; 233  : void ReleaseResources()
; 234  : {
; 235  : 	RELEASE_AND_SET_TO_NULL(expandedPatternArray, free);
; 236  : 	RELEASE_AND_SET_TO_NULL(tripcodeChunkArray,   free);
; 237  : 	RELEASE_AND_SET_TO_NULL(regexPatternArray,    free);
; 238  : 	if (tripcodeFile) {
; 239  : 		RELEASE_AND_SET_TO_NULL(tripcodeFile,     fclose);
; 240  : 	}
; 241  : 	if (eventForTerminating) {
; 242  : 		CloseHandle(eventForTerminating);
; 243  : 		eventForTerminating = NULL;
; 244  : 	}
; 245  : }
; 246  : 
; 247  : void PrintUsage()
; 248  : {
; 249  : 	printf("Usage: %s [-c] [-g] [-d device_no] [-x blocks_per_SM] [-y global_work_size] [-z local_work_size] [-o tripcode_file] [-f pattern_file] [-i] [-w]\n", COMMAND);
; 250  : 	getchar();
; 251  : 	exit(-1);
; 252  : }
; 253  : 
; 254  : void reset_cursor_pos(int n)
; 255  : {
; 256  : #ifdef _WINDOWS_
; 257  : 	CONSOLE_SCREEN_BUFFER_INFO scrnBufInfo;
; 258  : 	COORD                      cursorPos;
; 259  : 	if (!GetConsoleScreenBufferInfo(GetStdHandle(STD_OUTPUT_HANDLE), &scrnBufInfo))
; 260  : 		return;
; 261  : 	cursorPos.X = 0;
; 262  : 	cursorPos.Y = (scrnBufInfo.dwCursorPosition.Y + n) >= 0
; 263  : 		? (scrnBufInfo.dwCursorPosition.Y + n)
; 264  : 		: 0;
; 265  : 	SetConsoleCursorPosition(GetStdHandle(STD_OUTPUT_HANDLE), cursorPos);
; 266  : #else
; 267  : 	if (n >= 0) {
; 268  : 		std::cout << "\033[" << n << "B";
; 269  : 	} else {
; 270  : 		std::cout << "\033[" << -n << "A";
; 271  : 	}
; 272  : #endif
; 273  : }
; 274  : 
; 275  : #ifdef _WINDOWS_
; 276  : 
; 277  : void hide_cursor()
; 278  : {
; 279  : 	CONSOLE_CURSOR_INFO info;
; 280  : 
; 281  : 	info.bVisible = false;
; 282  : 	info.dwSize = 100;
; 283  : 	SetConsoleCursorInfo((HWND)GetStdHandle(STD_OUTPUT_HANDLE), &info);
; 284  : }
; 285  : 
; 286  : void show_cursor()
; 287  : {
; 288  : 	CONSOLE_CURSOR_INFO info;
; 289  : 
; 290  : 	info.bVisible = true;
; 291  : 	info.dwSize = 100;
; 292  : 	SetConsoleCursorInfo((HWND)GetStdHandle(STD_OUTPUT_HANDLE), &info); 
; 293  : }
; 294  : 
; 295  : #else
; 296  : 
; 297  : void hide_cursor()
; 298  : {
; 299  : }
; 300  : 
; 301  : void show_cursor()
; 302  : {
; 303  : }
; 304  : 
; 305  : #endif
; 306  : 
; 307  : void CreateKey8AndKey9(unsigned char *key)
; 308  : {
; 309  : 	ASSERT(lenTripcode == 10);
; 310  : 	if (options.useOneByteCharactersForKeys) {
; 311  : 		key[8] = keyCharTable_OneByte[RandomByte()];
; 312  : 		key[9] = keyCharTable_OneByte[RandomByte()];
; 313  : 	} else {
; 314  : 		BOOL isSecondByte = FALSE;
; 315  : 		for (int32_t i = 0; i < 8; ++i) {
; 316  : 			if (!isSecondByte) {
; 317  : 				isSecondByte = IS_FIRST_BYTE_SJIS_FULL(key[i]);
; 318  : 			} else {
; 319  : 				isSecondByte = FALSE;
; 320  : 			}
; 321  : 		}
; 322  : 		if (isSecondByte) {
; 323  : 			key[8] = keyCharTable_SecondByte[RandomByte()];
; 324  : 			key[9] = keyCharTable_OneByte   [RandomByte()];
; 325  : 		} else {
; 326  : 			key[8] = keyCharTable_FirstByte[RandomByte()];
; 327  : 			key[9] = (IS_FIRST_BYTE_SJIS_FULL(key[8]))
; 328  : 							? keyCharTable_SecondByte[RandomByte()]
; 329  : 							: keyCharTable_OneByte   [RandomByte()];
; 330  : 		}
; 331  : 	}
; 332  : }
; 333  : 
; 334  : double ProcessGPUOutput(unsigned char *partialKey, GPUOutput *outputArray, uint32_t sizeOutputArray, BOOL newFormat)
; 335  : {
; 336  : 	unsigned char  tripcode[MAX_LEN_TRIPCODE     + 1];
; 337  : 	unsigned char  key     [MAX_LEN_TRIPCODE_KEY + 1];
; 338  : 	double numGeneratedTripcodesInThisOutput = 0;
; 339  : 	
; 340  : 	tripcode[lenTripcode   ] = '\0';
; 341  : 	key     [lenTripcodeKey] = '\0';
; 342  : 	memcpy(key, partialKey, lenTripcodeKey);
; 343  : 	for (uint32_t indexOutput = 0; indexOutput < sizeOutputArray; indexOutput++){
; 344  : 		GPUOutput *output = &outputArray[indexOutput];
; 345  : 		AddToNumGeneratedTripcodesByGPU(output->numGeneratedTripcodes);
; 346  : 		numGeneratedTripcodesInThisOutput += output->numGeneratedTripcodes;
; 347  : 		if (output->numMatchingTripcodes > 0) {
; 348  : 			memcpy(tripcode, output->pair.tripcode.c, lenTripcode);
; 349  : 			if (lenTripcode == 12 && newFormat) {
; 350  : 				memcpy(key, output->pair.key.c, 4);
; 351  : 				key[7]  = output->pair.key.c[7];
; 352  : 				key[11] = output->pair.key.c[11];
; 353  : 			} else if (lenTripcode == 12) {
; 354  : 				memcpy(key + 7,  output->pair.key.c + 7, lenTripcode - 7);
; 355  : 			} else {
; 356  : 				ASSERT(lenTripcode == 10);
; 357  : 				memcpy(key,  output->pair.key.c, 8);
; 358  : 				CreateKey8AndKey9(key);
; 359  : 			}
; 360  : 			//printf("{%s, %s}\n", tripcode, key);
; 361  : 			ERROR0(!IsTripcodeChunkValid(tripcode),
; 362  : 				   ERROR_TRIPCODE_VERIFICATION_FAILED, 
; 363  : 				   GetErrorMessage(ERROR_TRIPCODE_VERIFICATION_FAILED));
; 364  : 			ProcessPossibleMatch(tripcode, key);
; 365  : 		}
; 366  : 	}
; 367  : 	return numGeneratedTripcodesInThisOutput;
; 368  : }
; 369  : 
; 370  : BOOL IsValidKey(unsigned char *key)
; 371  : {
; 372  : 	int32_t i;
; 373  : 	BOOL isSecondByteSJIS = FALSE;
; 374  : 	char results[13] = {0x00, 0x00, 0x00, 0x00, 0x00, 0x00, 0x00, 0x00, 0x00, 0x00, 0x00, 0x00, 0x00};
; 375  : 	
; 376  : 	if (key[0] == '#' || key[0] == '$') {
; 377  : #ifdef DEBUG_PRINT_INVALID_KEY_INFO
; 378  : 		printf("  results: %c                                                     \n", key[0]);
; 379  : #endif
; 380  : 		return FALSE;
; 381  : 	}
; 382  : 
; 383  : 	for (i = 0; i < lenTripcode; ++i) {
; 384  : 		if (!isSecondByteSJIS && IS_ONE_BYTE_KEY_CHAR(key[i])) {
; 385  : 			// Don't do anything
; 386  : 			results[i] = 'O';
; 387  : 		} else if (!isSecondByteSJIS && i < lenTripcode - 1 && IS_FIRST_BYTE_SJIS_FULL(key[i])) {
; 388  : 			isSecondByteSJIS = TRUE;
; 389  : 			results[i] = '1';
; 390  : 		} else if (isSecondByteSJIS && IS_SECOND_BYTE_SJIS(key[i])) {
; 391  : 		    isSecondByteSJIS = FALSE;
; 392  : 		    if (!IS_VALID_SJIS_CHAR(key[i - 1], key[i])) {
; 393  : #ifdef DEBUG_PRINT_INVALID_KEY_INFO
; 394  : 				printf("  results: %sx                                                     \n", results);
; 395  : 				printf("  key[%2d]: 0x%02x ('%c')                                            \n", i, key[i], key[i]);
; 396  : #endif
; 397  : 				return FALSE;
; 398  : 			}
; 399  : 			results[i] = '2';
; 400  : 		} else {
; 401  : #ifdef DEBUG_PRINT_INVALID_KEY_INFO
; 402  : 			printf("  results: %sX                                                     \n", results);
; 403  : 			printf("  key[%2d]: 0x%02x ('%c')                                            \n", i, key[i], key[i]);
; 404  : #endif
; 405  : 			return FALSE;
; 406  : 		}
; 407  : 	}
; 408  : 	return TRUE;
; 409  : }
; 410  : 
; 411  : void CreateCharacterTables(void)
; 412  : {
; 413  : 	unsigned char keyChar;
; 414  : 	int32_t i;
; 415  : 
; 416  : #if FALSE
; 417  : 	for (i = 0; i < 64; ++i)
; 418  : 		base64CharTable[i] = i + ((i < 26) ?  'A'       :
; 419  : 		                          (i < 52) ? ('a' - 26) :
; 420  : 		                          (i < 62) ? ('0' - 52) :
; 421  : 		                                     ('.' - 62));
; 422  : #endif
; 423  : 
; 424  : 	numFirstByte = numSecondByte = numOneByte = 0;
; 425  : 
; 426  : 	// Set keyCharTable_OneByte[]
; 427  : 	if (options.useOnlyASCIICharactersForKeys) {
; 428  : 		do {
; 429  : 			keyChar = RandomByte();
; 430  : 		} while (!IS_ASCII_KEY_CHAR(keyChar));
; 431  : 		for (i = 0; i < SIZE_KEY_CHAR_TABLE; ++i) {
; 432  : 			keyChar = ((int32_t)keyChar + 1) & 0xff;
; 433  : 			while (!IS_ASCII_KEY_CHAR(keyChar))
; 434  : 				keyChar = ((int32_t)keyChar + 1) & 0xff;
; 435  : 			keyCharTable_OneByte[i] = keyChar;
; 436  : 		}
; 437  : 	} else {
; 438  : 		do {
; 439  : 			keyChar = RandomByte();
; 440  : 		} while (!IS_ONE_BYTE_KEY_CHAR(keyChar));
; 441  : 		for (i = 0; i < SIZE_KEY_CHAR_TABLE; ++i) {
; 442  : 			keyChar = ((int32_t)keyChar + 1) & 0xff;
; 443  : 			while (!IS_ONE_BYTE_KEY_CHAR(keyChar))
; 444  : 				keyChar = ((int32_t)keyChar + 1) & 0xff;
; 445  : 			keyCharTable_OneByte[i] = keyChar;
; 446  : 		}
; 447  : 	}
; 448  : 
; 449  : 	// Set keyCharTable_FirstByte[], keyCharTable_SecondByte[], and keyCharTable_SecondByteAndOneByte[].
; 450  : 	if (options.useOnlyASCIICharactersForKeys) {
; 451  : 		for (i = 0; i < SIZE_KEY_CHAR_TABLE; ++i) {
; 452  : 			keyCharTable_FirstByte [i]           = keyCharTable_OneByte[i];
; 453  : 			keyCharTable_SecondByte[i]           = keyCharTable_OneByte[i];
; 454  : 			keyCharTable_SecondByteAndOneByte[i] = keyCharTable_OneByte[i];
; 455  : 		}
; 456  : 		for (int32_t i = 0; i < 256; ++i) {
; 457  : 			if (IS_ASCII_KEY_CHAR(i)) {
; 458  : 				++numFirstByte;
; 459  : 				++numSecondByte;
; 460  : 				++numOneByte;
; 461  : 			}
; 462  : 		}
; 463  : 	} else if (options.useOneByteCharactersForKeys) {
; 464  : 		for (i = 0; i < SIZE_KEY_CHAR_TABLE; ++i) {
; 465  : 			keyCharTable_FirstByte           [i] = keyCharTable_OneByte[i];
; 466  : 			keyCharTable_SecondByte          [i] = keyCharTable_OneByte[i];
; 467  : 			keyCharTable_SecondByteAndOneByte[i] = keyCharTable_OneByte[i];
; 468  : 		}
; 469  : 		for (int32_t i = 0; i < 256; ++i) {
; 470  : 			if (IS_ONE_BYTE_KEY_CHAR(i)) {
; 471  : 				++numFirstByte;
; 472  : 				++numSecondByte;
; 473  : 				++numOneByte;
; 474  : 			}
; 475  : 		}
; 476  : 	} else {
; 477  : 		// Set keyCharTable_FirstByte[].
; 478  : 		do {
; 479  : 			keyChar = RandomByte();
; 480  : 		} while (!(IS_ONE_BYTE_KEY_CHAR(keyChar) || IsFirstByteSJIS(keyChar)));
; 481  : 		for (i = 0; i < SIZE_KEY_CHAR_TABLE; ++i) {
; 482  : 			keyCharTable_FirstByte[i] = keyChar;
; 483  : 			do {
; 484  : 				keyChar = ((int32_t)keyChar + 1) & 0xff;
; 485  : 			} while (!(IS_ONE_BYTE_KEY_CHAR(keyChar) || IsFirstByteSJIS(keyChar)));
; 486  : 		}
; 487  : 
; 488  : 		// Set keyCharTable_SecondByte[].
; 489  : 		do {
; 490  : 			keyChar = RandomByte();
; 491  : 		} while (!IS_SECOND_BYTE_SJIS(keyChar));
; 492  : 		for (i = 0; i < SIZE_KEY_CHAR_TABLE; ++i) {
; 493  : 			keyCharTable_SecondByte[i] = keyChar;
; 494  : 			do {
; 495  : 				keyChar = ((int32_t)keyChar + 1) & 0xff;
; 496  : 			} while (!IS_SECOND_BYTE_SJIS(keyChar));
; 497  : 		}
; 498  : 
; 499  : 		// Set keyCharTable_SecondByteAndOneByte[].
; 500  : 		do {
; 501  : 			keyChar = RandomByte();
; 502  : 		} while (!(IS_SECOND_BYTE_SJIS(keyChar) && IS_ONE_BYTE_KEY_CHAR(keyChar)));
; 503  : 		for (i = 0; i < SIZE_KEY_CHAR_TABLE; ++i) {
; 504  : 			keyCharTable_SecondByteAndOneByte[i] = keyChar;
; 505  : 			do {
; 506  : 				keyChar = ((int32_t)keyChar + 1) & 0xff;
; 507  : 			} while (!(IS_SECOND_BYTE_SJIS(keyChar) && IS_ONE_BYTE_KEY_CHAR(keyChar)));
; 508  : 		}
; 509  : 
; 510  : 		// Count characters in each table.
; 511  : 		for (int32_t i = 0; i < 256; ++i) {
; 512  : 			if (IS_ONE_BYTE_KEY_CHAR(i) || IsFirstByteSJIS(i) ) ++numFirstByte;
; 513  : 			if (                           IS_SECOND_BYTE_SJIS(i)) ++numSecondByte;
; 514  : 			if (IS_ONE_BYTE_KEY_CHAR(i)                          ) ++numOneByte;
; 515  : 		}
; 516  : 	}
; 517  : #if FALSE
; 518  : 	printf("numFirstByte  = %d\n", numFirstByte);
; 519  : 	printf("numSecondByte = %d\n", numSecondByte);
; 520  : 	printf("numOneByte    = %d\n", numOneByte);
; 521  : #endif
; 522  : }
; 523  : 
; 524  : void DisplayCopyrights()
; 525  : {
; 526  : #ifdef ENGLISH_VERSION
; 527  : 	printf("%s English\n", PRODUCT_NAME);
; 528  : 	printf("[compiled at %s on %s (PST)]\n", __TIME__, __DATE__);
; 529  : 	printf("Copyright (C) 2014-2016 !/Meriken/. <meriken.ygch.net@gmail.com>\n");
; 530  : #else
; 531  : 	printf("%s\n", PRODUCT_NAME);
; 532  : 	printf("[compiled at %s on %s (PST)]\n", __TIME__, __DATE__);
; 533  : 	printf("Copyright (C) 2011-2016 %c%c/Meriken/. <meriken.ygch.net@gmail.com>\n", 0x81, 0x9f);
; 534  : #endif
; 535  : 	printf("This program comes with ABSOLUTELY NO WARRANTY.\n");
; 536  :     printf("This is free software, and you are welcome to redistribute it\n");
; 537  :     printf("under certain conditions.\n");
; 538  :     printf("\n");
; 539  : }
; 540  : 
; 541  : void UpdateCUDADeviceStatus(struct CUDADeviceSearchThreadInfo *info, char *status)
; 542  : {
; 543  : 	cuda_device_search_thread_info_array_spinlock.lock();
; 544  : 	strcpy(info->status, status);
; 545  : 	info->timeLastUpdated = TIME_SINCE_EPOCH_IN_MILLISECONDS;
; 546  : 	cuda_device_search_thread_info_array_spinlock.unlock();
; 547  : }
; 548  : 
; 549  : void UpdateOpenCLDeviceStatus(struct OpenCLDeviceSearchThreadInfo *info, char *status)
; 550  : {
; 551  : 	opencl_device_search_thread_info_array_spinlock.lock();
; 552  : 	ASSERT(!info->runChildProcess);
; 553  : 	strcpy(info->status, status);
; 554  : 	info->timeLastUpdated = TIME_SINCE_EPOCH_IN_MILLISECONDS;
; 555  : 	opencl_device_search_thread_info_array_spinlock.unlock();
; 556  : }
; 557  : 
; 558  : void UpdateOpenCLDeviceStatus_ChildProcess(struct OpenCLDeviceSearchThreadInfo *info, char *status, double currentSpeed, double averageSpeed, double totalNumGeneratedTripcodes, uint32_t numDiscardedTripcodes, boost::process::child *child_process)
; 559  : {
; 560  : 	opencl_device_search_thread_info_array_spinlock.lock();
; 561  : 	ASSERT(info->runChildProcess);
; 562  : 	strcpy(info->status, status);
; 563  : 	info->currentSpeed = currentSpeed;
; 564  : 	info->averageSpeed = averageSpeed;
; 565  : 	info->totalNumGeneratedTripcodes = totalNumGeneratedTripcodes;
; 566  : 	info->numDiscardedTripcodes = numDiscardedTripcodes;
; 567  : 	info->child_process = child_process;
; 568  : 	info->timeLastUpdated = TIME_SINCE_EPOCH_IN_MILLISECONDS;
; 569  : 	opencl_device_search_thread_info_array_spinlock.unlock();
; 570  : }
; 571  : 
; 572  : void CheckSearchThreads()
; 573  : {
; 574  : 	cuda_device_search_thread_info_array_spinlock.lock();
; 575  : 	for (int32_t index = 0; index < numCUDADeviceSearchThreads; ++index) {
; 576  : 		struct CUDADeviceSearchThreadInfo *info = &CUDADeviceSearchThreadInfoArray[index];
; 577  : 		uint64_t  currentTime = TIME_SINCE_EPOCH_IN_MILLISECONDS;
; 578  : 		uint64_t  deltaTime = currentTime - info->timeLastUpdated;
; 579  : 		// if (deltaTime > 60 * 1000)
; 580  : 		//	strcpy(info->status, "Search thread became unresponsive.");
; 581  : 		//ERROR0(deltaTime > 1 * 60 * 1000, ERROR_SEARCH_THREAD_UNRESPONSIVE, "Search thread became unresponsive.");
; 582  : 		///*
; 583  : 		if (deltaTime > 60 * 1000) {
; 584  : 			strcpy(info->status, "Restarting search thread...");
; 585  : 			auto native_handle = cuda_device_search_threads[index]->native_handle();
; 586  : 			cuda_device_search_threads[index]->detach();
; 587  : 			delete cuda_device_search_threads[index];
; 588  : #ifdef _WINDOWS_
; 589  : 			TerminateThread(native_handle, 0);
; 590  : #elif defined(_POSIX_THREADS)
; 591  : 			pthread_setcanceltype(PTHREAD_CANCEL_ASYNCHRONOUS, NULL);
; 592  : 			pthread_cancel(native_handle);
; 593  : #endif
; 594  : 			cuda_device_search_threads[index] = new std::thread((lenTripcode == 10) 
; 595  : 														          ? Thread_SearchForDESTripcodesOnCUDADevice
; 596  : 															      : Thread_SearchForSHA1TripcodesOnCUDADevice,
; 597  : 															    &(CUDADeviceSearchThreadInfoArray[index]));
; 598  : 		}
; 599  : 		//*/
; 600  : 	}
; 601  : 	cuda_device_search_thread_info_array_spinlock.unlock();
; 602  : 
; 603  : 	opencl_device_search_thread_info_array_spinlock.lock();
; 604  : 	for (int32_t index = 0; index < numOpenCLDeviceSearchThreads; ++index) {
; 605  : 		struct OpenCLDeviceSearchThreadInfo *info = &openCLDeviceSearchThreadInfoArray[index];
; 606  : 		uint64_t  currentTime = TIME_SINCE_EPOCH_IN_MILLISECONDS;
; 607  : 		uint64_t  deltaTime = currentTime - info->timeLastUpdated;
; 608  : 		//ERROR0(deltaTime > 1 * 60 * 1000, ERROR_SEARCH_THREAD_UNRESPONSIVE, "Search thread became unresponsive.");
; 609  : 		///*
; 610  : 		if (deltaTime > 60 * 1000) {
; 611  : 			// If we restart the search thread while the OpenCL kernel is running, amdocl64.dll may crash.
; 612  : 			ERROR0(!info->runChildProcess, ERROR_SEARCH_THREAD_UNRESPONSIVE, "Search thread became unresponsive.");
; 613  : 
; 614  : 			strcpy(info->status, "[process] Restarting search thread...");
; 615  : 			auto native_handle = opencl_device_search_threads[index]->native_handle();
; 616  : 			opencl_device_search_threads[index]->detach();
; 617  : 			delete opencl_device_search_threads[index];
; 618  : #if 0
; 619  : 			if (info->child_process) {
; 620  : 				boost_process_spinlock.lock();
; 621  : 				boost::process::terminate(*(info->child_process));
; 622  : 				boost_process_spinlock.unlock();
; 623  : 			}
; 624  : #endif
; 625  : 			info->child_process = NULL;
; 626  : #ifdef _WINDOWS_
; 627  : 			TerminateThread(native_handle, 0);
; 628  : #elif defined(_POSIX_THREADS)
; 629  : 			pthread_setcanceltype(PTHREAD_CANCEL_ASYNCHRONOUS, NULL);
; 630  : 			pthread_cancel(native_handle);
; 631  : #endif
; 632  : 			info->currentSpeed = 0;
; 633  : 			info->averageSpeed = 0;
; 634  : 			++info->numRestarts;
; 635  : 
; 636  : 			uint32_t winThreadID;
; 637  : 			opencl_device_search_threads[index] = new std::thread((lenTripcode == 10) 
; 638  : 																	       ? Thread_SearchForDESTripcodesOnOpenCLDevice
; 639  : 													                       : Thread_SearchForSHA1TripcodesOnOpenCLDevice,
; 640  : 																	   &(openCLDeviceSearchThreadInfoArray[index]));
; 641  : 		}
; 642  : 		//*/
; 643  : 	}
; 644  : 	opencl_device_search_thread_info_array_spinlock.unlock();
; 645  : }
; 646  : 
; 647  : void KeepSearchThreadsAlive()
; 648  : {
; 649  : 	cuda_device_search_thread_info_array_spinlock.lock();
; 650  : 	for (int32_t index = 0; index < numCUDADeviceSearchThreads; ++index)
; 651  : 		CUDADeviceSearchThreadInfoArray[index].timeLastUpdated = TIME_SINCE_EPOCH_IN_MILLISECONDS;
; 652  : 	cuda_device_search_thread_info_array_spinlock.unlock();
; 653  : 
; 654  : 	opencl_device_search_thread_info_array_spinlock.lock();
; 655  : 	for (int32_t index = 0; index < numOpenCLDeviceSearchThreads; ++index)
; 656  : 		openCLDeviceSearchThreadInfoArray[index].timeLastUpdated = TIME_SINCE_EPOCH_IN_MILLISECONDS;
; 657  : 	opencl_device_search_thread_info_array_spinlock.unlock();
; 658  : }
; 659  : 
; 660  : void PrintStatus()
; 661  : {
; 662  : 	if (GetErrorState() || GetTerminationState())
; 663  : 		return;
; 664  : 
; 665  : 	current_state_spinlock.lock();
; 666  : 
; 667  : 	char msg[MAX_NUM_LINES_STATUS_MSG][LEN_LINE_BUFFER_FOR_SCREEN];
; 668  : 	int32_t lineCount = 0;
; 669  : 
; 670  : #define NEXT_LINE &(msg[lineCount++][0])
; 671  : 
; 672  : 	sprintf(NEXT_LINE, "%-79s", "");
; 673  : 	sprintf(NEXT_LINE, "%-79s", "STATUS");
; 674  : 	sprintf(NEXT_LINE, "%-79s", "======");
; 675  : 	sprintf(NEXT_LINE, "  Performing a %s search on %s",
; 676  : 			(searchMode == SEARCH_MODE_FORWARD_MATCHING             ) ? "forward-matching"  :
; 677  : 			(searchMode == SEARCH_MODE_BACKWARD_MATCHING            ) ? "backward-matching" :
; 678  : 			(searchMode == SEARCH_MODE_FORWARD_AND_BACKWARD_MATCHING) ? "forward- and backward-matching" :
; 679  : 	                                                                    "flexible",
; 680  : 			(searchDevice == SEARCH_DEVICE_CPU) ? "CPU" :
; 681  : 			(searchDevice == SEARCH_DEVICE_GPU) ? "GPU(s)" :
; 682  : 	                                              "CPU and GPU(s)");
; 683  : 	if (minLenExpandedPattern != maxLenExpandedPattern) {
; 684  : 		sprintf(NEXT_LINE,
; 685  : 				"  for %d pattern%s (%d chunk%s) with %d to %d characters%s",
; 686  : 				numExpandedPatterns,
; 687  : 				(numExpandedPatterns == 1) ? "" : "s",
; 688  : 				numTripcodeChunk,
; 689  : 				(numTripcodeChunk == 1) ? "" : "s",
; 690  : 				minLenExpandedPattern,
; 691  : 				maxLenExpandedPattern,
; 692  : 				(searchDevice == SEARCH_DEVICE_CPU) ? "." : ":");
; 693  : 		
; 694  : 	} else {
; 695  : 		sprintf(NEXT_LINE,
; 696  : 				"  for %d pattern%s (%d chunk%s) with %d characters%s",
; 697  : 				numExpandedPatterns,
; 698  : 				(numExpandedPatterns == 1) ? "" : "s",
; 699  : 				numTripcodeChunk,
; 700  : 				(numTripcodeChunk == 1) ? "" : "s",
; 701  : 				minLenExpandedPattern,
; 702  : 				(searchDevice == SEARCH_DEVICE_CPU) ? "." : ":");
; 703  : 	}
; 704  : 	if (searchDevice != SEARCH_DEVICE_CPU && CUDADeviceSearchThreadInfoArray) {
; 705  : 		cuda_device_search_thread_info_array_spinlock.lock();
; 706  : 		if (numCUDADeviceSearchThreads == 1) {
; 707  : 			sprintf(NEXT_LINE, "      CUDA0:     %s", CUDADeviceSearchThreadInfoArray[0].status);
; 708  : 		} else {
; 709  : 			for (int32_t i = 0; i < numCUDADeviceSearchThreads; ++i)
; 710  : 				sprintf(NEXT_LINE, "      CUDA%d-%d:     %s", CUDADeviceSearchThreadInfoArray[i].CUDADeviceIndex, CUDADeviceSearchThreadInfoArray[i].subindex, CUDADeviceSearchThreadInfoArray[i].status);
; 711  : 		}
; 712  : 		cuda_device_search_thread_info_array_spinlock.unlock();
; 713  : 	}
; 714  : 	if (searchDevice != SEARCH_DEVICE_CPU && openCLDeviceSearchThreadInfoArray) {
; 715  : 		opencl_device_search_thread_info_array_spinlock.lock();
; 716  : 		if (numOpenCLDeviceSearchThreads == 1) {
; 717  : 			sprintf(NEXT_LINE, "      OpenCL0:   %s", openCLDeviceSearchThreadInfoArray[0].status);
; 718  : 		} else {
; 719  : 			for (int32_t i = 0; i < numOpenCLDeviceSearchThreads; ++i) {
; 720  : 				if (openCLDeviceSearchThreadInfoArray[i].subindex < 0) {
; 721  : 					sprintf(NEXT_LINE, "      OpenCL%d:   %s",  openCLDeviceSearchThreadInfoArray[i].index, openCLDeviceSearchThreadInfoArray[i].status);
; 722  : 				} else {
; 723  : 					sprintf(NEXT_LINE, "      OpenCL%d-%d: %s", openCLDeviceSearchThreadInfoArray[i].index, openCLDeviceSearchThreadInfoArray[i].subindex, openCLDeviceSearchThreadInfoArray[i].status);
; 724  : 				}
; 725  : 			}
; 726  : 		}
; 727  : 		opencl_device_search_thread_info_array_spinlock.unlock();
; 728  : 	}
; 729  : #if FALSE
; 730  : 	if (CUDADeviceSearchThreadInfoArray && IsCUDADeviceOptimizationInProgress())
; 731  : 		sprintf(NEXT_LINE, "      [optimization in progress]");
; 732  : #endif
; 733  : 
; 734  : 	double currentSpeed_childProcesses = 0;
; 735  : 	double averageSpeed_childProcesses = 0;
; 736  : 	double totalNumGeneratedTripcodes_childProcesses = 0;
; 737  : 	uint32_t numDiscardedTripcodes_childProcesses = 0;
; 738  : 	// printf("numOpenCLDeviceSearchThreads = %d\n", numOpenCLDeviceSearchThreads);
; 739  : 	if (openCLDeviceSearchThreadInfoArray && openCLRunChildProcesses) {
; 740  : 		opencl_device_search_thread_info_array_spinlock.lock();
; 741  : 		for (int32_t i = 0; i < numOpenCLDeviceSearchThreads; ++i) {
; 742  : 			// printf("deviceNo = %d\n", openCLDeviceSearchThreadInfoArray[i].deviceNo);
; 743  : 			if (!(openCLDeviceSearchThreadInfoArray[i].runChildProcess))
; 744  : 				continue;
; 745  : 			currentSpeed_childProcesses               += openCLDeviceSearchThreadInfoArray[i].currentSpeed;
; 746  : 			averageSpeed_childProcesses               += openCLDeviceSearchThreadInfoArray[i].averageSpeed;
; 747  : 			totalNumGeneratedTripcodes_childProcesses += openCLDeviceSearchThreadInfoArray[i].totalNumGeneratedTripcodes;
; 748  : 			numDiscardedTripcodes_childProcesses      += openCLDeviceSearchThreadInfoArray[i].numDiscardedTripcodes;
; 749  : 		}
; 750  : 		opencl_device_search_thread_info_array_spinlock.unlock();
; 751  : 	}
; 752  : 
; 753  : 	double averageSpeed;
; 754  : 	double averageSpeed_GPU;
; 755  : 	double averageSpeed_CPU;
; 756  : 	double timeForOneMatch;
; 757  : 	double actualMatchingProb;
; 758  : 	double matchingProbDiff;
; 759  : 	double invalidTripcodeRatio = (prevNumValidTripcodes + prevNumDiscardedTripcodes > 0)
; 760  : 			                            ? ((double)(prevNumDiscardedTripcodes) / (prevNumValidTripcodes + prevNumDiscardedTripcodes))
; 761  : 										: 0;
; 762  : 	if (totalTime > 0) {
; 763  : 		uint32_t remainingSeconds = (uint32_t)totalTime;
; 764  : 		uint32_t totalTimeDays    = remainingSeconds / (24 * 60 * 60); remainingSeconds -= totalTimeDays    * 24 * 60 * 60;
; 765  : 		uint32_t totalTimeHours   = remainingSeconds / (     60 * 60); remainingSeconds -= totalTimeHours        * 60 * 60;
; 766  : 		uint32_t totalTimeMinutes = remainingSeconds / (          60); remainingSeconds -= totalTimeMinutes           * 60;
; 767  : 		uint32_t totalTimeSeconds = remainingSeconds;
; 768  : 		
; 769  : 		sprintf(NEXT_LINE, "");
; 770  : 		sprintf(NEXT_LINE, "  %.3lfT tripcodes were generated in %dd %dh %dm %02ds at:",
; 771  : 				(prevTotalNumGeneratedTripcodes + totalNumGeneratedTripcodes_childProcesses) * 0.000000000001,
; 772  : 				totalTimeDays,
; 773  : 				totalTimeHours,
; 774  : 				totalTimeMinutes,
; 775  : 				totalTimeSeconds);
; 776  : 		sprintf(NEXT_LINE, "      %3.2lfM tripcode/s (current)", (currentSpeed_thisProcess + currentSpeed_childProcesses) / 1000000);
; 777  : 		if (searchDevice == SEARCH_DEVICE_GPU_AND_CPU) {
; 778  : 			sprintf(NEXT_LINE, "          GPU: %7.2lfM tripcode/s", (currentSpeed_thisProcess_GPU + currentSpeed_childProcesses) / 1000000);
; 779  : 			sprintf(NEXT_LINE, "          CPU: %7.2lfM tripcode/s", currentSpeed_CPU / 1000000);
; 780  : 		}
; 781  : #ifdef DISPLAY_MAXIMUM_SPEED
; 782  : 		sprintf(NEXT_LINE, "      %3.2lfM tripcode/s (maximum)", maximumSpeed);
; 783  : #endif
; 784  : 		averageSpeed     = prevTotalNumGeneratedTripcodes     / totalTime + averageSpeed_childProcesses;
; 785  : 		averageSpeed_GPU = prevTotalNumGeneratedTripcodes_GPU / totalTime + averageSpeed_childProcesses;
; 786  : 		averageSpeed_CPU = prevTotalNumGeneratedTripcodes_CPU / totalTime;
; 787  : 		sprintf(NEXT_LINE, "      %3.2lfM tripcode/s (average)",  averageSpeed / 1000000);
; 788  : 		if (searchDevice == SEARCH_DEVICE_GPU_AND_CPU) {
; 789  : 			sprintf(NEXT_LINE, "          GPU: %7.2lfM tripcode/s", averageSpeed_GPU / 1000000);
; 790  : 			sprintf(NEXT_LINE, "          CPU: %7.2lfM tripcode/s", averageSpeed_CPU / 1000000);
; 791  : 		}
; 792  : 		
; 793  : 		timeForOneMatch = numAverageTrialsForOneMatch / averageSpeed;
; 794  : 		if (averageSpeed > 0 && !searchForSpecialPatternsOnCPU) {
; 795  : 			if (timeForOneMatch >= 100.0 * 365 * 24 * 60 * 60) {
; 796  : 				sprintf(NEXT_LINE, "  On average, it takes %.1lf centuries to find one match at this speed.", timeForOneMatch / (100.0 * 365 * 24 * 60 * 60));			
; 797  : 			} else if (timeForOneMatch >= 365.0 * 24 * 60 * 60) {
; 798  : 				sprintf(NEXT_LINE, "  On average, it takes %.1lf years to find one match at this speed.", timeForOneMatch / (365.0 * 24 * 60 * 60));			
; 799  : 			} else if (timeForOneMatch >= 30.4 * 24 * 60 * 60) {
; 800  : 				sprintf(NEXT_LINE, "  On average, it takes %.1lf months to find one match at this speed.", timeForOneMatch / (30.4 * 24 * 60 * 60));			
; 801  : 			} else if (timeForOneMatch >= 24 * 60 * 60) {
; 802  : 				sprintf(NEXT_LINE, "  On average, it takes %.1lf days to find one match at this speed.", timeForOneMatch / (24 * 60 * 60));			
; 803  : 			} else if (timeForOneMatch >= 60 * 60) {
; 804  : 				sprintf(NEXT_LINE, "  On average, it takes %.1lf hours to find one match at this speed.", timeForOneMatch / (60 * 60));			
; 805  : 			} else if (timeForOneMatch >= 60) {
; 806  : 				sprintf(NEXT_LINE, "  On average, it takes %.1lf minutes to find one match at this speed.", timeForOneMatch / 60);			
; 807  : 			} else {
; 808  : 				sprintf(NEXT_LINE, "  On average, it takes %.1lf seconds to find one match at this speed.", timeForOneMatch);			
; 809  : 			}
; 810  : 		}
; 811  : 		sprintf(NEXT_LINE, "");
; 812  : 		if (numValidTripcodes <= 0) {
; 813  : 			sprintf(NEXT_LINE, "  No matches were found yet.");
; 814  : 		} else {
; 815  : 			if (prevNumValidTripcodes > 0) {
; 816  : 				sprintf(NEXT_LINE, "  %ld match%s found at %.2lf matches/h and %.2lfG tripcodes/match.",
; 817  : 						prevNumValidTripcodes,
; 818  : 						(prevNumValidTripcodes == 1) ? "" : "es",
; 819  : 						prevNumValidTripcodes / (totalTime / 3600),
; 820  : 						(double)(prevTotalNumGeneratedTripcodes + totalNumGeneratedTripcodes_childProcesses) / prevNumValidTripcodes * 0.000000001);
; 821  : 			}
; 822  : 			actualMatchingProb = (prevNumValidTripcodes + prevNumDiscardedTripcodes + numDiscardedTripcodes_childProcesses) / (prevTotalNumGeneratedTripcodes + totalNumGeneratedTripcodes_childProcesses);
; 823  : 			matchingProbDiff = (actualMatchingProb - matchingProb) / matchingProb;
; 824  : #ifdef DEBUG_DISPLAY_MATCHING_PROBABILITY
; 825  : 			sprintf(NEXT_LINE, "  The theoretical matching probability is %0.20lf%%.", matchingProb);
; 826  : #endif
; 827  : 			if (!searchForSpecialPatternsOnCPU) {
; 828  : 				if (matchingProbDiff > 0.01) {
; 829  : 					sprintf(NEXT_LINE, "  The actual matching probability is %.0f%% higher than expected.", matchingProbDiff * 100);
; 830  : 				} else if (matchingProbDiff < -0.01) {
; 831  : 					sprintf(NEXT_LINE, "  The actual matching probability is %.0f%% lower than expected.",
; 832  : 							-matchingProbDiff * 100);
; 833  : 				} else {
; 834  : 					sprintf(NEXT_LINE, "  The actual matching probability is about the same as expected.");
; 835  : 				}
; 836  : 			}
; 837  : 			if (prevNumValidTripcodes + prevNumDiscardedTripcodes > 0) {
; 838  : 				sprintf(NEXT_LINE, "  %.0f%% of matching tripcodes were invalid.",
; 839  : 						invalidTripcodeRatio * 100);
; 840  : 			}
; 841  : 		}
; 842  : 	}
; 843  : 	
; 844  : 	if (!options.redirection) {
; 845  : 		for (int32_t i = 0; i < lineCount; ++i)
; 846  : 			printf("%-79s\n", &(msg[i][0]));
; 847  : 		reset_cursor_pos(-lineCount);
; 848  : 		prevLineCount = lineCount;
; 849  : 	} else {
; 850  : 		if (totalTime > 0 && !searchForSpecialPatternsOnCPU) {
; 851  : 			printf("[status],%.0lf,%.0lf,%.0lf,%.0lf,%.0lf,%.1lf,%s%d%%,%.0lf,%ld,%d,%.0lf,%.0lf,%u,%.0f%%\n",
; 852  : 			       totalTime,
; 853  : 				   currentSpeed_thisProcess     + currentSpeed_childProcesses,
; 854  : 				   currentSpeed_thisProcess_GPU + currentSpeed_childProcesses,
; 855  : 				   currentSpeed_CPU,
; 856  : 				   averageSpeed,
; 857  : 				   timeForOneMatch,
; 858  : 				   ((int32_t)(matchingProbDiff * 100) > 0) ? "+" : "", // All I want to do here is to avoid "-0%" and "+0%".
; 859  : 				    (int32_t)(matchingProbDiff * 100),
; 860  : 				   prevTotalNumGeneratedTripcodes + totalNumGeneratedTripcodes_childProcesses,
; 861  : 				   prevNumValidTripcodes,
; 862  : 				   FALSE,
; 863  : 				   averageSpeed_GPU,
; 864  : 				   averageSpeed_CPU,
; 865  : 				   prevNumDiscardedTripcodes,
; 866  : 				   invalidTripcodeRatio * 100);
; 867  : 		} else if (totalTime > 0) {
; 868  : 			printf("[status],%.0lf,%.0lf,%.0lf,%.0lf,%.0lf,-,-,%.0lf,%ld,%d,%.0lf,%.0lf,%u,%.0f%%\n",
; 869  : 			       totalTime,
; 870  : 				   currentSpeed_thisProcess     + currentSpeed_childProcesses,
; 871  : 				   currentSpeed_thisProcess_GPU + currentSpeed_childProcesses,
; 872  : 				   currentSpeed_CPU,
; 873  : 				   averageSpeed,
; 874  : 				   prevTotalNumGeneratedTripcodes + totalNumGeneratedTripcodes_childProcesses,
; 875  : 				   prevNumValidTripcodes,
; 876  : 				   FALSE,
; 877  : 				   averageSpeed_GPU,
; 878  : 				   averageSpeed_CPU,
; 879  : 				   prevNumDiscardedTripcodes,
; 880  : 				   invalidTripcodeRatio * 100);
; 881  : 		}
; 882  : 		fflush(stdout);
; 883  : 	}
; 884  : 	
; 885  : 	current_state_spinlock.unlock();
; 886  : #undef NEXT_LINE
; 887  : }
; 888  : 
; 889  : BOOL WINAPI ControlHandler(_In_  DWORD dwCtrlType)
; 890  : {
; 891  : 	switch (dwCtrlType) {
; 892  : 	case CTRL_C_EVENT:
; 893  : 	case CTRL_CLOSE_EVENT:
; 894  : 	case CTRL_SHUTDOWN_EVENT:
; 895  : 	case CTRL_LOGOFF_EVENT:
; 896  : 		SetTerminationState();
; 897  : 		while (TRUE)
; 898  : 			Sleep(1000);
; 899  : 		return TRUE;
; 900  : 	default:
; 901  : 		return FALSE;
; 902  : 	}
; 903  : }
; 904  : 
; 905  : void InitProcess()
; 906  : {
; 907  : 	hide_cursor();
; 908  : 	SetConsoleCtrlHandler(ControlHandler, true);
; 909  : }
; 910  : 
; 911  : void ListCUDADevices()
; 912  : {
; 913  : 	int32_t i;
; 914  : 	cudaDeviceProp CUDADeviceProperties;
; 915  : 	
; 916  : 	cudaGetDeviceCount(&CUDADeviceCount);
; 917  : 
; 918  : 	for (i = 0; i < CUDADeviceCount; ++i) {
; 919  : 		cudaGetDeviceProperties(&CUDADeviceProperties, i);
; 920  : 		printf("NVIDIA %s (CUDA)\n", CUDADeviceProperties.name); 
; 921  : 	}
; 922  : }
; 923  : 
; 924  : void CountOpenCLDevices()
; 925  : {
; 926  :     cl_int        errorCode;
; 927  :     cl_uint       numPlatforms;
; 928  : 	cl_uint       deviceCount;
; 929  : 	cl_device_id *devices = NULL;
; 930  : 
; 931  : 	openCLDeviceCount = 0;
; 932  : 
; 933  : 	// Get a list of platforms
; 934  : 	errorCode = clGetPlatformIDs(0, NULL, &numPlatforms);
; 935  :     if (errorCode != CL_SUCCESS || numPlatforms <= 0)
; 936  : 		return;
; 937  : 	cl_platform_id* platforms = (cl_platform_id*)malloc(sizeof(cl_platform_id) * numPlatforms);
; 938  : 	ERROR0(platforms == NULL, ERROR_NO_MEMORY, GetErrorMessage(ERROR_NO_MEMORY));
; 939  :     errorCode = clGetPlatformIDs(numPlatforms, platforms, NULL);
; 940  :     OPENCL_ERROR(errorCode);
; 941  : 
; 942  : 	int32_t openCLDeviceIDArrayIndex = 0;
; 943  : 	for (int32_t pass = 0; pass <= 1; ++pass) {
; 944  : 		for (int32_t platformIndex = 0; platformIndex < numPlatforms; ++platformIndex) {
; 945  : 			// Skip CUDA devices.
; 946  : 			char platformVendor[LEN_LINE_BUFFER_FOR_SCREEN];
; 947  : 			errorCode = clGetPlatformInfo(platforms[platformIndex], CL_PLATFORM_VENDOR, sizeof(platformVendor), platformVendor, NULL);
; 948  : 			// OPENCL_ERROR(errorCode);
; 949  : 			if (errorCode != CL_SUCCESS)
; 950  : 				continue;
; 951  : 			if (   (strcmp(platformVendor, OPENCL_VENDOR_NVIDIA) == 0 && !options.useOpenCLForCUDADevices)
; 952  : 				||  strcmp(platformVendor, OPENCL_VENDOR_INTEL ) == 0                                     )
; 953  : 				continue;
; 954  : 		
; 955  : 			// Get a list of devices on the platform.
; 956  : 			errorCode = clGetDeviceIDs(platforms[platformIndex], CL_DEVICE_TYPE_ALL, 0, NULL, &deviceCount);
; 957  : 			// OPENCL_ERROR(errorCode);
; 958  : 			// if (errorCode == CL_DEVICE_NOT_FOUND)
; 959  : 			//	continue;
; 960  : 			if (errorCode != CL_SUCCESS)
; 961  : 				continue;
; 962  : 			devices = (cl_device_id*)malloc(sizeof(cl_device_id) * deviceCount);
; 963  : 			ERROR0(devices == NULL, ERROR_NO_MEMORY, GetErrorMessage(ERROR_NO_MEMORY));
; 964  : 			errorCode = clGetDeviceIDs(platforms[platformIndex], CL_DEVICE_TYPE_GPU | CL_DEVICE_TYPE_ACCELERATOR, deviceCount, devices, &deviceCount);
; 965  : 			if (errorCode != CL_DEVICE_NOT_FOUND) {
; 966  : 				OPENCL_ERROR(errorCode);
; 967  : 				for(int32_t deviceIndex = 0; deviceIndex < deviceCount; ++deviceIndex) {
; 968  : 					if (pass == 0) {
; 969  : 						++openCLDeviceCount;
; 970  : 					} else {
; 971  : 						openCLDeviceIDArray[openCLDeviceIDArrayIndex++] = devices[deviceIndex];
; 972  : 					}
; 973  : 				}
; 974  : 			}
; 975  : 			free(devices);
; 976  : 		}
; 977  : 		if (pass == 0) {
; 978  : 			openCLDeviceIDArray = (cl_device_id *)malloc(sizeof(cl_device_id) * openCLDeviceCount);
; 979  : 			ERROR0(openCLDeviceIDArray == NULL, ERROR_NO_MEMORY, GetErrorMessage(ERROR_NO_MEMORY));
; 980  : 		}
; 981  : 	}
; 982  : 
; 983  :     free(platforms);
; 984  : }
; 985  : 
; 986  : void ListOpenCLDevices()
; 987  : {
; 988  :     cl_int  errorCode;
; 989  :     cl_uint numPlatforms;
; 990  : 	cl_uint deviceCount;
; 991  : 	char    deviceVendor[LEN_LINE_BUFFER_FOR_SCREEN];
; 992  : 	char    deviceName  [LEN_LINE_BUFFER_FOR_SCREEN];
; 993  : 	cl_uint numComputeUnits;
; 994  : 
; 995  : 	CountOpenCLDevices();
; 996  : 
; 997  : 	for(int32_t deviceIndex = 0; deviceIndex < openCLDeviceCount; ++deviceIndex) {  
; 998  : 		OPENCL_ERROR(clGetDeviceInfo(openCLDeviceIDArray[deviceIndex], CL_DEVICE_VENDOR,            sizeof(deviceVendor),    &deviceVendor,    NULL));
; 999  : 		OPENCL_ERROR(clGetDeviceInfo(openCLDeviceIDArray[deviceIndex], CL_DEVICE_NAME,              sizeof(deviceName),      &deviceName,      NULL));
; 1000 : 		OPENCL_ERROR(clGetDeviceInfo(openCLDeviceIDArray[deviceIndex], CL_DEVICE_MAX_COMPUTE_UNITS, sizeof(numComputeUnits), &numComputeUnits, NULL));
; 1001 : 		// printf("%d: ", CUDADeviceCount + deviceIndex);
; 1002 : 		if (strcmp(deviceVendor, OPENCL_VENDOR_AMD) == 0) {
; 1003 : 			printf("AMD ");
; 1004 : 		} else if (strcmp(deviceVendor, OPENCL_VENDOR_INTEL) == 0) {
; 1005 : 			// Do not print anything.
; 1006 : 		} else if (strcmp(deviceVendor, OPENCL_VENDOR_NVIDIA) == 0) {
; 1007 : 			printf("NVIDIA ");
; 1008 : 		} else {
; 1009 : 			printf("%s ", deviceVendor);
; 1010 : 		}
; 1011 : 		char *productName = GetProductNameForOpenCLDevice(deviceVendor, deviceName, numComputeUnits);
; 1012 : 		if (productName) {
; 1013 : 			printf("%s", productName);
; 1014 : 		} else {
; 1015 : 			printf("%s", deviceName);
; 1016 : 		}
; 1017 : 		printf(" (OpenCL)\n");
; 1018 : 	}
; 1019 : }
; 1020 : 
; 1021 : void ListGPUsAndExit()
; 1022 : {
; 1023 : 	if (!options.useOpenCLForCUDADevices)
; 1024 : 		ListCUDADevices();
; 1025 : 	ListOpenCLDevices();
; 1026 : 	exit(0);
; 1027 : }
; 1028 : 
; 1029 : void InitSearchDevices(BOOL displayDeviceInformation)
; 1030 : {
; 1031 : 	int32_t i;
; 1032 : 	cudaDeviceProp CUDADeviceProperties;
; 1033 : 	
; 1034 : 	if (options.useOpenCLForCUDADevices) {
; 1035 : 		CUDADeviceCount = 0;
; 1036 : 	} else {
; 1037 : 		cudaGetDeviceCount(&CUDADeviceCount);
; 1038 : 	}
; 1039 : 	CountOpenCLDevices();
; 1040 : 	ERROR0(   options.GPUIndex != GPU_INDEX_ALL
; 1041 : 		   && (options.GPUIndex < 0 || CUDADeviceCount + openCLDeviceCount <= options.GPUIndex),
; 1042 : 			ERROR_INVALID_OPTION,
; 1043 : 			"An invalid device was specified.");
; 1044 : 	if (options.searchDevice == SEARCH_DEVICE_NIL) {
; 1045 : 		searchDevice = (CUDADeviceCount <= 0 && openCLDeviceCount <= 0) ? (SEARCH_DEVICE_CPU) : (SEARCH_DEVICE_GPU);
; 1046 : 	} else {
; 1047 : 		searchDevice = options.searchDevice;
; 1048 : 	}
; 1049 : #ifdef DEBUG_USE_CPU_ONLY
; 1050 : 	searchDevice = SEARCH_DEVICE_CPU;
; 1051 : #endif
; 1052 : 	
; 1053 : #if FALSE
; 1054 : 	if (displayDeviceInformation) {
; 1055 : 		if (searchDevice == SEARCH_DEVICE_CPU) {
; 1056 : 			printf("CPU will be used as a search device.\n\n");
; 1057 : 		} else if (searchDevice == SEARCH_DEVICE_GPU && CUDADeviceCount + openCLDeviceCount <= 1 || options.GPUIndex != GPU_INDEX_ALL) {
; 1058 : 			printf("GPU will be used as a search device.\n\n");
; 1059 : 		} else if (searchDevice == SEARCH_DEVICE_GPU) {
; 1060 : 			printf("GPUs will be used as search devices.\n\n");
; 1061 : 		} else {
; 1062 : 			printf("Both GPU(s) and CPU will be used as search devices.\n\n");
; 1063 : 		}
; 1064 : 	}
; 1065 : #endif
; 1066 : 	ERROR0((searchDevice == SEARCH_DEVICE_GPU || searchDevice == SEARCH_DEVICE_GPU_AND_CPU) && CUDADeviceCount <= 0 && openCLDeviceCount <= 0,
; 1067 : 		   ERROR_INVALID_OPTION, "There is no GPU.");
; 1068 : 		
; 1069 : 	numCUDADeviceSearchThreads   = 0;
; 1070 : 	numOpenCLDeviceSearchThreads = 0;
; 1071 : 	numCPUSearchThreads          = 0;
; 1072 : 
; 1073 : 	if (   (searchDevice == SEARCH_DEVICE_GPU || searchDevice == SEARCH_DEVICE_GPU_AND_CPU)
; 1074 : 		&& CUDADeviceCount > 0
; 1075 : 		&& !options.useOpenCLForCUDADevices
; 1076 : 		&& (options.GPUIndex == GPU_INDEX_ALL || options.GPUIndex < CUDADeviceCount)) {
; 1077 : 
; 1078 : 		if (displayDeviceInformation && CUDADeviceCount > 1 && options.GPUIndex == GPU_INDEX_ALL) {
; 1079 : 			printf("CUDA DEVICES\n");
; 1080 : 			printf("============\n");
; 1081 : 			printf(        "  CUDA Device Count:        %d\n\n", CUDADeviceCount);
; 1082 : 		} else if (displayDeviceInformation) {
; 1083 : 			printf("CUDA DEVICE\n");
; 1084 : 			printf("===========\n");
; 1085 : 		}
; 1086 : 		for (i = ((options.GPUIndex == GPU_INDEX_ALL) ? 0               :  options.GPUIndex     );
; 1087 : 		     i < ((options.GPUIndex == GPU_INDEX_ALL) ? CUDADeviceCount : (options.GPUIndex + 1));
; 1088 : 			 ++i) {
; 1089 : 			if (displayDeviceInformation) {
; 1090 : 				cudaGetDeviceProperties(&CUDADeviceProperties, i);
; 1091 : 				printf(    "  Device No.:               %d\n",      i);
; 1092 : 				printf(    "  Device Name:              %s\n",      CUDADeviceProperties.name);
; 1093 : 				printf(    "  Multiprocessor Count:     %d\n",      CUDADeviceProperties.multiProcessorCount);
; 1094 : 				printf(    "  Clock Rate:               %.0fMHz\n", CUDADeviceProperties.clockRate * 1e-3f);
; 1095 : 				printf(    "  Compute Capability:       %d.%d\n",   CUDADeviceProperties.major, CUDADeviceProperties.minor);
; 1096 : 				printf(    "  Compute Mode:             %s\n",
; 1097 : 					   (CUDADeviceProperties.computeMode == cudaComputeModeDefault         ) ? "cudaComputeModeDefault"          :
; 1098 : 					   (CUDADeviceProperties.computeMode == cudaComputeModeExclusive       ) ? "cudaComputeModeExclusive"        :
; 1099 : 					   (CUDADeviceProperties.computeMode == cudaComputeModeProhibited      ) ? "cudaComputeModeProhibited"       :
; 1100 : 					   (CUDADeviceProperties.computeMode == cudaComputeModeExclusiveProcess) ? "cudaComputeModeExclusiveProcess" :
; 1101 : 					                                                                           "(unknown)"                        );
; 1102 : 				printf("\n");
; 1103 : 			}
; 1104 : 			numCUDADeviceSearchThreads += CUDA_NUM_THREADS_PER_DEVICE;
; 1105 : 		}
; 1106 : 	}
; 1107 : 
; 1108 : 	if (   (searchDevice == SEARCH_DEVICE_GPU || searchDevice == SEARCH_DEVICE_GPU_AND_CPU)
; 1109 : 		&& openCLDeviceCount > 0
; 1110 : 		&& (options.GPUIndex == GPU_INDEX_ALL || CUDADeviceCount <= options.GPUIndex)) {
; 1111 : 
; 1112 : 		if (displayDeviceInformation && openCLDeviceCount > 1 && options.GPUIndex == GPU_INDEX_ALL) {
; 1113 : 			printf("OPENCL DEVICES\n");
; 1114 : 			printf("==============\n");
; 1115 : 			printf(        "  OpenCL Device Count:      %d\n\n", openCLDeviceCount);
; 1116 : 		} else if (displayDeviceInformation) {
; 1117 : 			printf("OPENCL DEVICE\n");
; 1118 : 			printf("=============\n");
; 1119 : 		}
; 1120 : 		openCLRunChildProcesses =    (   options.openCLRunChildProcesses
; 1121 : 		                              && (openCLDeviceCount > 1)
; 1122 : 			                          && (options.GPUIndex == GPU_INDEX_ALL))
; 1123 : 								  || options.openCLNumProcesses > 1;
; 1124 : 
; 1125 : 		// printf("openCLRunChildProcesses = %d\n", openCLRunChildProcesses);
; 1126 : 		for (i = ((options.GPUIndex == GPU_INDEX_ALL) ? CUDADeviceCount                     : (options.GPUIndex    ));
; 1127 : 		     i < ((options.GPUIndex == GPU_INDEX_ALL) ? CUDADeviceCount + openCLDeviceCount : (options.GPUIndex + 1));
; 1128 : 			 ++i) {
; 1129 : 			int32_t openCLDeviceIndex = i - CUDADeviceCount;
; 1130 : 			char deviceVendor [LEN_LINE_BUFFER_FOR_SCREEN];
; 1131 : 			char deviceName   [LEN_LINE_BUFFER_FOR_SCREEN];
; 1132 : 			char deviceVersion[LEN_LINE_BUFFER_FOR_SCREEN];
; 1133 : 			char driverVersion[LEN_LINE_BUFFER_FOR_SCREEN];
; 1134 : 			cl_ulong globalMemorySize;
; 1135 : 			cl_uint  clockFrequency;
; 1136 : 			cl_uint  numComputeUnits;
; 1137 : 			size_t maxWorkGroupSize;
; 1138 : 			OPENCL_ERROR(clGetDeviceInfo(openCLDeviceIDArray[openCLDeviceIndex], CL_DEVICE_VENDOR,              sizeof(deviceVendor),     &deviceVendor,     NULL));
; 1139 : 			OPENCL_ERROR(clGetDeviceInfo(openCLDeviceIDArray[openCLDeviceIndex], CL_DEVICE_NAME,                sizeof(deviceName),       &deviceName,       NULL));
; 1140 : 			OPENCL_ERROR(clGetDeviceInfo(openCLDeviceIDArray[openCLDeviceIndex], CL_DEVICE_VERSION,             sizeof(deviceVersion),    &deviceVersion,    NULL));
; 1141 : 			OPENCL_ERROR(clGetDeviceInfo(openCLDeviceIDArray[openCLDeviceIndex], CL_DRIVER_VERSION,             sizeof(driverVersion),    &driverVersion,    NULL));
; 1142 : 			OPENCL_ERROR(clGetDeviceInfo(openCLDeviceIDArray[openCLDeviceIndex], CL_DEVICE_GLOBAL_MEM_SIZE,     sizeof(globalMemorySize), &globalMemorySize, NULL));
; 1143 : 			OPENCL_ERROR(clGetDeviceInfo(openCLDeviceIDArray[openCLDeviceIndex], CL_DEVICE_MAX_CLOCK_FREQUENCY, sizeof(clockFrequency),   &clockFrequency,   NULL));
; 1144 : 			OPENCL_ERROR(clGetDeviceInfo(openCLDeviceIDArray[openCLDeviceIndex], CL_DEVICE_MAX_COMPUTE_UNITS,   sizeof(numComputeUnits),  &numComputeUnits,  NULL));
; 1145 : 			OPENCL_ERROR(clGetDeviceInfo(openCLDeviceIDArray[openCLDeviceIndex], CL_DEVICE_MAX_WORK_GROUP_SIZE, sizeof(maxWorkGroupSize), &maxWorkGroupSize, NULL));
; 1146 : 			char *productName = GetProductNameForOpenCLDevice(deviceVendor, deviceName, numComputeUnits);
; 1147 : 			if (displayDeviceInformation) {
; 1148 : 				printf(    "  Vendor:                   %s\n",        deviceVendor);
; 1149 : 				if (productName) {
; 1150 : 					printf(    "  Name:                     %s (%s)\n", deviceName, productName);
; 1151 : 				} else {
; 1152 : 					printf(    "  Name:                     %s\n",      deviceName);
; 1153 : 				}
; 1154 : 				printf(    "  Number of Compute Units:  %d\n",        (int32_t)numComputeUnits);
; 1155 : 				printf(    "  Clock Frequency:          %dMHz\n",     (int32_t)clockFrequency);
; 1156 : 				printf(    "  Global Memory Size:       %dM bytes\n", (int32_t)(globalMemorySize / 1024 / 1024));
; 1157 : 				printf(    "  Max. Work Group Size:     %d\n",        (int32_t)maxWorkGroupSize);
; 1158 : 				printf(    "  Version:                  %s\n",        deviceVersion);
; 1159 : 				printf(    "  Driver Version:           %s\n",        driverVersion);
; 1160 : 				printf("\n");
; 1161 : 			}
; 1162 : 			if (openCLRunChildProcesses) {
; 1163 : 				numOpenCLDeviceSearchThreads += options.openCLNumProcesses;
; 1164 : 			} else {
; 1165 : 				numOpenCLDeviceSearchThreads += options.openCLNumThreads;
; 1166 : 			}
; 1167 : 		}
; 1168 : 	}
; 1169 : 
; 1170 : 	if (searchDevice == SEARCH_DEVICE_CPU || searchDevice == SEARCH_DEVICE_GPU_AND_CPU) {
; 1171 : 		SYSTEM_INFO sysInfo;
; 1172 : 		GetSystemInfo(&sysInfo);
; 1173 : #ifdef DEBUG_ONE_CPU_SEARCH_THREAD
; 1174 : 		numCPUSearchThreads = 1;
; 1175 : #else
; 1176 : 		if (options.numCPUSearchThreads == NUM_CPU_SEARCH_THREADS_NIL) { 
; 1177 : 			numCPUSearchThreads = sysInfo.dwNumberOfProcessors;
; 1178 : 			if (searchDevice == SEARCH_DEVICE_GPU_AND_CPU)
; 1179 : 				numCPUSearchThreads = (numCPUSearchThreads > numCUDADeviceSearchThreads + numOpenCLDeviceSearchThreads)
; 1180 : 										  ? (numCPUSearchThreads - numCUDADeviceSearchThreads - numOpenCLDeviceSearchThreads)
; 1181 : 										  : 0;
; 1182 : 		} else {
; 1183 : 			numCPUSearchThreads = (options.numCPUSearchThreads < sysInfo.dwNumberOfProcessors) ? options.numCPUSearchThreads : sysInfo.dwNumberOfProcessors;
; 1184 : 		}
; 1185 : #endif
; 1186 : 		if (searchDevice == SEARCH_DEVICE_GPU_AND_CPU && numCPUSearchThreads <= 0) {
; 1187 : 			searchDevice = SEARCH_DEVICE_GPU;
; 1188 : 		} else 	if (displayDeviceInformation) {
; 1189 : 			int32_t results[4];
; 1190 : 			__cpuid(results, 1);
; 1191 : 
; 1192 : 			printf("CPU\n");
; 1193 : 			printf("===\n");
; 1194 : 			if (IsCPUBasedOnNehalemMicroarchitecture()) {
; 1195 : 				printf("  Processor Info:           0x%06x (Nehalem)\n", results[0]);
; 1196 : 			} else {
; 1197 : 				printf("  Processor Info:           0x%06x\n", results[0]);
; 1198 : 			}
; 1199 : 			printf("  Number of Logical Cores:  %d\n", sysInfo.dwNumberOfProcessors);
; 1200 : 			printf("  Number of Search Threads: %d\n", numCPUSearchThreads);
; 1201 : 			printf("\n");
; 1202 : 		}
; 1203 : 	}
; 1204 : }
; 1205 : 
; 1206 : void ObtainOptions(int32_t argCount, char **arguments)
; 1207 : {
; 1208 : 	int32_t i;
; 1209 : 	
; 1210 : 	// Get the application path and directory.
; 1211 : 	// strcpy(applicationPath,      arguments[0]);
; 1212 : 	_fullpath(applicationPath, arguments[0], sizeof(applicationPath));
; 1213 : 	strcpy(applicationDirectory, applicationPath);
; 1214 : 	for (i = strlen(applicationPath) - 1; i > 0; --i) {
; 1215 : 		if (applicationDirectory[i] == '\\')
; 1216 : 			break;
; 1217 : 	}
; 1218 : 	if (i < 0)
; 1219 : 		i = 0;
; 1220 : 	applicationDirectory[i] = '\0';
; 1221 : #if FALSE
; 1222 : 	printf("arguments[0]         = \'%s\'\n", arguments[0]);
; 1223 : 	printf("applicationPath      = \'%s\'\n", applicationPath);
; 1224 : 	printf("applicationDirectory = \'%s\'\n", applicationDirectory);
; 1225 : #endif
; 1226 : 
; 1227 : 	// Set default values if necessary.	
; 1228 : 	strncpy(tripcodeFilePath, DEFAULT_NAME_TRIPCODE_FILE, sizeof(tripcodeFilePath));
; 1229 : 
; 1230 : 	for (int32_t indexArg = 1; indexArg < argCount; ++indexArg) {
; 1231 : 		if (strcmp(arguments[indexArg], "-o") == 0 && indexArg + 1 < argCount) {
; 1232 : 			++indexArg;
; 1233 : 			ERROR1(strlen(arguments[indexArg]) + 1 > sizeof(tripcodeFilePath),
; 1234 : 			       ERROR_TRIPCODE_FILE,
; 1235 : 			       "The path of the tripcode file `%s' is too long.",
; 1236 : 			       arguments[indexArg]);
; 1237 : 			strcpy(tripcodeFilePath, arguments[indexArg]);
; 1238 : 
; 1239 : 		} else if (strcmp(arguments[indexArg], "-f") == 0 && indexArg + 1 < argCount) {
; 1240 : 			++indexArg;
; 1241 : 			ERROR1(strlen(arguments[indexArg]) > MAX_LEN_FILE_PATH,
; 1242 : 			       ERROR_PATTERN_FILE,
; 1243 : 			       "The path of the pattern file `%s' is too long.",
; 1244 : 			       arguments[indexArg]);
; 1245 : 			ERROR0(numPatternFiles >= MAX_NUM_PATTERN_FILES, ERROR_PATTERN_FILE, "Too many pattern files were specified.");
; 1246 : 			strcpy(patternFilePathArray[numPatternFiles++], arguments[indexArg]);
; 1247 : 
; 1248 : 		} else if (strcmp(arguments[indexArg], "-d") == 0 && indexArg + 1 < argCount) {
; 1249 : 			options.GPUIndex = atoi(arguments[++indexArg]);
; 1250 : 
; 1251 : 		} else if (strcmp(arguments[indexArg], "-x") == 0 && indexArg + 1 < argCount) {
; 1252 : 			options.CUDANumBlocksPerSM = atoi(arguments[++indexArg]);
; 1253 : 			ERROR1(options.CUDANumBlocksPerSM < CUDA_MIN_NUM_BLOCKS_PER_SM,
; 1254 : 			       ERROR_INVALID_OPTION,
; 1255 : 				   "The number of blocks per SM must be at least %d.", CUDA_MIN_NUM_BLOCKS_PER_SM);
; 1256 : 			ERROR1(options.CUDANumBlocksPerSM > CUDA_MAX_NUM_BLOCKS_PER_SM,
; 1257 : 			       ERROR_INVALID_OPTION,
; 1258 : 				   "The number of blocks per SM cannot exceed %d.",    CUDA_MAX_NUM_BLOCKS_PER_SM);
; 1259 : 
; 1260 : 		} else if (strcmp(arguments[indexArg], "-y") == 0 && indexArg + 1 < argCount) {
; 1261 : 			options.openCLNumWorkItemsPerCU = atoi(arguments[++indexArg]);
; 1262 : 			ERROR1(options.openCLNumWorkItemsPerCU < OPENCL_MIN_NUM_WORK_ITEMS_PER_CU,
; 1263 : 			       ERROR_INVALID_OPTION,
; 1264 : 				   "The number of work items per CU must be at least %d.", OPENCL_MIN_NUM_WORK_ITEMS_PER_CU);
; 1265 : 			ERROR1(options.openCLNumWorkItemsPerCU > OPENCL_MAX_NUM_WORK_ITEMS_PER_CU,
; 1266 : 			       ERROR_INVALID_OPTION,
; 1267 : 				   "The number of work items per CU cannot exceed %d.", OPENCL_MAX_NUM_WORK_ITEMS_PER_CU);
; 1268 : 
; 1269 : 		} else if (strcmp(arguments[indexArg], "-z") == 0 && indexArg + 1 < argCount) {
; 1270 : 			options.openCLNumWorkItemsPerWG = atoi(arguments[++indexArg]);
; 1271 : 			ERROR1(options.openCLNumWorkItemsPerWG < OPENCL_MIN_NUM_WORK_ITEMS_PER_WG,
; 1272 : 			       ERROR_INVALID_OPTION,
; 1273 : 				   "The number of work items per WG must be at least %d.", OPENCL_MIN_NUM_WORK_ITEMS_PER_WG);
; 1274 : 			ERROR1(options.openCLNumWorkItemsPerWG > OPENCL_MAX_NUM_WORK_ITEMS_PER_WG,
; 1275 : 			       ERROR_INVALID_OPTION,
; 1276 : 				   "The number of work items per WG cannot exceed %d.",    OPENCL_MAX_NUM_WORK_ITEMS_PER_WG);
; 1277 : 			ERROR0(options.openCLNumWorkItemsPerWG % 8 != 0,
; 1278 : 			       ERROR_INVALID_OPTION,
; 1279 : 				   "The number of work items per WG must be a multiple of 8.");
; 1280 : 
; 1281 : 		} else if (strcmp(arguments[indexArg], "-a") == 0 && indexArg + 1 < argCount) {
; 1282 : 			options.openCLNumThreads = atoi(arguments[++indexArg]);
; 1283 : 			ERROR1(options.openCLNumThreads < OPENCL_MIN_NUM_THREADS_PER_AMD_GPU,
; 1284 : 			       ERROR_INVALID_OPTION,
; 1285 : 				   "The number of threads per AMD GPU must be at least %d.", OPENCL_MIN_NUM_THREADS_PER_AMD_GPU);
; 1286 : 			ERROR1(options.openCLNumThreads > OPENCL_MAX_NUM_THREADS_PER_AMD_GPU,
; 1287 : 			       ERROR_INVALID_OPTION,
; 1288 : 				   "The number of threads per AMD GPU cannot exceed %d.",    OPENCL_MAX_NUM_THREADS_PER_AMD_GPU);
; 1289 : 
; 1290 : 
; 1291 : 		} else if (strcmp(arguments[indexArg], "-b") == 0 && indexArg + 1 < argCount) {
; 1292 : 			options.openCLNumProcesses = atoi(arguments[++indexArg]);
; 1293 : 			ERROR1(options.openCLNumProcesses < OPENCL_MIN_NUM_PROCESSES_PER_AMD_GPU,
; 1294 : 			       ERROR_INVALID_OPTION,
; 1295 : 				   "The number of processes per AMD GPU must be at least %d.", OPENCL_MIN_NUM_PROCESSES_PER_AMD_GPU);
; 1296 : 			ERROR1(options.openCLNumProcesses > OPENCL_MAX_NUM_PROCESSES_PER_AMD_GPU,
; 1297 : 			       ERROR_INVALID_OPTION,
; 1298 : 				   "The number of processes per AMD GPU cannot exceed %d.",    OPENCL_MAX_NUM_PROCESSES_PER_AMD_GPU);
; 1299 : 
; 1300 : 		} else if (strcmp(arguments[indexArg], "-l") == 0 && indexArg + 1 < argCount) {
; 1301 : 			lenTripcode    = atoi(arguments[++indexArg]);
; 1302 : 			lenTripcodeKey = lenTripcode;
; 1303 : 			ERROR0(lenTripcode != 10 && lenTripcode != 12,
; 1304 : 			       ERROR_INVALID_OPTION,
; 1305 : 			       "The length of tripcodes must be either 10 or 12.");
; 1306 : 
; 1307 : 		} else if (strcmp(arguments[indexArg], "-b") == 0) {
; 1308 : 			options.beepWhenNewTripcodeIsFound = TRUE;
; 1309 : 
; 1310 : 		} else if (strcmp(arguments[indexArg], "-i") == 0) {
; 1311 : 			options.outputInvalidTripcode = TRUE;
; 1312 : 
; 1313 : 		} else if (strcmp(arguments[indexArg], "-w") == 0) {
; 1314 : 			options.warnSpeedDrop= TRUE;
; 1315 : 
; 1316 : 		} else if (strcmp(arguments[indexArg], "-n") == 0) {
; 1317 : 			options.testNewCode = TRUE;
; 1318 : 
; 1319 : 		} else if (strcmp(arguments[indexArg], "-c") == 0) {
; 1320 : 			options.searchDevice = (options.searchDevice == SEARCH_DEVICE_NIL ) ? (SEARCH_DEVICE_CPU)          :
; 1321 : 			                       (options.searchDevice == SEARCH_DEVICE_GPU) ? (SEARCH_DEVICE_GPU_AND_CPU) :
; 1322 : 			                                                                      (options.searchDevice);
; 1323 : 
; 1324 : 		} else if (strcmp(arguments[indexArg], "-g") == 0) {
; 1325 : 			options.searchDevice = (options.searchDevice == SEARCH_DEVICE_NIL)  ? (SEARCH_DEVICE_GPU)         :
; 1326 : 			                       (options.searchDevice == SEARCH_DEVICE_CPU)  ? (SEARCH_DEVICE_GPU_AND_CPU) :
; 1327 : 			                                                                      (options.searchDevice);
; 1328 : 
; 1329 : 		} else if (strcmp(arguments[indexArg], "-t") == 0 && indexArg + 1 < argCount) {
; 1330 : 			options.numCPUSearchThreads = atoi(arguments[++indexArg]);
; 1331 : 			ERROR0(options.numCPUSearchThreads <= 0,
; 1332 : 			       ERROR_INVALID_OPTION,
; 1333 : 			       "The number of CPU search threads must be at least 1.");
; 1334 : 
; 1335 : 		} else if (strcmp(arguments[indexArg], "--output-for-redirection") == 0) {
; 1336 : 			options.redirection = TRUE;
; 1337 : 
; 1338 : 		} else if (strcmp(arguments[indexArg], "-e") == 0 && indexArg + 1 < argCount) {
; 1339 : 			++indexArg;
; 1340 : 			strcpy(nameMutexForPausing, arguments[indexArg]);
; 1341 : 			int32_t len = MultiByteToWideChar(CP_ACP, 0, arguments[indexArg], -1, nameMutexForPausingWC, MAX_LEN_INPUT_LINE);
; 1342 : 			if (len < 0) {
; 1343 : 				len = 0;
; 1344 : 			} else if (len <= MAX_LEN_INPUT_LINE) {
; 1345 : 				nameMutexForPausingWC[len] = 0;
; 1346 : 			}
; 1347 : 			nameMutexForPausingWC[MAX_LEN_INPUT_LINE] = 0;
; 1348 : 
; 1349 : 		} else if (strcmp(arguments[indexArg], "-E") == 0 && indexArg + 1 < argCount) {
; 1350 : 			++indexArg;
; 1351 : 			strcpy(nameEventForTerminating, arguments[indexArg]);
; 1352 : 			int32_t len = MultiByteToWideChar(CP_ACP, 0, arguments[indexArg], -1, nameEventForTerminatingWC, MAX_LEN_INPUT_LINE);
; 1353 : 			if (len < 0) {
; 1354 : 				len = 0;
; 1355 : 			} else if (len <= MAX_LEN_INPUT_LINE) {
; 1356 : 				nameEventForTerminatingWC[len] = 0;
; 1357 : 			}
; 1358 : 			nameEventForTerminatingWC[MAX_LEN_INPUT_LINE] = 0;
; 1359 : 
; 1360 : 		} else if (strcmp(arguments[indexArg], "--use-one-byte-characters-for-keys") == 0) {
; 1361 : 			options.useOneByteCharactersForKeys = TRUE;
; 1362 : 
; 1363 : 		} else if (strcmp(arguments[indexArg], "--search-for-hiseki-on-cpu") == 0) {
; 1364 : 			options.searchForHisekiOnCPU = TRUE;
; 1365 : 
; 1366 : 		} else if (strcmp(arguments[indexArg], "--search-for-kakuhi-on-cpu") == 0) {
; 1367 : 			options.searchForKakuhiOnCPU = TRUE;
; 1368 : 
; 1369 : 		} else if (strcmp(arguments[indexArg], "--search-for-kaibun-on-cpu") == 0) {
; 1370 : 			options.searchForKaibunOnCPU = TRUE;
; 1371 : 
; 1372 : 		} else if (strcmp(arguments[indexArg], "--search-for-kagami-on-cpu") == 0) {
; 1373 : 			options.searchForKagamiOnCPU = TRUE;
; 1374 : 
; 1375 : 		} else if (strcmp(arguments[indexArg], "--search-for-yamabiko-on-cpu") == 0) {
; 1376 : 			options.searchForYamabikoOnCPU = TRUE;
; 1377 : 
; 1378 : 		} else if (strcmp(arguments[indexArg], "--search-for-souren-on-cpu") == 0) {
; 1379 : 			options.searchForSourenOnCPU = TRUE;
; 1380 : 			
; 1381 : 		} else if (strcmp(arguments[indexArg], "--use-opencl-for-cuda-devices") == 0) {
; 1382 : 			options.useOpenCLForCUDADevices = TRUE;
; 1383 : 
; 1384 : 		} else if (strcmp(arguments[indexArg], "--disable-avx") == 0) {
; 1385 : 			options.isAVXEnabled = FALSE;
; 1386 : 
; 1387 : 		} else if (strcmp(arguments[indexArg], "--disable-avx2") == 0) {
; 1388 : 			options.isAVX2Enabled = FALSE;
; 1389 : 
; 1390 : 		} else if (strcmp(arguments[indexArg], "--use-one-byte-characters-for-keys") == 0) {
; 1391 : 			options.useOnlyASCIICharactersForKeys = FALSE;
; 1392 : 			options.useOneByteCharactersForKeys = TRUE;
; 1393 : 
; 1394 : 		} else if (strcmp(arguments[indexArg], "--use-ascii-characters-for-keys") == 0) {
; 1395 : 			options.useOnlyASCIICharactersForKeys = TRUE;
; 1396 : 			options.useOneByteCharactersForKeys = TRUE;
; 1397 : 
; 1398 : 		} else if (strcmp(arguments[indexArg], "--use-one-and-two-byte-characters-for-keys") == 0) {
; 1399 : 			options.useOneByteCharactersForKeys = FALSE;
; 1400 : 			options.useOnlyASCIICharactersForKeys = FALSE;
; 1401 : 
; 1402 : 		} else if (strcmp(arguments[indexArg], "--maximize-key-space") == 0) {
; 1403 : 			options.useOneByteCharactersForKeys = FALSE;
; 1404 : 			options.useOnlyASCIICharactersForKeys = FALSE;
; 1405 : 			options.maximizeKeySpace = TRUE;
; 1406 : 
; 1407 : 		} else if (strcmp(arguments[indexArg], "--disable-tripcode-checks") == 0) {
; 1408 : 			options.checkTripcodes = FALSE;
; 1409 : 
; 1410 : 		} else if (strcmp(arguments[indexArg], "--disable-gcn-assembler") == 0) {
; 1411 : 			options.enableGCNAssembler = FALSE;
; 1412 : 
; 1413 : 		} else if (   strcmp(arguments[indexArg], "--display-device-information") == 0
; 1414 : 			       || strcmp(arguments[indexArg], "--list-expanded-patterns"    ) == 0
; 1415 : 				   || strcmp(arguments[indexArg], "--gpu-list"                  ) == 0) {
; 1416 : 			// Ignore the option.
; 1417 : 
; 1418 : 		} else {
; 1419 : 			ERROR0(TRUE, ERROR_INVALID_OPTION, "An invalid option was specified.");
; 1420 : 		}
; 1421 : 	}
; 1422 : 
; 1423 : 	if (numPatternFiles <= 0) {
; 1424 : 		strcpy(patternFilePathArray[0], DEFAULT_NAME_PATTERN_FILE);
; 1425 : 		numPatternFiles = 1;
; 1426 : 	}
; 1427 : }
; 1428 : 
; 1429 : void ProcessValidTripcodePair(unsigned char *tripcode, unsigned char *key)
; 1430 : {
; 1431 : 	ASSERT(lenTripcode    == 10 || lenTripcode    == 12);
; 1432 : 	ASSERT(lenTripcodeKey == 10 || lenTripcodeKey == 12);
; 1433 : 	
; 1434 : 	process_tripcode_pair_spinlock.lock();
; 1435 : 	if (!options.redirection) {
; 1436 : #ifdef ENGLISH_VERSION
; 1437 : 		fprintf(tripcodeFile, "!");
; 1438 : #else
; 1439 : 		fprintf(tripcodeFile, "%c%c", 0x81, 0x9f);
; 1440 : #endif
; 1441 : 		for (int32_t i = 0; i < lenTripcode; ++i)
; 1442 : 			fprintf(tripcodeFile, "%c", tripcode[i]);
; 1443 : 		fprintf(tripcodeFile, " #");
; 1444 : 		for (int32_t i = 0; i < lenTripcodeKey; ++i)
; 1445 : 			fprintf(tripcodeFile, "%c", key[i]);
; 1446 : 		fprintf(tripcodeFile, " (");
; 1447 : 		for (int32_t i = 0; i < lenTripcodeKey; ++i) {
; 1448 : 			fprintf(tripcodeFile, "%02X", key[i]);
; 1449 : 			if (i + 1 < lenTripcodeKey)
; 1450 : 				fprintf(tripcodeFile, " ");
; 1451 : 		}
; 1452 : 		fprintf(tripcodeFile, ")\n");
; 1453 : 		fflush(tripcodeFile);
; 1454 : 	}  
; 1455 : 
; 1456 : 	if (!options.redirection && !GetTerminationState() && !GetErrorState()) {
; 1457 : #ifdef ENGLISH_VERSION
; 1458 : 		printf("  !");
; 1459 : #else
; 1460 : 		printf("  %c%c", 0x81, 0x9f);
; 1461 : #endif
; 1462 : 		for (int32_t i = 0; i < lenTripcode; ++i)
; 1463 : 			printf("%c", tripcode[i]);
; 1464 : 		printf(" #");
; 1465 : 		for (int32_t i = 0; i < lenTripcodeKey; ++i)
; 1466 : 			printf("%c", key[i]);
; 1467 : 		printf(" (");
; 1468 : 		for (int32_t i = 0; i < lenTripcodeKey; ++i) {
; 1469 : 			printf("%02X", key[i]);
; 1470 : 			if (i + 1 < lenTripcodeKey)
; 1471 : 				printf(" ");
; 1472 : 		}
; 1473 : 		printf(")");
; 1474 : 		for (int32_t i = 4 + lenTripcode + 2 + lenTripcodeKey + 2 + lenTripcodeKey * 3;
; 1475 : 			i < SCREEN_WIDTH - 1;
; 1476 : 			++i) {
; 1477 : 			printf(" ");
; 1478 : 		}
; 1479 : 		printf("\n");
; 1480 : 	} else if (options.redirection) {
; 1481 : 		printf("[tripcode],%c%c", 0x81, 0x9f);
; 1482 : 		for (int32_t i = 0; i < lenTripcode; ++i)
; 1483 : 			printf("%c", tripcode[i]);
; 1484 : 		printf(",#");
; 1485 : 		for (int32_t i = 0; i < lenTripcodeKey; ++i)
; 1486 : 			printf("%c", key[i]);
; 1487 : 		printf(",(");
; 1488 : 		for (int32_t i = 0; i < lenTripcodeKey; ++i) {
; 1489 : 			printf("%02X", key[i]);
; 1490 : 			if (i + 1 < lenTripcodeKey)
; 1491 : 				printf(" ");
; 1492 : 		}
; 1493 : 		printf(")\n");
; 1494 : 	}
; 1495 : 	fflush(stdout);
; 1496 : 	process_tripcode_pair_spinlock.unlock();
; 1497 : 
; 1498 : 	current_state_spinlock.lock();
; 1499 : 	++numValidTripcodes;
; 1500 : 	current_state_spinlock.unlock();
; 1501 : 
; 1502 : 	if (!options.redirection)
; 1503 : 		PrintStatus();
; 1504 : 	if (!options.redirection && options.beepWhenNewTripcodeIsFound)
; 1505 : 		printf("\a");
; 1506 : }
; 1507 : 
; 1508 : void ProcessInvalidTripcodePair(unsigned char *tripcode, unsigned char *key)
; 1509 : {
; 1510 : 	process_tripcode_pair_spinlock.lock();
; 1511 : 	if (options.outputInvalidTripcode && !options.redirection && !GetTerminationState() && !GetErrorState()) {
; 1512 : #ifdef ENGLISH_VERSION
; 1513 : 		fprintf(tripcodeFile, "!");
; 1514 : #else
; 1515 : 		fprintf(tripcodeFile, "%c%c", 0x81, 0x9f);
; 1516 : #endif
; 1517 : 		for (int32_t i = 0; i < lenTripcode; ++i)
; 1518 : 			fprintf(tripcodeFile, "%c", tripcode[i]);
; 1519 : 		fprintf(tripcodeFile, "  ");
; 1520 : 		for (int32_t i = 0; i < lenTripcodeKey; ++i)
; 1521 : 			fprintf(tripcodeFile, " ");
; 1522 : 		fprintf(tripcodeFile, " (");
; 1523 : 		for (int32_t i = 0; i < lenTripcodeKey; ++i) {
; 1524 : 			fprintf(tripcodeFile, "%02X", key[i]);
; 1525 : 			if (i + 1 < lenTripcodeKey)
; 1526 : 				fprintf(tripcodeFile, " ");
; 1527 : 		}
; 1528 : 		fprintf(tripcodeFile, ")\n");
; 1529 : 		fflush(tripcodeFile);
; 1530 : 
; 1531 : #ifdef ENGLISH_VERSION
; 1532 : 		printf("  !");
; 1533 : #else
; 1534 : 		printf("  %c%c", 0x81, 0x9f);
; 1535 : #endif
; 1536 : 		for (int32_t i = 0; i < lenTripcode; ++i)
; 1537 : 			printf("%c", tripcode[i]);
; 1538 : 		printf("  ");
; 1539 : 		for (int32_t i = 0; i < lenTripcodeKey; ++i)
; 1540 : 			printf(" ");
; 1541 : 		printf(" (");
; 1542 : 		for (int32_t i = 0; i < lenTripcodeKey; ++i) {
; 1543 : 			printf("%02X", key[i]);
; 1544 : 			if (i + 1 < lenTripcodeKey)
; 1545 : 				printf(" ");
; 1546 : 		}
; 1547 : 		printf(")");
; 1548 : 		for (int32_t i = 4 + lenTripcode + 2 + lenTripcodeKey + 2 + lenTripcodeKey * 3;
; 1549 : 			i < SCREEN_WIDTH - 1;
; 1550 : 			++i) {
; 1551 : 			printf(" ");
; 1552 : 		}
; 1553 : 		printf("\n");
; 1554 : 		fflush(stdout);
; 1555 : 	}
; 1556 : 	process_tripcode_pair_spinlock.unlock();
; 1557 : 
; 1558 : 	current_state_spinlock.lock();
; 1559 : 	++numDiscardedTripcodes;
; 1560 : 	current_state_spinlock.unlock();
; 1561 : 
; 1562 : 	if (options.outputInvalidTripcode && !options.redirection && !GetTerminationState() && !GetErrorState())
; 1563 : 		PrintStatus();
; 1564 : }
; 1565 : 
; 1566 : void OpenTripcodeFile()
; 1567 : {
; 1568 : 	tripcodeFile = fopen(tripcodeFilePath, "a");
; 1569 : 	ERROR0(tripcodeFilePath == NULL, ERROR_TRIPCODE_FILE, "The output file cannot be opened.");
; 1570 : }
; 1571 : 
; 1572 : void AddToNumGeneratedTripcodesByCPU(uint32_t num)
; 1573 : {
; 1574 : 	num_generated_tripcodes_spinlock.lock();
; 1575 : 	numGeneratedTripcodes_CPU += num;
; 1576 : 	if (numGeneratedTripcodes_CPU >= 1000000) {
; 1577 : 		numGeneratedTripcodesByCPUInMillions += numGeneratedTripcodes_CPU / 1000000;
; 1578 : 		numGeneratedTripcodes_CPU           %= 1000000;
; 1579 : 	}
; 1580 : 	num_generated_tripcodes_spinlock.unlock();
; 1581 : }
; 1582 : 
; 1583 : void AddToNumGeneratedTripcodesByGPU(uint32_t num)
; 1584 : {
; 1585 : 	num_generated_tripcodes_spinlock.lock();
; 1586 : 	numGeneratedTripcodes_GPU += num;
; 1587 : 	if (numGeneratedTripcodes_GPU >= 1000000) {
; 1588 : 		numGeneratedTripcodesByGPUInMillions += numGeneratedTripcodes_GPU / 1000000;
; 1589 : 		numGeneratedTripcodes_GPU           %= 1000000;
; 1590 : 	}
; 1591 : 	num_generated_tripcodes_spinlock.unlock();
; 1592 : }
; 1593 : 
; 1594 : double GetNumGeneratedTripcodesByCPU()
; 1595 : {
; 1596 : 	num_generated_tripcodes_spinlock.lock();
; 1597 : 
; 1598 : 	double ret =   (double)numGeneratedTripcodesByCPUInMillions * 1000000
; 1599 : 	             +         numGeneratedTripcodes_CPU;
; 1600 : 	numGeneratedTripcodesByCPUInMillions = 0;
; 1601 : 	numGeneratedTripcodes_CPU           = 0;
; 1602 : 
; 1603 : 	num_generated_tripcodes_spinlock.unlock();
; 1604 : 	
; 1605 : 	return ret;
; 1606 : }
; 1607 : 
; 1608 : double GetNumGeneratedTripcodesByGPU()
; 1609 : {
; 1610 : 	num_generated_tripcodes_spinlock.lock();
; 1611 : 
; 1612 : 	double ret =   (double)numGeneratedTripcodesByGPUInMillions * 1000000
; 1613 : 	             +         numGeneratedTripcodes_GPU;
; 1614 : 	numGeneratedTripcodesByGPUInMillions = 0;
; 1615 : 	numGeneratedTripcodes_GPU           = 0;
; 1616 : 
; 1617 : 	num_generated_tripcodes_spinlock.unlock();
; 1618 : 	
; 1619 : 	return ret;
; 1620 : }
; 1621 : 
; 1622 : void SetPauseState(BOOL newPauseState)
; 1623 : {
; 1624 : 	current_state_spinlock.lock();
; 1625 : 	isSearchPaused = newPauseState;
; 1626 : 	current_state_spinlock.unlock();
; 1627 : }
; 1628 : 
; 1629 : BOOL GetPauseState()
; 1630 : {
; 1631 : 	BOOL ret;
; 1632 : 	current_state_spinlock.lock();
; 1633 : 	ret = isSearchPaused;
; 1634 : 	current_state_spinlock.unlock();
; 1635 : 	return ret;
; 1636 : }
; 1637 : 
; 1638 : void SetErrorState()
; 1639 : {
; 1640 : 	current_state_spinlock.lock();
; 1641 : 	wasSearchAbortedWithError = TRUE;
; 1642 : 	current_state_spinlock.unlock();
; 1643 : }
; 1644 : 
; 1645 : BOOL GetErrorState()
; 1646 : {
; 1647 : 	BOOL ret;
; 1648 : 	current_state_spinlock.lock();
; 1649 : 	ret = wasSearchAbortedWithError;
; 1650 : 	current_state_spinlock.unlock();
; 1651 : 	return ret;
; 1652 : }
; 1653 : 
; 1654 : void SetTerminationState()
; 1655 : {
; 1656 : 	current_state_spinlock.lock();
; 1657 : 	wasSearchTerminated = TRUE;
; 1658 : 	current_state_spinlock.unlock();
; 1659 : }
; 1660 : 
; 1661 : BOOL GetTerminationState()
; 1662 : {
; 1663 : 	BOOL ret;
; 1664 : 
; 1665 : 	current_state_spinlock.lock();
; 1666 : 
; 1667 : 	// Prepare for termination.
; 1668 : 	if (options.redirection && nameEventForTerminatingWC[0] != 0x0 && eventForTerminating == NULL) {
; 1669 : 		eventForTerminating = OpenEvent(EVENT_ALL_ACCESS, false, nameEventForTerminatingWC);
; 1670 : 		ERROR0(!eventForTerminating, ERROR_EVENT, "Failed to open an event.") 
; 1671 : 	}
; 1672 : 
; 1673 : 	// Check to see if a termination event has occured.
; 1674 : 	if (eventForTerminating && WaitForSingleObject(eventForTerminating, 0) == WAIT_OBJECT_0)
; 1675 : 		wasSearchTerminated = true;
; 1676 : 
; 1677 : 	ret = wasSearchTerminated;
; 1678 : 
; 1679 : 	current_state_spinlock.unlock();
; 1680 : 
; 1681 : 	return ret;
; 1682 : }
; 1683 : 
; 1684 : double UpdateCurrentStatus(uint64_t startingTime)
; 1685 : {
; 1686 : 	current_state_spinlock.lock();
; 1687 : 	
; 1688 : 	double numGeneratedTripcodes_GPU = GetNumGeneratedTripcodesByGPU();
; 1689 : 	double numGeneratedTripcodes_CPU = GetNumGeneratedTripcodesByCPU();
; 1690 : 	uint64_t  endingTime = TIME_SINCE_EPOCH_IN_MILLISECONDS;
; 1691 : 	double deltaTime = (endingTime - startingTime             ) * 0.001;
; 1692 : 
; 1693 : 	totalNumGeneratedTripcodes     += numGeneratedTripcodes_GPU + numGeneratedTripcodes_CPU;
; 1694 : 	totalNumGeneratedTripcodes_GPU += numGeneratedTripcodes_GPU;
; 1695 : 	totalNumGeneratedTripcodes_CPU += numGeneratedTripcodes_CPU;
; 1696 : 	totalTime += deltaTime;
; 1697 : 	currentSpeed_thisProcess     = ((double)(numGeneratedTripcodes_GPU + numGeneratedTripcodes_CPU) / deltaTime);
; 1698 : 	currentSpeed_thisProcess_GPU = ((double) numGeneratedTripcodes_GPU                              / deltaTime);
; 1699 : 	currentSpeed_CPU        = ((double)numGeneratedTripcodes_CPU        / deltaTime);
; 1700 : 	if (maximumSpeed < currentSpeed_thisProcess)
; 1701 : 		maximumSpeed = currentSpeed_thisProcess;
; 1702 : 	prevTotalNumGeneratedTripcodes     = totalNumGeneratedTripcodes;
; 1703 : 	prevTotalNumGeneratedTripcodes_GPU = totalNumGeneratedTripcodes_GPU;
; 1704 : 	prevTotalNumGeneratedTripcodes_CPU = totalNumGeneratedTripcodes_CPU;
; 1705 : 	prevNumValidTripcodes     = numValidTripcodes;
; 1706 : 	prevNumDiscardedTripcodes = numDiscardedTripcodes;
; 1707 : 
; 1708 : 	current_state_spinlock.unlock();
; 1709 : 
; 1710 : 	return deltaTime;
; 1711 : }
; 1712 : 
; 1713 : BOOL IsFirstByteSJIS(unsigned char ch)
; 1714 : {
; 1715 : 	if (options.maximizeKeySpace) {

	test	ecx, ecx
	je	SHORT $LN102@SetCharact

; 1716 : 		return IS_FIRST_BYTE_SJIS_FULL(ch);

	cmp	al, 129					; 00000081H
	jb	SHORT $LN105@SetCharact
	cmp	al, 132					; 00000084H
	jbe	SHORT $LN143@SetCharact
$LN105@SetCharact:
	cmp	al, 136					; 00000088H
	jb	SHORT $LN106@SetCharact
	cmp	al, 159					; 0000009fH
	jbe	SHORT $LN143@SetCharact
$LN106@SetCharact:
	add	al, 32					; 00000020H
	cmp	al, 10					; 0000000aH
	jmp	SHORT $LN156@SetCharact
$LN102@SetCharact:

; 1717 : 	} else {
; 1718 : 		return IS_FIRST_BYTE_SJIS_CONSERVATIVE(ch);

	cmp	al, 137					; 00000089H
	jb	SHORT $LN110@SetCharact
	cmp	al, 151					; 00000097H
	jbe	SHORT $LN143@SetCharact
$LN110@SetCharact:
	cmp	al, 153					; 00000099H
	jb	SHORT $LN111@SetCharact
	cmp	al, 159					; 0000009fH
	jbe	SHORT $LN143@SetCharact
$LN111@SetCharact:
	add	al, 32					; 00000020H
	cmp	al, 9
$LN156@SetCharact:
	ja	$LN45@SetCharact
$LN143@SetCharact:

; 1744 : 					isSecondByteSJIS = TRUE;

	mov	esi, 1

; 1745 : 			} else {

	jmp	$LN45@SetCharact
$LN43@SetCharact:

; 229  : 	rand_s(&randomValue);

	lea	eax, DWORD PTR _randomValue$2[ebp]
	push	eax
	call	_rand_s

; 1746 : 				key[i] = (unsigned char)(RandomByte() & 0xff);

	mov	al, BYTE PTR _randomValue$2[ebp]
$LN169@SetCharact:

; 229  : 	rand_s(&randomValue);

	add	esp, 4

; 1746 : 				key[i] = (unsigned char)(RandomByte() & 0xff);

	mov	BYTE PTR [edi+ebx], al

; 1747 : 				while ((i == 0 && (key[i] == '#' || key[i] == '$')) || !IS_SECOND_BYTE_SJIS(key[i]) || !IS_VALID_SJIS_CHAR(key[i - 1], key[i]))

	test	edi, edi
	jne	SHORT $LN29@SetCharact
	mov	al, BYTE PTR [ebx]
	cmp	al, 35					; 00000023H
	je	$LN20@SetCharact
	cmp	al, 36					; 00000024H
	je	$LN20@SetCharact
$LN29@SetCharact:
	mov	al, BYTE PTR [edi+ebx]
	cmp	al, 64					; 00000040H
	jb	SHORT $LN27@SetCharact
	cmp	al, 126					; 0000007eH
	jbe	SHORT $LN28@SetCharact
$LN27@SetCharact:
	cmp	al, 129					; 00000081H
	jb	$LN20@SetCharact
	cmp	al, 252					; 000000fcH
	ja	$LN20@SetCharact
$LN28@SetCharact:
	mov	cl, BYTE PTR [edi+ebx-1]
	cmp	cl, 129					; 00000081H
	jb	SHORT $LN24@SetCharact
	cmp	cl, 132					; 00000084H
	jbe	SHORT $LN25@SetCharact
$LN24@SetCharact:
	cmp	cl, 136					; 00000088H
	jb	SHORT $LN23@SetCharact
	cmp	cl, 159					; 0000009fH
	jbe	SHORT $LN25@SetCharact
$LN23@SetCharact:
	cmp	cl, 224					; 000000e0H
	jb	$LN20@SetCharact
	cmp	cl, 234					; 000000eaH
	ja	$LN20@SetCharact
$LN25@SetCharact:
	cmp	al, 64					; 00000040H
	jb	SHORT $LN21@SetCharact
	cmp	al, 126					; 0000007eH
	jbe	SHORT $LN22@SetCharact
$LN21@SetCharact:
	cmp	al, 129					; 00000081H
	jb	$LN20@SetCharact
	cmp	al, 252					; 000000fcH
	ja	$LN20@SetCharact
$LN22@SetCharact:
	cmp	cl, 129					; 00000081H
	jne	SHORT $LN15@SetCharact
	cmp	al, 173					; 000000adH
	jb	SHORT $LN19@SetCharact
	cmp	al, 183					; 000000b7H
	jbe	$LN20@SetCharact
$LN19@SetCharact:
	cmp	cl, 129					; 00000081H
	jne	SHORT $LN15@SetCharact
	cmp	al, 192					; 000000c0H
	jb	SHORT $LN18@SetCharact
	cmp	al, 199					; 000000c7H
	jbe	$LN20@SetCharact
$LN18@SetCharact:
	cmp	cl, 129					; 00000081H
	jne	SHORT $LN15@SetCharact
	cmp	al, 207					; 000000cfH
	jb	SHORT $LN17@SetCharact
	cmp	al, 217					; 000000d9H
	jbe	$LN20@SetCharact
$LN17@SetCharact:
	cmp	cl, 129					; 00000081H
	jne	SHORT $LN15@SetCharact
	cmp	al, 233					; 000000e9H
	jb	SHORT $LN16@SetCharact
	cmp	al, 239					; 000000efH
	jbe	$LN20@SetCharact
$LN16@SetCharact:
	cmp	cl, 129					; 00000081H
	jne	SHORT $LN15@SetCharact
	cmp	al, 248					; 000000f8H
	jb	SHORT $LN15@SetCharact
	cmp	al, 251					; 000000fbH
	jbe	$LN20@SetCharact
$LN15@SetCharact:
	cmp	cl, 130					; 00000082H
	jne	SHORT $LN10@SetCharact
	cmp	al, 64					; 00000040H
	jb	SHORT $LN14@SetCharact
	cmp	al, 78					; 0000004eH
	jbe	$LN20@SetCharact
$LN14@SetCharact:
	cmp	cl, 130					; 00000082H
	jne	SHORT $LN10@SetCharact
	cmp	al, 89					; 00000059H
	jb	SHORT $LN13@SetCharact
	cmp	al, 95					; 0000005fH
	jbe	$LN20@SetCharact
$LN13@SetCharact:
	cmp	cl, 130					; 00000082H
	jne	SHORT $LN10@SetCharact
	cmp	al, 122					; 0000007aH
	jb	SHORT $LN12@SetCharact
	cmp	al, 128					; 00000080H
	jbe	$LN20@SetCharact
$LN12@SetCharact:
	cmp	cl, 130					; 00000082H
	jne	SHORT $LN10@SetCharact
	cmp	al, 155					; 0000009bH
	jb	SHORT $LN11@SetCharact
	cmp	al, 158					; 0000009eH
	jbe	$LN20@SetCharact
$LN11@SetCharact:
	cmp	cl, 130					; 00000082H
	jne	SHORT $LN10@SetCharact
	cmp	al, 242					; 000000f2H
	jb	SHORT $LN10@SetCharact
	cmp	al, 252					; 000000fcH
	jbe	SHORT $LN20@SetCharact
$LN10@SetCharact:
	cmp	cl, 131					; 00000083H
	jne	SHORT $LN7@SetCharact
	cmp	al, 151					; 00000097H
	jb	SHORT $LN9@SetCharact
	cmp	al, 158					; 0000009eH
	jbe	SHORT $LN20@SetCharact
$LN9@SetCharact:
	cmp	cl, 131					; 00000083H
	jne	SHORT $LN7@SetCharact
	cmp	al, 183					; 000000b7H
	jb	SHORT $LN8@SetCharact
	cmp	al, 190					; 000000beH
	jbe	SHORT $LN20@SetCharact
$LN8@SetCharact:
	cmp	cl, 131					; 00000083H
	jne	SHORT $LN7@SetCharact
	cmp	al, 215					; 000000d7H
	jb	SHORT $LN7@SetCharact
	cmp	al, 252					; 000000fcH
	jbe	SHORT $LN20@SetCharact
$LN7@SetCharact:
	cmp	cl, 132					; 00000084H
	jne	SHORT $LN4@SetCharact
	cmp	al, 97					; 00000061H
	jb	SHORT $LN6@SetCharact
	cmp	al, 111					; 0000006fH
	jbe	SHORT $LN20@SetCharact
$LN6@SetCharact:
	cmp	cl, 132					; 00000084H
	jne	SHORT $LN4@SetCharact
	cmp	al, 146					; 00000092H
	jb	SHORT $LN5@SetCharact
	cmp	al, 158					; 0000009eH
	jbe	SHORT $LN20@SetCharact
$LN5@SetCharact:
	cmp	cl, 132					; 00000084H
	jne	SHORT $LN4@SetCharact
	cmp	al, 191					; 000000bfH
	jb	SHORT $LN4@SetCharact
	cmp	al, 252					; 000000fcH
	jbe	SHORT $LN20@SetCharact
$LN4@SetCharact:
	cmp	cl, 136					; 00000088H
	jne	SHORT $LN3@SetCharact
	cmp	al, 64					; 00000040H
	jb	SHORT $LN3@SetCharact
	cmp	al, 158					; 0000009eH
	jbe	SHORT $LN20@SetCharact
$LN3@SetCharact:
	cmp	cl, 152					; 00000098H
	jne	SHORT $LN2@SetCharact
	cmp	al, 115					; 00000073H
	jb	SHORT $LN2@SetCharact
	cmp	al, 158					; 0000009eH
	jbe	SHORT $LN20@SetCharact
$LN2@SetCharact:
	cmp	cl, 234					; 000000eaH
	jne	SHORT $LN1@SetCharact
	cmp	al, 165					; 000000a5H
	jb	SHORT $LN1@SetCharact
	cmp	al, 252					; 000000fcH
	jbe	SHORT $LN20@SetCharact
$LN1@SetCharact:
	cmp	cl, 129					; 00000081H
	jne	SHORT $LN31@SetCharact
	cmp	al, 240					; 000000f0H
	jne	SHORT $LN31@SetCharact
$LN20@SetCharact:

; 229  : 	rand_s(&randomValue);

	lea	eax, DWORD PTR _randomValue$1[ebp]
	push	eax
	call	_rand_s

; 1748 : 					key[i] = (unsigned char)(RandomByte() & 0xff);

	mov	al, BYTE PTR _randomValue$1[ebp]
	jmp	$LN169@SetCharact
$LN31@SetCharact:

; 1749 : 				isSecondByteSJIS = FALSE;

	xor	esi, esi
$LN45@SetCharact:

; 1735 : 		}
; 1736 : 	} else {
; 1737 : 		BOOL isSecondByteSJIS = FALSE;
; 1738 : 		for (int32_t i = 0; i < n; i++){

	inc	edi
	cmp	edi, DWORD PTR _n$[ebp]
	jl	$LL46@SetCharact
$LN151@SetCharact:
	pop	edi
	pop	esi
	pop	ebx

; 1750 : 			}
; 1751 : 		}
; 1752 : 	}
; 1753 : }

	mov	esp, ebp
	pop	ebp
	ret	0
?SetCharactersInTripcodeKey@@YAXPAEH@Z ENDP		; SetCharactersInTripcodeKey
_TEXT	ENDS
; Function compile flags: /Ogtp
; File z:\github\merikens-tripcode-engine\sourcefiles\main.cpp
;	COMDAT ?IsFirstByteSJIS@@YAHE@Z
_TEXT	SEGMENT
?IsFirstByteSJIS@@YAHE@Z PROC				; IsFirstByteSJIS, COMDAT
; _ch$ = cl

; 1715 : 	if (options.maximizeKeySpace) {

	cmp	DWORD PTR ?options@@3UOptions@@A+88, 0
	je	SHORT $LN2@IsFirstByt

; 1716 : 		return IS_FIRST_BYTE_SJIS_FULL(ch);

	cmp	cl, 129					; 00000081H
	jb	SHORT $LN5@IsFirstByt
	cmp	cl, 132					; 00000084H
	jbe	SHORT $LN12@IsFirstByt
$LN5@IsFirstByt:
	cmp	cl, 136					; 00000088H
	jb	SHORT $LN6@IsFirstByt
	cmp	cl, 159					; 0000009fH
	jbe	SHORT $LN12@IsFirstByt
$LN6@IsFirstByt:
	add	cl, 32					; 00000020H
	cmp	cl, 10					; 0000000aH
	jmp	SHORT $LN15@IsFirstByt
$LN2@IsFirstByt:

; 1717 : 	} else {
; 1718 : 		return IS_FIRST_BYTE_SJIS_CONSERVATIVE(ch);

	cmp	cl, 137					; 00000089H
	jb	SHORT $LN10@IsFirstByt
	cmp	cl, 151					; 00000097H
	jbe	SHORT $LN12@IsFirstByt
$LN10@IsFirstByt:
	cmp	cl, 153					; 00000099H
	jb	SHORT $LN11@IsFirstByt
	cmp	cl, 159					; 0000009fH
	jbe	SHORT $LN12@IsFirstByt
$LN11@IsFirstByt:
	add	cl, 32					; 00000020H
	cmp	cl, 9
$LN15@IsFirstByt:
	ja	SHORT $LN13@IsFirstByt
$LN12@IsFirstByt:
	mov	eax, 1

; 1719 : 	}
; 1720 : }

	ret	0
$LN13@IsFirstByt:

; 1717 : 	} else {
; 1718 : 		return IS_FIRST_BYTE_SJIS_CONSERVATIVE(ch);

	xor	eax, eax

; 1719 : 	}
; 1720 : }

	ret	0
?IsFirstByteSJIS@@YAHE@Z ENDP				; IsFirstByteSJIS
_TEXT	ENDS
; Function compile flags: /Ogtp
; File z:\github\merikens-tripcode-engine\sourcefiles\main.cpp
;	COMDAT ?RandomByte@@YAEXZ
_TEXT	SEGMENT
_randomValue$ = -4					; size = 4
?RandomByte@@YAEXZ PROC					; RandomByte, COMDAT

; 226  : {

	push	ebp
	mov	ebp, esp
	push	ecx

; 227  : 	uint32_t randomValue;
; 228  : 
; 229  : 	rand_s(&randomValue);

	lea	eax, DWORD PTR _randomValue$[ebp]
	push	eax
	call	_rand_s

; 230  : 	return (unsigned char)(randomValue & 0x000000ff);

	mov	al, BYTE PTR _randomValue$[ebp]
	add	esp, 4

; 231  : }

	mov	esp, ebp
	pop	ebp
	ret	0
?RandomByte@@YAEXZ ENDP					; RandomByte
_TEXT	ENDS
; Function compile flags: /Ogtp
; File z:\github\merikens-tripcode-engine\sourcefiles\main.cpp
; File c:\program files (x86)\microsoft visual studio 12.0\vc\include\xatomic.h
; File c:\program files (x86)\microsoft visual studio 12.0\vc\include\atomic
; File z:\github\merikens-tripcode-engine\sourcefiles\types.h
; File c:\program files (x86)\microsoft visual studio 12.0\vc\include\thread
; File z:\github\merikens-tripcode-engine\sourcefiles\types.h
; File z:\github\merikens-tripcode-engine\sourcefiles\main.cpp
; File c:\program files (x86)\microsoft visual studio 12.0\vc\include\xatomic.h
; File z:\github\merikens-tripcode-engine\sourcefiles\main.cpp
;	COMDAT ?GetTerminationState@@YAHXZ
_TEXT	SEGMENT
?GetTerminationState@@YAHXZ PROC			; GetTerminationState, COMDAT

; 1662 : {

	push	esi
	mov	esi, OFFSET ?current_state_spinlock@@3Vspinlock@@A ; current_state_spinlock
$LL9@GetTermina:
; File c:\program files (x86)\microsoft visual studio 12.0\vc\include\xatomic.h

; 2385 : 			return (_INTRIN_ACQUIRE(_interlockedbittestandset)(_Flag, 0));

	lock	 bts	 DWORD PTR [esi], 0
	setb	al
	movzx	eax, al
; File c:\program files (x86)\microsoft visual studio 12.0\vc\include\atomic

; 204  : 	return _ATOMIC_FLAG_TEST_AND_SET(&_My_flag, _Order);

	test	eax, eax
; File z:\github\merikens-tripcode-engine\sourcefiles\types.h

; 149  : 		while (flag.test_and_set(std::memory_order_acquire))

	je	SHORT $LN8@GetTermina
; File c:\program files (x86)\microsoft visual studio 12.0\vc\include\thread

; 123  : 	if (::Concurrency::details::_CurrentScheduler::_Id() != -1)

	call	?_Id@_CurrentScheduler@details@Concurrency@@SAIXZ ; Concurrency::details::_CurrentScheduler::_Id
	cmp	eax, -1
	je	SHORT $LN23@GetTermina

; 124  : 		{	// yield, then quit
; 125  : 		::Concurrency::details::_Context::_Yield();

	call	?_Yield@_Context@details@Concurrency@@SAXXZ ; Concurrency::details::_Context::_Yield

; 126  : 		return;

	jmp	SHORT $LL9@GetTermina
$LN23@GetTermina:

; 127  : 		}
; 128  : 	_Thrd_yield();

	call	__Thrd_yield
; File z:\github\merikens-tripcode-engine\sourcefiles\types.h

; 150  : 			std::this_thread::yield();

	jmp	SHORT $LL9@GetTermina
$LN8@GetTermina:
; File z:\github\merikens-tripcode-engine\sourcefiles\main.cpp

; 1668 : 	if (options.redirection && nameEventForTerminatingWC[0] != 0x0 && eventForTerminating == NULL) {

	cmp	DWORD PTR ?options@@3UOptions@@A+32, 0
	pop	esi
	je	$LN4@GetTermina
	cmp	WORD PTR _nameEventForTerminatingWC, 0
	je	$LN4@GetTermina
	mov	eax, DWORD PTR ?eventForTerminating@@3PAXA ; eventForTerminating
	test	eax, eax
	jne	$LN53@GetTermina

; 1669 : 		eventForTerminating = OpenEvent(EVENT_ALL_ACCESS, false, nameEventForTerminatingWC);

	push	OFFSET _nameEventForTerminatingWC
	push	eax
	push	2031619					; 001f0003H
	call	DWORD PTR __imp__OpenEventW@12
	mov	DWORD PTR ?eventForTerminating@@3PAXA, eax ; eventForTerminating

; 1670 : 		ERROR0(!eventForTerminating, ERROR_EVENT, "Failed to open an event.") 

	test	eax, eax
	jne	$LN53@GetTermina
	call	?GetErrorState@@YAHXZ			; GetErrorState
	test	eax, eax
	jne	SHORT $LN4@GetTermina
	call	?SetErrorState@@YAXXZ			; SetErrorState
	cmp	DWORD PTR ?options@@3UOptions@@A+32, 0
	je	SHORT $LN3@GetTermina
	push	21					; 00000015H
	push	OFFSET $SG4294899107
	call	___iob_func
	add	eax, 64					; 00000040H
	push	eax
	call	_fprintf
	call	___iob_func
	add	eax, 64					; 00000040H
	push	eax
	call	_fflush
	push	21					; 00000015H
	push	OFFSET $SG4294899106
	call	_printf
	call	___iob_func
	add	eax, 32					; 00000020H
	push	eax
	call	_fflush
	add	esp, 28					; 0000001cH
	jmp	SHORT $LN2@GetTermina
$LN3@GetTermina:
	push	DWORD PTR ?prevLineCount@@3HA		; prevLineCount
	call	?reset_cursor_pos@@YAXH@Z		; reset_cursor_pos
	push	OFFSET $SG4294899105
	push	OFFSET $SG4294899104
	call	_printf
	add	esp, 12					; 0000000cH
	call	__getch
	call	?show_cursor@@YAXXZ			; show_cursor
$LN2@GetTermina:
	push	1
	call	DWORD PTR __imp__ExitProcess@4
$LN57@GetTermina:
$LN4@GetTermina:

; 1671 : 	}
; 1672 : 
; 1673 : 	// Check to see if a termination event has occured.
; 1674 : 	if (eventForTerminating && WaitForSingleObject(eventForTerminating, 0) == WAIT_OBJECT_0)

	mov	eax, DWORD PTR ?eventForTerminating@@3PAXA ; eventForTerminating
	test	eax, eax
	je	SHORT $LN54@GetTermina
$LN53@GetTermina:
	push	0
	push	eax
	call	DWORD PTR __imp__WaitForSingleObject@8
	mov	ecx, DWORD PTR ?wasSearchTerminated@@3HA ; wasSearchTerminated
	test	eax, eax
	mov	edx, 1
	cmove	ecx, edx
	mov	DWORD PTR ?wasSearchTerminated@@3HA, ecx ; wasSearchTerminated
	jmp	SHORT $LN1@GetTermina
$LN54@GetTermina:
	mov	ecx, DWORD PTR ?wasSearchTerminated@@3HA ; wasSearchTerminated
$LN1@GetTermina:
; File c:\program files (x86)\microsoft visual studio 12.0\vc\include\xatomic.h

; 1363 : 	*_Tgt = _Value;

	mov	DWORD PTR ?current_state_spinlock@@3Vspinlock@@A, 0 ; current_state_spinlock
; File z:\github\merikens-tripcode-engine\sourcefiles\main.cpp

; 1681 : 	return ret;

	mov	eax, ecx

; 1682 : }

	ret	0
$LN56@GetTermina:
?GetTerminationState@@YAHXZ ENDP			; GetTerminationState
_TEXT	ENDS
; Function compile flags: /Ogtp
; File z:\github\merikens-tripcode-engine\sourcefiles\main.cpp
;	COMDAT ?IsValidKey@@YAHPAE@Z
_TEXT	SEGMENT
_results$ = -20						; size = 13
__$ArrayPad$ = -4					; size = 4
_key$ = 8						; size = 4
?IsValidKey@@YAHPAE@Z PROC				; IsValidKey, COMDAT

; 371  : {

	push	ebp
	mov	ebp, esp
	sub	esp, 20					; 00000014H
	mov	eax, DWORD PTR ___security_cookie
	xor	eax, ebp
	mov	DWORD PTR __$ArrayPad$[ebp], eax

; 372  : 	int32_t i;
; 373  : 	BOOL isSecondByteSJIS = FALSE;
; 374  : 	char results[13] = {0x00, 0x00, 0x00, 0x00, 0x00, 0x00, 0x00, 0x00, 0x00, 0x00, 0x00, 0x00, 0x00};
; 375  : 	
; 376  : 	if (key[0] == '#' || key[0] == '$') {

	mov	ecx, DWORD PTR _key$[ebp]
	push	edi
	xor	edi, edi
	mov	al, BYTE PTR [ecx]
	cmp	al, 35					; 00000023H
	je	$LN46@IsValidKey
	cmp	al, 36					; 00000024H
	je	$LN46@IsValidKey

; 377  : #ifdef DEBUG_PRINT_INVALID_KEY_INFO
; 378  : 		printf("  results: %c                                                     \n", key[0]);
; 379  : #endif
; 380  : 		return FALSE;
; 381  : 	}
; 382  : 
; 383  : 	for (i = 0; i < lenTripcode; ++i) {

	mov	eax, DWORD PTR ?lenTripcode@@3HA	; lenTripcode
	push	ebx
	push	esi
	xor	esi, esi
	test	eax, eax
	jle	$LN43@IsValidKey
	lea	ebx, DWORD PTR _results$[ebp]
	mov	edx, ecx
	sub	ebx, ecx
$LL45@IsValidKey:

; 384  : 		if (!isSecondByteSJIS && IS_ONE_BYTE_KEY_CHAR(key[i])) {

	test	edi, edi
	jne	SHORT $LN55@IsValidKey
	mov	cl, BYTE PTR [edx]
	cmp	cl, 33					; 00000021H
	jb	SHORT $LN40@IsValidKey
	cmp	cl, 36					; 00000024H
	jbe	SHORT $LN41@IsValidKey
$LN40@IsValidKey:
	cmp	cl, 38					; 00000026H
	jb	SHORT $LN39@IsValidKey
	cmp	cl, 42					; 0000002aH
	jbe	SHORT $LN41@IsValidKey
$LN39@IsValidKey:
	cmp	cl, 45					; 0000002dH
	jb	SHORT $LN38@IsValidKey
	cmp	cl, 126					; 0000007eH
	jbe	SHORT $LN41@IsValidKey
