; Listing generated by Microsoft (R) Optimizing Compiler Version 18.00.40629.0 

include listing.inc

INCLUDELIB OLDNAMES

PUBLIC	??_C@_07DCLBNMLN@generic?$AA@			; `string'
PUBLIC	??_C@_0O@BFJCFAAK@unknown?5error?$AA@		; `string'
PUBLIC	??_C@_08LLGCOLLL@iostream?$AA@			; `string'
PUBLIC	??_C@_0BG@PADBLCHM@iostream?5stream?5error?$AA@	; `string'
PUBLIC	??_C@_06FHFOAHML@system?$AA@			; `string'
PUBLIC	??_C@_0BA@JFNIOLAK@string?5too?5long?$AA@	; `string'
PUBLIC	??_C@_0BI@CFPLBAOH@invalid?5string?5position?$AA@ ; `string'
PUBLIC	ChoreEventGuid
PUBLIC	ScheduleGroupEventGuid
PUBLIC	SchedulerEventGuid
PUBLIC	VirtualProcessorEventGuid
PUBLIC	ContextEventGuid
PUBLIC	ConcRTEventGuid
PUBLIC	ConcRT_ProviderGuid
PUBLIC	ResourceManagerEventGuid
PUBLIC	LockEventGuid
PUBLIC	??_R3error_category@std@@8			; std::error_category::`RTTI Class Hierarchy Descriptor'
PUBLIC	??_R1A@?0A@EA@error_category@std@@8		; std::error_category::`RTTI Base Class Descriptor at (0,-1,0,64)'
PUBLIC	??_R3_System_error_category@std@@8		; std::_System_error_category::`RTTI Class Hierarchy Descriptor'
PUBLIC	??_R2_System_error_category@std@@8		; std::_System_error_category::`RTTI Base Class Array'
PUBLIC	??_7_Generic_error_category@std@@6B@		; std::_Generic_error_category::`vftable'
PUBLIC	??_R4_Generic_error_category@std@@6B@		; std::_Generic_error_category::`RTTI Complete Object Locator'
PUBLIC	??_R0?AV_Iostream_error_category@std@@@8	; std::_Iostream_error_category `RTTI Type Descriptor'
PUBLIC	??_R1A@?0A@EA@_Generic_error_category@std@@8	; std::_Generic_error_category::`RTTI Base Class Descriptor at (0,-1,0,64)'
PUBLIC	?charTableForSeed@@3PAEA			; charTableForSeed
PUBLIC	??_R1A@?0A@EA@_Iostream_error_category@std@@8	; std::_Iostream_error_category::`RTTI Base Class Descriptor at (0,-1,0,64)'
PUBLIC	??_R4error_category@std@@6B@			; std::error_category::`RTTI Complete Object Locator'
PUBLIC	??_R4_Iostream_error_category@std@@6B@		; std::_Iostream_error_category::`RTTI Complete Object Locator'
PUBLIC	??_R0?AV_System_error_category@std@@@8		; std::_System_error_category `RTTI Type Descriptor'
PUBLIC	??_R2error_category@std@@8			; std::error_category::`RTTI Base Class Array'
PUBLIC	??_R1A@?0A@EA@_System_error_category@std@@8	; std::_System_error_category::`RTTI Base Class Descriptor at (0,-1,0,64)'
PUBLIC	??_R3_Iostream_error_category@std@@8		; std::_Iostream_error_category::`RTTI Class Hierarchy Descriptor'
PUBLIC	??_7_System_error_category@std@@6B@		; std::_System_error_category::`vftable'
PUBLIC	??_R0?AVerror_category@std@@@8			; std::error_category `RTTI Type Descriptor'
PUBLIC	??_7_Iostream_error_category@std@@6B@		; std::_Iostream_error_category::`vftable'
PUBLIC	??_7error_category@std@@6B@			; std::error_category::`vftable'
PUBLIC	??_R4_System_error_category@std@@6B@		; std::_System_error_category::`RTTI Complete Object Locator'
PUBLIC	??_R0?AV_Generic_error_category@std@@@8		; std::_Generic_error_category `RTTI Type Descriptor'
PUBLIC	?charTableForKagami@@3PAEA			; charTableForKagami
PUBLIC	??_R2_Generic_error_category@std@@8		; std::_Generic_error_category::`RTTI Base Class Array'
PUBLIC	??_R3_Generic_error_category@std@@8		; std::_Generic_error_category::`RTTI Class Hierarchy Descriptor'
PUBLIC	??_R2_Iostream_error_category@std@@8		; std::_Iostream_error_category::`RTTI Base Class Array'
EXTRN	??2@YAPEAX_K@Z:PROC				; operator new
EXTRN	??_7type_info@@6B@:BYTE				; type_info::`vftable'
EXTRN	DES_Crypt25_x64_AVX2:PROC
EXTRN	_hypot:PROC
EXTRN	IsAVXSupported:PROC
EXTRN	DES_Crypt25_x64_SSE2:PROC
EXTRN	__report_rangecheckfailure:PROC
EXTRN	__imp_VirtualAllocEx:PROC
EXTRN	??3@YAXPEAX@Z:PROC				; operator delete
EXTRN	_purecall:PROC
EXTRN	atexit:PROC
EXTRN	__imp_Sleep:PROC
EXTRN	?generic_category@system@boost@@YAAEBVerror_category@12@XZ:PROC ; boost::system::generic_category
EXTRN	?system_category@system@boost@@YAAEBVerror_category@12@XZ:PROC ; boost::system::system_category
EXTRN	__imp_GetCurrentProcess:PROC
EXTRN	DES_Crypt25_x64_AVX:PROC
EXTRN	DES_Crypt25_x64_SSE2_Nehalem:PROC
EXTRN	memmove:PROC
EXTRN	?_Xlength_error@std@@YAXPEBD@Z:PROC		; std::_Xlength_error
EXTRN	?_Xout_of_range@std@@YAXPEBD@Z:PROC		; std::_Xout_of_range
EXTRN	?_Xbad_alloc@std@@YAXXZ:PROC			; std::_Xbad_alloc
EXTRN	?_Syserror_map@std@@YAPEBDH@Z:PROC		; std::_Syserror_map
EXTRN	?_Winerror_map@std@@YAPEBDH@Z:PROC		; std::_Winerror_map
EXTRN	?expansionTable@@3QBEB:BYTE			; expansionTable
EXTRN	__security_check_cookie:PROC
;	COMDAT ??_R2_Iostream_error_category@std@@8
rdata$r	SEGMENT
??_R2_Iostream_error_category@std@@8 DD imagerel ??_R1A@?0A@EA@_Iostream_error_category@std@@8 ; std::_Iostream_error_category::`RTTI Base Class Array'
	DD	imagerel ??_R1A@?0A@EA@_Generic_error_category@std@@8
	DD	imagerel ??_R1A@?0A@EA@error_category@std@@8
	ORG $+3
rdata$r	ENDS
;	COMDAT ??_R3_Generic_error_category@std@@8
rdata$r	SEGMENT
??_R3_Generic_error_category@std@@8 DD 00H		; std::_Generic_error_category::`RTTI Class Hierarchy Descriptor'
	DD	00H
	DD	02H
	DD	imagerel ??_R2_Generic_error_category@std@@8
rdata$r	ENDS
;	COMDAT ??_R2_Generic_error_category@std@@8
rdata$r	SEGMENT
??_R2_Generic_error_category@std@@8 DD imagerel ??_R1A@?0A@EA@_Generic_error_category@std@@8 ; std::_Generic_error_category::`RTTI Base Class Array'
	DD	imagerel ??_R1A@?0A@EA@error_category@std@@8
	ORG $+3
rdata$r	ENDS
;	COMDAT ??_R0?AV_Generic_error_category@std@@@8
data$r	SEGMENT
??_R0?AV_Generic_error_category@std@@@8 DQ FLAT:??_7type_info@@6B@ ; std::_Generic_error_category `RTTI Type Descriptor'
	DQ	0000000000000000H
	DB	'.?AV_Generic_error_category@std@@', 00H
data$r	ENDS
;	COMDAT ??_R4_System_error_category@std@@6B@
rdata$r	SEGMENT
??_R4_System_error_category@std@@6B@ DD 01H		; std::_System_error_category::`RTTI Complete Object Locator'
	DD	00H
	DD	00H
	DD	imagerel ??_R0?AV_System_error_category@std@@@8
	DD	imagerel ??_R3_System_error_category@std@@8
	DD	imagerel ??_R4_System_error_category@std@@6B@
rdata$r	ENDS
;	COMDAT ??_7error_category@std@@6B@
CONST	SEGMENT
??_7error_category@std@@6B@ DQ FLAT:??_R4error_category@std@@6B@ ; std::error_category::`vftable'
	DQ	FLAT:??_Eerror_category@std@@UEAAPEAXI@Z
	DQ	FLAT:_purecall
	DQ	FLAT:_purecall
	DQ	FLAT:?default_error_condition@error_category@std@@UEBA?AVerror_condition@2@H@Z
	DQ	FLAT:?equivalent@error_category@std@@UEBA_NAEBVerror_code@2@H@Z
	DQ	FLAT:?equivalent@error_category@std@@UEBA_NHAEBVerror_condition@2@@Z
CONST	ENDS
;	COMDAT ??_7_Iostream_error_category@std@@6B@
CONST	SEGMENT
??_7_Iostream_error_category@std@@6B@ DQ FLAT:??_R4_Iostream_error_category@std@@6B@ ; std::_Iostream_error_category::`vftable'
	DQ	FLAT:??_E_Iostream_error_category@std@@UEAAPEAXI@Z
	DQ	FLAT:?name@_Iostream_error_category@std@@UEBAPEBDXZ
	DQ	FLAT:?message@_Iostream_error_category@std@@UEBA?AV?$basic_string@DU?$char_traits@D@std@@V?$allocator@D@2@@2@H@Z
	DQ	FLAT:?default_error_condition@error_category@std@@UEBA?AVerror_condition@2@H@Z
	DQ	FLAT:?equivalent@error_category@std@@UEBA_NAEBVerror_code@2@H@Z
	DQ	FLAT:?equivalent@error_category@std@@UEBA_NHAEBVerror_condition@2@@Z
CONST	ENDS
;	COMDAT ??_R0?AVerror_category@std@@@8
data$r	SEGMENT
??_R0?AVerror_category@std@@@8 DQ FLAT:??_7type_info@@6B@ ; std::error_category `RTTI Type Descriptor'
	DQ	0000000000000000H
	DB	'.?AVerror_category@std@@', 00H
data$r	ENDS
;	COMDAT ??_7_System_error_category@std@@6B@
CONST	SEGMENT
??_7_System_error_category@std@@6B@ DQ FLAT:??_R4_System_error_category@std@@6B@ ; std::_System_error_category::`vftable'
	DQ	FLAT:??_E_System_error_category@std@@UEAAPEAXI@Z
	DQ	FLAT:?name@_System_error_category@std@@UEBAPEBDXZ
	DQ	FLAT:?message@_System_error_category@std@@UEBA?AV?$basic_string@DU?$char_traits@D@std@@V?$allocator@D@2@@2@H@Z
	DQ	FLAT:?default_error_condition@_System_error_category@std@@UEBA?AVerror_condition@2@H@Z
	DQ	FLAT:?equivalent@error_category@std@@UEBA_NAEBVerror_code@2@H@Z
	DQ	FLAT:?equivalent@error_category@std@@UEBA_NHAEBVerror_condition@2@@Z
CONST	ENDS
;	COMDAT ??_R3_Iostream_error_category@std@@8
rdata$r	SEGMENT
??_R3_Iostream_error_category@std@@8 DD 00H		; std::_Iostream_error_category::`RTTI Class Hierarchy Descriptor'
	DD	00H
	DD	03H
	DD	imagerel ??_R2_Iostream_error_category@std@@8
rdata$r	ENDS
;	COMDAT ??_R1A@?0A@EA@_System_error_category@std@@8
rdata$r	SEGMENT
??_R1A@?0A@EA@_System_error_category@std@@8 DD imagerel ??_R0?AV_System_error_category@std@@@8 ; std::_System_error_category::`RTTI Base Class Descriptor at (0,-1,0,64)'
	DD	02H
	DD	00H
	DD	0ffffffffH
	DD	00H
	DD	040H
	DD	imagerel ??_R3_System_error_category@std@@8
rdata$r	ENDS
;	COMDAT ??_R2error_category@std@@8
rdata$r	SEGMENT
??_R2error_category@std@@8 DD imagerel ??_R1A@?0A@EA@error_category@std@@8 ; std::error_category::`RTTI Base Class Array'
	ORG $+3
rdata$r	ENDS
;	COMDAT ??_R0?AV_System_error_category@std@@@8
data$r	SEGMENT
??_R0?AV_System_error_category@std@@@8 DQ FLAT:??_7type_info@@6B@ ; std::_System_error_category `RTTI Type Descriptor'
	DQ	0000000000000000H
	DB	'.?AV_System_error_category@std@@', 00H
data$r	ENDS
;	COMDAT ??_R4_Iostream_error_category@std@@6B@
rdata$r	SEGMENT
??_R4_Iostream_error_category@std@@6B@ DD 01H		; std::_Iostream_error_category::`RTTI Complete Object Locator'
	DD	00H
	DD	00H
	DD	imagerel ??_R0?AV_Iostream_error_category@std@@@8
	DD	imagerel ??_R3_Iostream_error_category@std@@8
	DD	imagerel ??_R4_Iostream_error_category@std@@6B@
rdata$r	ENDS
;	COMDAT ??_R4error_category@std@@6B@
rdata$r	SEGMENT
??_R4error_category@std@@6B@ DD 01H			; std::error_category::`RTTI Complete Object Locator'
	DD	00H
	DD	00H
	DD	imagerel ??_R0?AVerror_category@std@@@8
	DD	imagerel ??_R3error_category@std@@8
	DD	imagerel ??_R4error_category@std@@6B@
rdata$r	ENDS
;	COMDAT ??_R1A@?0A@EA@_Iostream_error_category@std@@8
rdata$r	SEGMENT
??_R1A@?0A@EA@_Iostream_error_category@std@@8 DD imagerel ??_R0?AV_Iostream_error_category@std@@@8 ; std::_Iostream_error_category::`RTTI Base Class Descriptor at (0,-1,0,64)'
	DD	02H
	DD	00H
	DD	0ffffffffH
	DD	00H
	DD	040H
	DD	imagerel ??_R3_Iostream_error_category@std@@8
?charTableForSeed@@3PAEA DB 02eH			; charTableForSeed
	DB	02eH
	DB	02eH
	DB	02eH
	DB	02eH
	DB	02eH
	DB	02eH
	DB	02eH
	DB	02eH
	DB	02eH
	DB	02eH
	DB	02eH
	DB	02eH
	DB	02eH
	DB	02eH
	DB	02eH
	DB	02eH
	DB	02eH
	DB	02eH
	DB	02eH
	DB	02eH
	DB	02eH
	DB	02eH
	DB	02eH
	DB	02eH
	DB	02eH
	DB	02eH
	DB	02eH
	DB	02eH
	DB	02eH
	DB	02eH
	DB	02eH
	DB	02eH
	DB	02eH
	DB	02eH
	DB	02eH
	DB	02eH
	DB	02eH
	DB	02eH
	DB	02eH
	DB	02eH
	DB	02eH
	DB	02eH
	DB	02eH
	DB	02eH
	DB	02eH
	DB	02eH
	DB	02fH
	DB	030H
	DB	031H
	DB	032H
	DB	033H
	DB	034H
	DB	035H
	DB	036H
	DB	037H
	DB	038H
	DB	039H
	DB	041H
	DB	042H
	DB	043H
	DB	044H
	DB	045H
	DB	046H
	DB	047H
	DB	041H
	DB	042H
	DB	043H
	DB	044H
	DB	045H
	DB	046H
	DB	047H
	DB	048H
	DB	049H
	DB	04aH
	DB	04bH
	DB	04cH
	DB	04dH
	DB	04eH
	DB	04fH
	DB	050H
	DB	051H
	DB	052H
	DB	053H
	DB	054H
	DB	055H
	DB	056H
	DB	057H
	DB	058H
	DB	059H
	DB	05aH
	DB	061H
	DB	062H
	DB	063H
	DB	064H
	DB	065H
	DB	066H
	DB	061H
	DB	062H
	DB	063H
	DB	064H
	DB	065H
	DB	066H
	DB	067H
	DB	068H
	DB	069H
	DB	06aH
	DB	06bH
	DB	06cH
	DB	06dH
	DB	06eH
	DB	06fH
	DB	070H
	DB	071H
	DB	072H
	DB	073H
	DB	074H
	DB	075H
	DB	076H
	DB	077H
	DB	078H
	DB	079H
	DB	07aH
	DB	02eH
	DB	02eH
	DB	02eH
	DB	02eH
	DB	02eH
	DB	02eH
	DB	02eH
	DB	02eH
	DB	02eH
	DB	02eH
	DB	02eH
	DB	02eH
	DB	02eH
	DB	02eH
	DB	02eH
	DB	02eH
	DB	02eH
	DB	02eH
	DB	02eH
	DB	02eH
	DB	02eH
	DB	02eH
	DB	02eH
	DB	02eH
	DB	02eH
	DB	02eH
	DB	02eH
	DB	02eH
	DB	02eH
	DB	02eH
	DB	02eH
	DB	02eH
	DB	02eH
	DB	02eH
	DB	02eH
	DB	02eH
	DB	02eH
	DB	02eH
	DB	02eH
	DB	02eH
	DB	02eH
	DB	02eH
	DB	02eH
	DB	02eH
	DB	02eH
	DB	02eH
	DB	02eH
	DB	02eH
	DB	02eH
	DB	02eH
	DB	02eH
	DB	02eH
	DB	02eH
	DB	02eH
	DB	02eH
	DB	02eH
	DB	02eH
	DB	02eH
	DB	02eH
	DB	02eH
	DB	02eH
	DB	02eH
	DB	02eH
	DB	02eH
	DB	02eH
	DB	02eH
	DB	02eH
	DB	02eH
	DB	02eH
	DB	02eH
	DB	02eH
	DB	02eH
	DB	02eH
	DB	02eH
	DB	02eH
	DB	02eH
	DB	02eH
	DB	02eH
	DB	02eH
	DB	02eH
	DB	02eH
	DB	02eH
	DB	02eH
	DB	02eH
	DB	02eH
	DB	02eH
	DB	02eH
	DB	02eH
	DB	02eH
	DB	02eH
	DB	02eH
	DB	02eH
	DB	02eH
	DB	02eH
	DB	02eH
	DB	02eH
	DB	02eH
	DB	02eH
	DB	02eH
	DB	02eH
	DB	02eH
	DB	02eH
	DB	02eH
	DB	02eH
	DB	02eH
	DB	02eH
	DB	02eH
	DB	02eH
	DB	02eH
	DB	02eH
	DB	02eH
	DB	02eH
	DB	02eH
	DB	02eH
	DB	02eH
	DB	02eH
	DB	02eH
	DB	02eH
	DB	02eH
	DB	02eH
	DB	02eH
	DB	02eH
	DB	02eH
	DB	02eH
	DB	02eH
	DB	02eH
	DB	02eH
	DB	02eH
	DB	02eH
	DB	02eH
	DB	02eH
	DB	02eH
	DB	02eH
_DATA	ENDS
;	COMDAT ??_R1A@?0A@EA@_Generic_error_category@std@@8
rdata$r	SEGMENT
??_R1A@?0A@EA@_Generic_error_category@std@@8 DD imagerel ??_R0?AV_Generic_error_category@std@@@8 ; std::_Generic_error_category::`RTTI Base Class Descriptor at (0,-1,0,64)'
	DD	01H
	DD	00H
	DD	0ffffffffH
	DD	00H
	DD	040H
	DD	imagerel ??_R3_Generic_error_category@std@@8
rdata$r	ENDS
;	COMDAT ??_R0?AV_Iostream_error_category@std@@@8
data$r	SEGMENT
??_R0?AV_Iostream_error_category@std@@@8 DQ FLAT:??_7type_info@@6B@ ; std::_Iostream_error_category `RTTI Type Descriptor'
	DQ	0000000000000000H
	DB	'.?AV_Iostream_error_category@std@@', 00H
data$r	ENDS
;	COMDAT ??_R4_Generic_error_category@std@@6B@
rdata$r	SEGMENT
??_R4_Generic_error_category@std@@6B@ DD 01H		; std::_Generic_error_category::`RTTI Complete Object Locator'
	DD	00H
	DD	00H
	DD	imagerel ??_R0?AV_Generic_error_category@std@@@8
	DD	imagerel ??_R3_Generic_error_category@std@@8
	DD	imagerel ??_R4_Generic_error_category@std@@6B@
rdata$r	ENDS
;	COMDAT ??_7_Generic_error_category@std@@6B@
CONST	SEGMENT
??_7_Generic_error_category@std@@6B@ DQ FLAT:??_R4_Generic_error_category@std@@6B@ ; std::_Generic_error_category::`vftable'
	DQ	FLAT:??_E_Generic_error_category@std@@UEAAPEAXI@Z
	DQ	FLAT:?name@_Generic_error_category@std@@UEBAPEBDXZ
	DQ	FLAT:?message@_Generic_error_category@std@@UEBA?AV?$basic_string@DU?$char_traits@D@std@@V?$allocator@D@2@@2@H@Z
	DQ	FLAT:?default_error_condition@error_category@std@@UEBA?AVerror_condition@2@H@Z
	DQ	FLAT:?equivalent@error_category@std@@UEBA_NAEBVerror_code@2@H@Z
	DQ	FLAT:?equivalent@error_category@std@@UEBA_NHAEBVerror_condition@2@@Z
CONST	ENDS
;	COMDAT ??_R2_System_error_category@std@@8
rdata$r	SEGMENT
??_R2_System_error_category@std@@8 DD imagerel ??_R1A@?0A@EA@_System_error_category@std@@8 ; std::_System_error_category::`RTTI Base Class Array'
	DD	imagerel ??_R1A@?0A@EA@_Generic_error_category@std@@8
	DD	imagerel ??_R1A@?0A@EA@error_category@std@@8
	ORG $+3
rdata$r	ENDS
;	COMDAT ??_R3_System_error_category@std@@8
rdata$r	SEGMENT
??_R3_System_error_category@std@@8 DD 00H		; std::_System_error_category::`RTTI Class Hierarchy Descriptor'
	DD	00H
	DD	03H
	DD	imagerel ??_R2_System_error_category@std@@8
rdata$r	ENDS
;	COMDAT ??_R1A@?0A@EA@error_category@std@@8
rdata$r	SEGMENT
??_R1A@?0A@EA@error_category@std@@8 DD imagerel ??_R0?AVerror_category@std@@@8 ; std::error_category::`RTTI Base Class Descriptor at (0,-1,0,64)'
	DD	00H
	DD	00H
	DD	0ffffffffH
	DD	00H
	DD	040H
	DD	imagerel ??_R3error_category@std@@8
rdata$r	ENDS
;	COMDAT ??_R3error_category@std@@8
rdata$r	SEGMENT
??_R3error_category@std@@8 DD 00H			; std::error_category::`RTTI Class Hierarchy Descriptor'
	DD	00H
	DD	01H
	DD	imagerel ??_R2error_category@std@@8
rdata$r	ENDS
;	COMDAT LockEventGuid
CONST	SEGMENT
LockEventGuid DD 079a60dc6H
	DW	05fc8H
	DW	04952H
	DB	0a4H
	DB	01cH
	DB	011H
	DB	063H
	DB	0aeH
	DB	0ecH
	DB	05eH
	DB	0b8H
CONST	ENDS
;	COMDAT ResourceManagerEventGuid
CONST	SEGMENT
ResourceManagerEventGuid DD 02718d25bH
	DW	05bf5H
	DW	04479H
	DB	08eH
	DB	088H
	DB	0baH
	DB	0bcH
	DB	064H
	DB	0bdH
	DB	0bfH
	DB	0caH
CONST	ENDS
;	COMDAT ConcRT_ProviderGuid
CONST	SEGMENT
ConcRT_ProviderGuid DD 0f7b697a3H
	DW	04db5H
	DW	04d3bH
	DB	0beH
	DB	071H
	DB	0c4H
	DB	0d2H
	DB	084H
	DB	0e6H
	DB	059H
	DB	02fH
CONST	ENDS
;	COMDAT ConcRTEventGuid
CONST	SEGMENT
ConcRTEventGuid DD 072b14a7dH
	DW	0704cH
	DW	0423eH
	DB	092H
	DB	0f8H
	DB	07eH
	DB	06dH
	DB	064H
	DB	0bcH
	DB	0b9H
	DB	02aH
CONST	ENDS
;	COMDAT ContextEventGuid
CONST	SEGMENT
ContextEventGuid DD 05727a00fH
	DW	050beH
	DW	04519H
	DB	082H
	DB	056H
	DB	0f7H
	DB	069H
	DB	098H
	DB	071H
	DB	0feH
	DB	0cbH
CONST	ENDS
;	COMDAT VirtualProcessorEventGuid
CONST	SEGMENT
VirtualProcessorEventGuid DD 02f27805fH
	DW	01676H
	DW	04eccH
	DB	096H
	DB	0faH
	DB	07eH
	DB	0b0H
	DB	09dH
	DB	044H
	DB	030H
	DB	02fH
CONST	ENDS
;	COMDAT SchedulerEventGuid
CONST	SEGMENT
SchedulerEventGuid DD 0e2091f8aH
	DW	01e0aH
	DW	04731H
	DB	084H
	DB	0a2H
	DB	0dH
	DB	0d5H
	DB	07cH
	DB	08aH
	DB	052H
	DB	061H
CONST	ENDS
;	COMDAT ScheduleGroupEventGuid
CONST	SEGMENT
ScheduleGroupEventGuid DD 0e8a3bf1fH
	DW	0a86bH
	DW	04390H
	DB	09cH
	DB	060H
	DB	053H
	DB	090H
	DB	0b9H
	DB	069H
	DB	0d2H
	DB	02cH
CONST	ENDS
;	COMDAT ChoreEventGuid
CONST	SEGMENT
ChoreEventGuid DD 07e854ec7H
	DW	0cdc4H
	DW	0405aH
	DB	0b5H
	DB	0b2H
	DB	0aaH
	DB	0f7H
	DB	0c9H
	DB	0e7H
	DB	0d4H
	DB	0cH
CONST	ENDS
;	COMDAT ??_C@_0BI@CFPLBAOH@invalid?5string?5position?$AA@
CONST	SEGMENT
??_C@_0BI@CFPLBAOH@invalid?5string?5position?$AA@ DB 'invalid string posi'
	DB	'tion', 00H					; `string'
CONST	ENDS
;	COMDAT ??_C@_0BA@JFNIOLAK@string?5too?5long?$AA@
CONST	SEGMENT
??_C@_0BA@JFNIOLAK@string?5too?5long?$AA@ DB 'string too long', 00H ; `string'
$SG4294967157 DB 'THIS_IS_THE_END_OF_THE_FUNCTION', 00H
DES_charToIndexTable DB 07fH
	DB	07fH
	DB	07fH
	DB	07fH
	DB	07fH
	DB	07fH
	DB	07fH
	DB	07fH
	DB	07fH
	DB	07fH
	DB	07fH
	DB	07fH
	DB	07fH
	DB	07fH
	DB	07fH
	DB	07fH
	DB	07fH
	DB	07fH
	DB	07fH
	DB	07fH
	DB	07fH
	DB	07fH
	DB	07fH
	DB	07fH
	DB	07fH
	DB	07fH
	DB	07fH
	DB	07fH
	DB	07fH
	DB	07fH
	DB	07fH
	DB	07fH
	DB	07fH
	DB	07fH
	DB	07fH
	DB	07fH
	DB	07fH
	DB	07fH
	DB	07fH
	DB	07fH
	DB	07fH
	DB	07fH
	DB	07fH
	DB	07fH
	DB	07fH
	DB	07fH
	DB	00H
	DB	01H
	DB	02H
	DB	03H
	DB	04H
	DB	05H
	DB	06H
	DB	07H
	DB	08H
	DB	09H
	DB	0aH
	DB	0bH
	DB	07fH
	DB	07fH
	DB	07fH
	DB	07fH
	DB	07fH
	DB	07fH
	DB	07fH
	DB	0cH
	DB	0dH
	DB	0eH
	DB	0fH
	DB	010H
	DB	011H
	DB	012H
	DB	013H
	DB	014H
	DB	015H
	DB	016H
	DB	017H
	DB	018H
	DB	019H
	DB	01aH
	DB	01bH
	DB	01cH
	DB	01dH
	DB	01eH
	DB	01fH
	DB	020H
	DB	021H
	DB	022H
	DB	023H
	DB	024H
	DB	025H
	DB	07fH
	DB	07fH
	DB	07fH
	DB	07fH
	DB	07fH
	DB	07fH
	DB	026H
	DB	027H
	DB	028H
	DB	029H
	DB	02aH
	DB	02bH
	DB	02cH
	DB	02dH
	DB	02eH
	DB	02fH
	DB	030H
	DB	031H
	DB	032H
	DB	033H
	DB	034H
	DB	035H
	DB	036H
	DB	037H
	DB	038H
	DB	039H
	DB	03aH
	DB	03bH
	DB	03cH
	DB	03dH
	DB	03eH
	DB	03fH
	DB	07fH
	DB	07fH
	DB	07fH
	DB	07fH
	DB	07fH
	DB	07fH
	DB	07fH
	DB	07fH
	DB	07fH
	DB	07fH
	DB	07fH
	DB	07fH
	DB	07fH
	DB	07fH
	DB	07fH
	DB	07fH
	DB	07fH
	DB	07fH
	DB	07fH
	DB	07fH
	DB	07fH
	DB	07fH
	DB	07fH
	DB	07fH
	DB	07fH
	DB	07fH
	DB	07fH
	DB	07fH
	DB	07fH
	DB	07fH
	DB	07fH
	DB	07fH
	DB	07fH
	DB	07fH
	DB	07fH
	DB	07fH
	DB	07fH
	DB	07fH
	DB	07fH
	DB	07fH
	DB	07fH
	DB	07fH
	DB	07fH
	DB	07fH
	DB	07fH
	DB	07fH
	DB	07fH
	DB	07fH
	DB	07fH
	DB	07fH
	DB	07fH
	DB	07fH
	DB	07fH
	DB	07fH
	DB	07fH
	DB	07fH
	DB	07fH
	DB	07fH
	DB	07fH
	DB	07fH
	DB	07fH
	DB	07fH
	DB	07fH
	DB	07fH
	DB	07fH
	DB	07fH
	DB	07fH
	DB	07fH
	DB	07fH
	DB	07fH
	DB	07fH
	DB	07fH
	DB	07fH
	DB	07fH
	DB	07fH
	DB	07fH
	DB	07fH
	DB	07fH
	DB	07fH
	DB	07fH
	DB	07fH
	DB	07fH
	DB	07fH
	DB	07fH
	DB	07fH
	DB	07fH
	DB	07fH
	DB	07fH
	DB	07fH
	DB	07fH
	DB	07fH
	DB	07fH
	DB	07fH
	DB	07fH
	DB	07fH
	DB	07fH
	DB	07fH
	DB	07fH
	DB	07fH
	DB	07fH
	DB	07fH
	DB	07fH
	DB	07fH
	DB	07fH
	DB	07fH
	DB	07fH
	DB	07fH
	DB	07fH
	DB	07fH
	DB	07fH
	DB	07fH
	DB	07fH
	DB	07fH
	DB	07fH
	DB	07fH
	DB	07fH
	DB	07fH
	DB	07fH
	DB	07fH
	DB	07fH
	DB	07fH
	DB	07fH
	DB	07fH
	DB	07fH
	DB	07fH
	DB	07fH
	DB	07fH
	DB	07fH
	DB	07fH
	DB	07fH
	DB	07fH
	DB	07fH
	DB	07fH
DES_indexToCharTable DB 02eH
	DB	02fH
	DB	030H
	DB	031H
	DB	032H
	DB	033H
	DB	034H
	DB	035H
	DB	036H
	DB	037H
	DB	038H
	DB	039H
	DB	041H
	DB	042H
	DB	043H
	DB	044H
	DB	045H
	DB	046H
	DB	047H
	DB	048H
	DB	049H
	DB	04aH
	DB	04bH
	DB	04cH
	DB	04dH
	DB	04eH
	DB	04fH
	DB	050H
	DB	051H
	DB	052H
	DB	053H
	DB	054H
	DB	055H
	DB	056H
	DB	057H
	DB	058H
	DB	059H
	DB	05aH
	DB	061H
	DB	062H
	DB	063H
	DB	064H
	DB	065H
	DB	066H
	DB	067H
	DB	068H
	DB	069H
	DB	06aH
	DB	06bH
	DB	06cH
	DB	06dH
	DB	06eH
	DB	06fH
	DB	070H
	DB	071H
	DB	072H
	DB	073H
	DB	074H
	DB	075H
	DB	076H
	DB	077H
	DB	078H
	DB	079H
	DB	07aH
?charTableForKagami@@3PAEA DB 00H			; charTableForKagami
	DB	00H
	DB	00H
	DB	00H
	DB	00H
	DB	00H
	DB	00H
	DB	00H
	DB	00H
	DB	00H
	DB	00H
	DB	00H
	DB	00H
	DB	00H
	DB	00H
	DB	00H
	DB	00H
	DB	00H
	DB	00H
	DB	00H
	DB	00H
	DB	00H
	DB	00H
	DB	00H
	DB	00H
	DB	00H
	DB	00H
	DB	00H
	DB	00H
	DB	00H
	DB	00H
	DB	00H
	DB	00H
	DB	00H
	DB	00H
	DB	00H
	DB	00H
	DB	00H
	DB	00H
	DB	00H
	DB	00H
	DB	00H
	DB	00H
	DB	00H
	DB	00H
	DB	00H
	DB	02eH
	DB	00H
	DB	030H
	DB	00H
	DB	00H
	DB	00H
	DB	00H
	DB	00H
	DB	00H
	DB	00H
	DB	038H
	DB	00H
	DB	00H
	DB	00H
	DB	00H
	DB	00H
	DB	00H
	DB	00H
	DB	00H
	DB	041H
	DB	00H
	DB	00H
	DB	00H
	DB	00H
	DB	00H
	DB	00H
	DB	048H
	DB	049H
	DB	00H
	DB	00H
	DB	00H
	DB	04dH
	DB	00H
	DB	04fH
	DB	00H
	DB	00H
	DB	00H
	DB	00H
	DB	054H
	DB	055H
	DB	056H
	DB	057H
	DB	058H
	DB	059H
	DB	00H
	DB	00H
	DB	00H
	DB	00H
	DB	00H
	DB	00H
	DB	00H
	DB	00H
	DB	064H
	DB	00H
	DB	062H
	DB	00H
	DB	00H
	DB	00H
	DB	00H
	DB	069H
	DB	00H
	DB	00H
	DB	06cH
	DB	00H
	DB	00H
	DB	06fH
	DB	071H
	DB	070H
	DB	00H
	DB	00H
	DB	00H
	DB	00H
	DB	076H
	DB	077H
	DB	078H
	DB	00H
	DB	00H
	DB	00H
	DB	00H
	DB	00H
	DB	00H
	DB	00H
	DB	00H
	DB	00H
	DB	00H
	DB	00H
	DB	00H
	DB	00H
	DB	00H
	DB	00H
	DB	00H
	DB	00H
	DB	00H
	DB	00H
	DB	00H
	DB	00H
	DB	00H
	DB	00H
	DB	00H
	DB	00H
	DB	00H
	DB	00H
	DB	00H
	DB	00H
	DB	00H
	DB	00H
	DB	00H
	DB	00H
	DB	00H
	DB	00H
	DB	00H
	DB	00H
	DB	00H
	DB	00H
	DB	00H
	DB	00H
	DB	00H
	DB	00H
	DB	00H
	DB	00H
	DB	00H
	DB	00H
	DB	00H
	DB	00H
	DB	00H
	DB	00H
	DB	00H
	DB	00H
	DB	00H
	DB	00H
	DB	00H
	DB	00H
	DB	00H
	DB	00H
	DB	00H
	DB	00H
	DB	00H
	DB	00H
	DB	00H
	DB	00H
	DB	00H
	DB	00H
	DB	00H
	DB	00H
	DB	00H
	DB	00H
	DB	00H
	DB	00H
	DB	00H
	DB	00H
	DB	00H
	DB	00H
	DB	00H
	DB	00H
	DB	00H
	DB	00H
	DB	00H
	DB	00H
	DB	00H
	DB	00H
	DB	00H
	DB	00H
	DB	00H
	DB	00H
	DB	00H
	DB	00H
	DB	00H
	DB	00H
	DB	00H
	DB	00H
	DB	00H
	DB	00H
	DB	00H
	DB	00H
	DB	00H
	DB	00H
	DB	00H
	DB	00H
	DB	00H
	DB	00H
	DB	00H
	DB	00H
	DB	00H
	DB	00H
	DB	00H
	DB	00H
	DB	00H
	DB	00H
	DB	00H
	DB	00H
	DB	00H
	DB	00H
	DB	00H
	DB	00H
	DB	00H
	DB	00H
	DB	00H
	DB	00H
	DB	00H
	DB	00H
	DB	00H
	DB	00H
	DB	00H
	DB	00H
	DB	00H
	DB	00H
	DB	00H
	DB	00H
	DB	00H
	DB	00H
keySchedule DB	0cH
	DB	02eH
	DB	021H
	DB	034H
	DB	030H
	DB	014H
	DB	022H
	DB	037H
	DB	05H
	DB	0dH
	DB	012H
	DB	028H
	DB	04H
	DB	020H
	DB	01aH
	DB	01bH
	DB	026H
	DB	036H
	DB	035H
	DB	06H
	DB	01fH
	DB	019H
	DB	013H
	DB	029H
	DB	0fH
	DB	018H
	DB	01cH
	DB	02bH
	DB	01eH
	DB	03H
	DB	023H
	DB	016H
	DB	02H
	DB	02cH
	DB	0eH
	DB	017H
	DB	033H
	DB	010H
	DB	01dH
	DB	031H
	DB	07H
	DB	011H
	DB	025H
	DB	08H
	DB	09H
	DB	032H
	DB	02aH
	DB	015H
	DB	05H
	DB	027H
	DB	01aH
	DB	02dH
	DB	029H
	DB	0dH
	DB	01bH
	DB	030H
	DB	035H
	DB	06H
	DB	0bH
	DB	021H
	DB	034H
	DB	019H
	DB	013H
	DB	014H
	DB	01fH
	DB	02fH
	DB	02eH
	DB	036H
	DB	037H
	DB	012H
	DB	0cH
	DB	022H
	DB	08H
	DB	011H
	DB	015H
	DB	024H
	DB	017H
	DB	031H
	DB	01cH
	DB	0fH
	DB	018H
	DB	025H
	DB	07H
	DB	010H
	DB	02cH
	DB	09H
	DB	016H
	DB	02aH
	DB	00H
	DB	0aH
	DB	01eH
	DB	01H
	DB	02H
	DB	02bH
	DB	023H
	DB	0eH
	DB	02eH
	DB	019H
	DB	0cH
	DB	01fH
	DB	01bH
	DB	036H
	DB	0dH
	DB	022H
	DB	027H
	DB	02fH
	DB	034H
	DB	013H
	DB	026H
	DB	0bH
	DB	05H
	DB	06H
	DB	030H
	DB	021H
	DB	020H
	DB	028H
	DB	029H
	DB	04H
	DB	035H
	DB	014H
	DB	033H
	DB	03H
	DB	07H
	DB	016H
	DB	09H
	DB	023H
	DB	0eH
	DB	01H
	DB	0aH
	DB	017H
	DB	032H
	DB	02H
	DB	01eH
	DB	018H
	DB	08H
	DB	01cH
	DB	02bH
	DB	031H
	DB	010H
	DB	02cH
	DB	011H
	DB	01dH
	DB	015H
	DB	00H
	DB	020H
	DB	0bH
	DB	035H
	DB	030H
	DB	0dH
	DB	028H
	DB	036H
	DB	014H
	DB	019H
	DB	021H
	DB	026H
	DB	05H
	DB	037H
	DB	034H
	DB	02eH
	DB	02fH
	DB	022H
	DB	013H
	DB	012H
	DB	01aH
	DB	01bH
	DB	02dH
	DB	027H
	DB	06H
	DB	025H
	DB	02aH
	DB	032H
	DB	08H
	DB	018H
	DB	015H
	DB	00H
	DB	02cH
	DB	031H
	DB	09H
	DB	024H
	DB	011H
	DB	010H
	DB	0aH
	DB	033H
	DB	0eH
	DB	01dH
	DB	023H
	DB	02H
	DB	01eH
	DB	03H
	DB	0fH
	DB	07H
	DB	02bH
	DB	012H
	DB	034H
	DB	027H
	DB	022H
	DB	036H
	DB	01aH
	DB	028H
	DB	06H
	DB	0bH
	DB	013H
	DB	037H
	DB	02eH
	DB	029H
	DB	026H
	DB	020H
	DB	021H
	DB	014H
	DB	05H
	DB	04H
	DB	0cH
	DB	0dH
	DB	01fH
	DB	019H
	DB	02fH
	DB	017H
	DB	01cH
	DB	024H
	DB	033H
	DB	0aH
	DB	07H
	DB	02bH
	DB	01eH
	DB	023H
	DB	018H
	DB	016H
	DB	03H
	DB	02H
	DB	031H
	DB	025H
	DB	00H
	DB	0fH
	DB	015H
	DB	011H
	DB	010H
	DB	02aH
	DB	01H
	DB	032H
	DB	01dH
	DB	04H
	DB	026H
	DB	019H
	DB	014H
	DB	028H
	DB	0cH
	DB	01aH
	DB	02fH
	DB	034H
	DB	05H
	DB	029H
	DB	020H
	DB	01bH
	DB	037H
	DB	012H
	DB	013H
	DB	06H
	DB	02eH
	DB	02dH
	DB	035H
	DB	036H
	DB	030H
	DB	0bH
	DB	021H
	DB	09H
	DB	0eH
	DB	016H
	DB	025H
	DB	031H
	DB	032H
	DB	01dH
	DB	010H
	DB	015H
	DB	0aH
	DB	08H
	DB	02aH
	DB	011H
	DB	023H
	DB	017H
	DB	02bH
	DB	01H
	DB	07H
	DB	03H
	DB	02H
	DB	01cH
	DB	02cH
	DB	024H
	DB	0fH
	DB	02dH
	DB	037H
	DB	0bH
	DB	06H
	DB	01aH
	DB	035H
	DB	0cH
	DB	021H
	DB	026H
	DB	02eH
	DB	01bH
	DB	012H
	DB	0dH
	DB	029H
	DB	04H
	DB	05H
	DB	02fH
	DB	020H
	DB	01fH
	DB	027H
	DB	028H
	DB	022H
	DB	034H
	DB	013H
	DB	018H
	DB	00H
	DB	08H
	DB	017H
	DB	023H
	DB	024H
	DB	0fH
	DB	02H
	DB	07H
	DB	031H
	DB	033H
	DB	01cH
	DB	03H
	DB	015H
	DB	09H
	DB	01dH
	DB	02cH
	DB	032H
	DB	02aH
	DB	011H
	DB	0eH
	DB	01eH
	DB	016H
	DB	01H
	DB	01fH
	DB	029H
	DB	034H
	DB	02fH
	DB	0cH
	DB	027H
	DB	035H
	DB	013H
	DB	037H
	DB	020H
	DB	0dH
	DB	04H
	DB	036H
	DB	01bH
	DB	02dH
	DB	02eH
	DB	021H
	DB	012H
	DB	030H
	DB	019H
	DB	01aH
	DB	014H
	DB	026H
	DB	05H
	DB	0aH
	DB	02bH
	DB	033H
	DB	09H
	DB	015H
	DB	016H
	DB	01H
	DB	011H
	DB	032H
	DB	023H
	DB	025H
	DB	0eH
	DB	02aH
	DB	07H
	DB	018H
	DB	0fH
	DB	01eH
	DB	024H
	DB	01cH
	DB	03H
	DB	00H
	DB	010H
	DB	08H
	DB	02cH
	DB	037H
	DB	022H
	DB	02dH
	DB	028H
	DB	05H
	DB	020H
	DB	02eH
	DB	0cH
	DB	030H
	DB	019H
	DB	06H
	DB	034H
	DB	02fH
	DB	014H
	DB	026H
	DB	027H
	DB	01aH
	DB	0bH
	DB	029H
	DB	012H
	DB	013H
	DB	0dH
	DB	01fH
	DB	035H
	DB	03H
	DB	024H
	DB	02cH
	DB	02H
	DB	0eH
	DB	0fH
	DB	033H
	DB	0aH
	DB	02bH
	DB	01cH
	DB	01eH
	DB	07H
	DB	023H
	DB	00H
	DB	011H
	DB	08H
	DB	017H
	DB	01dH
	DB	015H
	DB	031H
	DB	032H
	DB	09H
	DB	01H
	DB	025H
	DB	029H
	DB	014H
	DB	01fH
	DB	01aH
	DB	02eH
	DB	012H
	DB	020H
	DB	035H
	DB	022H
	DB	0bH
	DB	02fH
	DB	026H
	DB	021H
	DB	06H
	DB	037H
	DB	019H
	DB	0cH
	DB	034H
	DB	01bH
	DB	04H
	DB	05H
	DB	036H
	DB	030H
	DB	027H
	DB	02aH
	DB	016H
	DB	01eH
	DB	011H
	DB	00H
	DB	01H
	DB	025H
	DB	031H
	DB	01dH
	DB	0eH
	DB	010H
	DB	032H
	DB	015H
	DB	02bH
	DB	03H
	DB	033H
	DB	09H
	DB	0fH
	DB	07H
	DB	023H
	DB	024H
	DB	018H
	DB	02cH
	DB	017H
	DB	01bH
	DB	06H
	DB	030H
	DB	0cH
	DB	020H
	DB	04H
	DB	012H
	DB	027H
	DB	014H
	DB	034H
	DB	021H
	DB	037H
	DB	013H
	DB	02fH
	DB	029H
	DB	0bH
	DB	035H
	DB	026H
	DB	0dH
	DB	02dH
	DB	02eH
	DB	028H
	DB	022H
	DB	019H
	DB	01cH
	DB	08H
	DB	010H
	DB	03H
	DB	02bH
	DB	02cH
	DB	017H
	DB	023H
	DB	0fH
	DB	00H
	DB	02H
	DB	024H
	DB	07H
	DB	01dH
	DB	02aH
	DB	025H
	DB	018H
	DB	01H
	DB	032H
	DB	015H
	DB	016H
	DB	0aH
	DB	01eH
	DB	09H
	DB	0dH
	DB	02fH
	DB	022H
	DB	035H
	DB	012H
	DB	02dH
	DB	04H
	DB	019H
	DB	06H
	DB	026H
	DB	013H
	DB	029H
	DB	05H
	DB	021H
	DB	01bH
	DB	034H
	DB	027H
	DB	037H
	DB	036H
	DB	01fH
	DB	020H
	DB	01aH
	DB	014H
	DB	0bH
	DB	0eH
	DB	033H
	DB	02H
	DB	02aH
	DB	01dH
	DB	01eH
	DB	09H
	DB	015H
	DB	01H
	DB	02bH
	DB	011H
	DB	016H
	DB	032H
	DB	0fH
	DB	01cH
	DB	017H
	DB	0aH
	DB	02cH
	DB	024H
	DB	07H
	DB	08H
	DB	031H
	DB	010H
	DB	018H
	DB	036H
	DB	021H
	DB	014H
	DB	027H
	DB	04H
	DB	01fH
	DB	02dH
	DB	0bH
	DB	02fH
	DB	037H
	DB	05H
	DB	01bH
	DB	02eH
	DB	013H
	DB	0dH
	DB	026H
	DB	019H
	DB	029H
	DB	028H
	DB	030H
	DB	012H
	DB	0cH
	DB	06H
	DB	034H
	DB	00H
	DB	025H
	DB	011H
	DB	01cH
	DB	0fH
	DB	010H
	DB	018H
	DB	07H
	DB	02cH
	DB	01dH
	DB	03H
	DB	08H
	DB	024H
	DB	01H
	DB	0eH
	DB	09H
	DB	031H
	DB	01eH
	DB	016H
	DB	032H
	DB	033H
	DB	023H
	DB	02H
	DB	0aH
	DB	028H
	DB	013H
	DB	06H
	DB	019H
	DB	02dH
	DB	030H
	DB	01fH
	DB	034H
	DB	021H
	DB	029H
	DB	02eH
	DB	0dH
	DB	020H
	DB	05H
	DB	036H
	DB	037H
	DB	0bH
	DB	01bH
	DB	01aH
	DB	022H
	DB	04H
	DB	035H
	DB	02fH
	DB	026H
	DB	02bH
	DB	017H
	DB	03H
	DB	0eH
	DB	01H
	DB	02H
	DB	0aH
	DB	032H
	DB	01eH
	DB	0fH
	DB	02aH
	DB	033H
	DB	016H
	DB	02cH
	DB	00H
	DB	018H
	DB	023H
	DB	010H
	DB	08H
	DB	024H
	DB	025H
	DB	015H
	DB	011H
	DB	031H
	DB	01aH
	DB	05H
	DB	02fH
	DB	0bH
	DB	01fH
	DB	022H
	DB	030H
	DB	026H
	DB	013H
	DB	01bH
	DB	020H
	DB	036H
	DB	012H
	DB	02eH
	DB	028H
	DB	029H
	DB	034H
	DB	0dH
	DB	0cH
	DB	014H
	DB	02dH
	DB	027H
	DB	021H
	DB	037H
	DB	01dH
	DB	09H
	DB	02aH
	DB	00H
	DB	02cH
	DB	011H
	DB	031H
	DB	024H
	DB	010H
	DB	01H
	DB	01cH
	DB	025H
	DB	08H
	DB	01eH
	DB	02bH
	DB	0aH
	DB	015H
	DB	02H
	DB	033H
	DB	016H
	DB	017H
	DB	07H
	DB	03H
	DB	023H
	DB	013H
	DB	035H
	DB	028H
	DB	04H
	DB	037H
	DB	01bH
	DB	029H
	DB	01fH
	DB	0cH
	DB	014H
	DB	019H
	DB	02fH
	DB	0bH
	DB	027H
	DB	021H
	DB	022H
	DB	02dH
	DB	06H
	DB	05H
	DB	0dH
	DB	026H
	DB	020H
	DB	01aH
	DB	030H
	DB	016H
	DB	02H
	DB	023H
	DB	032H
	DB	025H
	DB	0aH
	DB	02aH
	DB	01dH
	DB	09H
	DB	033H
	DB	015H
	DB	01eH
	DB	01H
	DB	017H
	DB	024H
	DB	03H
	DB	0eH
	DB	018H
	DB	02cH
	DB	0fH
	DB	010H
	DB	00H
	DB	031H
	DB	01cH
CONST	ENDS
;	COMDAT ??_C@_06FHFOAHML@system?$AA@
CONST	SEGMENT
??_C@_06FHFOAHML@system?$AA@ DB 'system', 00H		; `string'
CONST	ENDS
;	COMDAT ??_C@_0BG@PADBLCHM@iostream?5stream?5error?$AA@
CONST	SEGMENT
??_C@_0BG@PADBLCHM@iostream?5stream?5error?$AA@ DB 'iostream stream error'
	DB	00H						; `string'
CONST	ENDS
;	COMDAT ??_C@_08LLGCOLLL@iostream?$AA@
CONST	SEGMENT
??_C@_08LLGCOLLL@iostream?$AA@ DB 'iostream', 00H	; `string'
CONST	ENDS
;	COMDAT ??_C@_0O@BFJCFAAK@unknown?5error?$AA@
CONST	SEGMENT
??_C@_0O@BFJCFAAK@unknown?5error?$AA@ DB 'unknown error', 00H ; `string'
CONST	ENDS
;	COMDAT ??_C@_07DCLBNMLN@generic?$AA@
CONST	SEGMENT
??_C@_07DCLBNMLN@generic?$AA@ DB 'generic', 00H		; `string'
CONST	ENDS
PUBLIC	??$destroy@PEAD@?$allocator@D@std@@QEAAXPEAPEAD@Z ; std::allocator<char>::destroy<char * __ptr64>
PUBLIC	??$construct@PEADAEAPEAD@?$allocator@D@std@@QEAAXPEAPEADAEAPEAD@Z ; std::allocator<char>::construct<char * __ptr64,char * __ptr64 & __ptr64>
PUBLIC	??$destroy@PEAD@?$allocator_traits@V?$allocator@D@std@@@std@@SAXAEAV?$allocator@D@1@PEAPEAD@Z ; std::allocator_traits<std::allocator<char> >::destroy<char * __ptr64>
PUBLIC	??$construct@PEADAEAPEAD@?$allocator_traits@V?$allocator@D@std@@@std@@SAXAEAV?$allocator@D@1@PEAPEADAEAPEAD@Z ; std::allocator_traits<std::allocator<char> >::construct<char * __ptr64,char * __ptr64 & __ptr64>
PUBLIC	??$forward@AEAPEAD@std@@YAAEAPEADAEAPEAD@Z	; std::forward<char * __ptr64 & __ptr64>
PUBLIC	??$_Allocate@D@std@@YAPEAD_KPEAD@Z		; std::_Allocate<char>
PUBLIC	??$addressof@D@std@@YAPEADAEAD@Z		; std::addressof<char>
PUBLIC	??$destroy@PEAD@?$_Wrap_alloc@V?$allocator@D@std@@@std@@QEAAXPEAPEAD@Z ; std::_Wrap_alloc<std::allocator<char> >::destroy<char * __ptr64>
PUBLIC	??$construct@PEADAEAPEAD@?$_Wrap_alloc@V?$allocator@D@std@@@std@@QEAAXPEAPEADAEAPEAD@Z ; std::_Wrap_alloc<std::allocator<char> >::construct<char * __ptr64,char * __ptr64 & __ptr64>
PUBLIC	?max_size@?$allocator@D@std@@QEBA_KXZ		; std::allocator<char>::max_size
PUBLIC	?max_size@?$allocator_traits@V?$allocator@D@std@@@std@@SA_KAEBV?$allocator@D@2@@Z ; std::allocator_traits<std::allocator<char> >::max_size
PUBLIC	?allocate@?$allocator@D@std@@QEAAPEAD_K@Z	; std::allocator<char>::allocate
PUBLIC	?max_size@?$_Wrap_alloc@V?$allocator@D@std@@@std@@QEBA_KXZ ; std::_Wrap_alloc<std::allocator<char> >::max_size
PUBLIC	?allocate@?$_Wrap_alloc@V?$allocator@D@std@@@std@@QEAAPEAD_K@Z ; std::_Wrap_alloc<std::allocator<char> >::allocate
PUBLIC	?deallocate@?$allocator@D@std@@QEAAXPEAD_K@Z	; std::allocator<char>::deallocate
PUBLIC	?_Copy@?$basic_string@DU?$char_traits@D@std@@V?$allocator@D@2@@std@@QEAAX_K0@Z ; std::basic_string<char,std::char_traits<char>,std::allocator<char> >::_Copy
PUBLIC	?max_size@?$basic_string@DU?$char_traits@D@std@@V?$allocator@D@2@@std@@QEBA_KXZ ; std::basic_string<char,std::char_traits<char>,std::allocator<char> >::max_size
PUBLIC	??0?$_String_val@U?$_Simple_types@D@std@@@std@@QEAA@XZ ; std::_String_val<std::_Simple_types<char> >::_String_val<std::_Simple_types<char> >
PUBLIC	?deallocate@?$_Wrap_alloc@V?$allocator@D@std@@@std@@QEAAXPEAD_K@Z ; std::_Wrap_alloc<std::allocator<char> >::deallocate
PUBLIC	??0?$_Wrap_alloc@V?$allocator@D@std@@@std@@QEAA@XZ ; std::_Wrap_alloc<std::allocator<char> >::_Wrap_alloc<std::allocator<char> >
PUBLIC	?_Xran@?$basic_string@DU?$char_traits@D@std@@V?$allocator@D@2@@std@@QEBAXXZ ; std::basic_string<char,std::char_traits<char>,std::allocator<char> >::_Xran
PUBLIC	?_Xlen@?$basic_string@DU?$char_traits@D@std@@V?$allocator@D@2@@std@@QEBAXXZ ; std::basic_string<char,std::char_traits<char>,std::allocator<char> >::_Xlen
PUBLIC	?_Inside@?$basic_string@DU?$char_traits@D@std@@V?$allocator@D@2@@std@@QEAA_NPEBD@Z ; std::basic_string<char,std::char_traits<char>,std::allocator<char> >::_Inside
PUBLIC	?_Grow@?$basic_string@DU?$char_traits@D@std@@V?$allocator@D@2@@std@@QEAA_N_K_N@Z ; std::basic_string<char,std::char_traits<char>,std::allocator<char> >::_Grow
PUBLIC	?erase@?$basic_string@DU?$char_traits@D@std@@V?$allocator@D@2@@std@@QEAAAEAV12@_K@Z ; std::basic_string<char,std::char_traits<char>,std::allocator<char> >::erase
PUBLIC	?_Myptr@?$_String_val@U?$_Simple_types@D@std@@@std@@QEBAPEBDXZ ; std::_String_val<std::_Simple_types<char> >::_Myptr
PUBLIC	?_Myptr@?$_String_val@U?$_Simple_types@D@std@@@std@@QEAAPEADXZ ; std::_String_val<std::_Simple_types<char> >::_Myptr
PUBLIC	?_Getal@?$_String_alloc@$0A@U?$_String_base_types@DV?$allocator@D@std@@@std@@@std@@QEBA?AU?$_Wrap_alloc@V?$allocator@D@std@@@2@XZ ; std::_String_alloc<0,std::_String_base_types<char,std::allocator<char> > >::_Getal
PUBLIC	??0?$_String_alloc@$0A@U?$_String_base_types@DV?$allocator@D@std@@@std@@@std@@QEAA@AEBV?$allocator@D@1@@Z ; std::_String_alloc<0,std::_String_base_types<char,std::allocator<char> > >::_String_alloc<0,std::_String_base_types<char,std::allocator<char> > >
PUBLIC	??0?$allocator@D@std@@QEAA@XZ			; std::allocator<char>::allocator<char>
PUBLIC	?_Tidy@?$basic_string@DU?$char_traits@D@std@@V?$allocator@D@2@@std@@QEAAX_N_K@Z ; std::basic_string<char,std::char_traits<char>,std::allocator<char> >::_Tidy
PUBLIC	?_Eos@?$basic_string@DU?$char_traits@D@std@@V?$allocator@D@2@@std@@QEAAX_K@Z ; std::basic_string<char,std::char_traits<char>,std::allocator<char> >::_Eos
PUBLIC	?erase@?$basic_string@DU?$char_traits@D@std@@V?$allocator@D@2@@std@@QEAAAEAV12@_K0@Z ; std::basic_string<char,std::char_traits<char>,std::allocator<char> >::erase
PUBLIC	?assign@?$basic_string@DU?$char_traits@D@std@@V?$allocator@D@2@@std@@QEAAAEAV12@PEBD_K@Z ; std::basic_string<char,std::char_traits<char>,std::allocator<char> >::assign
PUBLIC	?assign@?$basic_string@DU?$char_traits@D@std@@V?$allocator@D@2@@std@@QEAAAEAV12@AEBV12@_K1@Z ; std::basic_string<char,std::char_traits<char>,std::allocator<char> >::assign
PUBLIC	?size@?$basic_string@DU?$char_traits@D@std@@V?$allocator@D@2@@std@@QEBA_KXZ ; std::basic_string<char,std::char_traits<char>,std::allocator<char> >::size
PUBLIC	?assign@?$basic_string@DU?$char_traits@D@std@@V?$allocator@D@2@@std@@QEAAAEAV12@PEBD@Z ; std::basic_string<char,std::char_traits<char>,std::allocator<char> >::assign
PUBLIC	??1?$basic_string@DU?$char_traits@D@std@@V?$allocator@D@2@@std@@QEAA@XZ ; std::basic_string<char,std::char_traits<char>,std::allocator<char> >::~basic_string<char,std::char_traits<char>,std::allocator<char> >
PUBLIC	??0?$basic_string@DU?$char_traits@D@std@@V?$allocator@D@2@@std@@QEAA@PEBD@Z ; std::basic_string<char,std::char_traits<char>,std::allocator<char> >::basic_string<char,std::char_traits<char>,std::allocator<char> >
PUBLIC	?Thread_SearchForDESTripcodesOnCPU@@YAXXZ	; Thread_SearchForDESTripcodesOnCPU
PUBLIC	?CPU_DES_MainLoop@@YAXXZ			; CPU_DES_MainLoop
PUBLIC	??0_Ignore@std@@QEAA@XZ				; std::_Ignore::_Ignore
PUBLIC	?system_category@std@@YAAEBVerror_category@1@XZ	; std::system_category
PUBLIC	?generic_category@std@@YAAEBVerror_category@1@XZ ; std::generic_category
PUBLIC	??1_System_error_category@std@@UEAA@XZ		; std::_System_error_category::~_System_error_category
PUBLIC	??_G_System_error_category@std@@UEAAPEAXI@Z	; std::_System_error_category::`scalar deleting destructor'
PUBLIC	?default_error_condition@_System_error_category@std@@UEBA?AVerror_condition@2@H@Z ; std::_System_error_category::default_error_condition
PUBLIC	?message@_System_error_category@std@@UEBA?AV?$basic_string@DU?$char_traits@D@std@@V?$allocator@D@2@@2@H@Z ; std::_System_error_category::message
PUBLIC	?name@_System_error_category@std@@UEBAPEBDXZ	; std::_System_error_category::name
PUBLIC	??0_System_error_category@std@@QEAA@XZ		; std::_System_error_category::_System_error_category
PUBLIC	??1_Iostream_error_category@std@@UEAA@XZ	; std::_Iostream_error_category::~_Iostream_error_category
PUBLIC	??_G_Iostream_error_category@std@@UEAAPEAXI@Z	; std::_Iostream_error_category::`scalar deleting destructor'
PUBLIC	?message@_Iostream_error_category@std@@UEBA?AV?$basic_string@DU?$char_traits@D@std@@V?$allocator@D@2@@2@H@Z ; std::_Iostream_error_category::message
PUBLIC	?name@_Iostream_error_category@std@@UEBAPEBDXZ	; std::_Iostream_error_category::name
PUBLIC	??0_Iostream_error_category@std@@QEAA@XZ	; std::_Iostream_error_category::_Iostream_error_category
PUBLIC	??1_Generic_error_category@std@@UEAA@XZ		; std::_Generic_error_category::~_Generic_error_category
PUBLIC	??_G_Generic_error_category@std@@UEAAPEAXI@Z	; std::_Generic_error_category::`scalar deleting destructor'
PUBLIC	?message@_Generic_error_category@std@@UEBA?AV?$basic_string@DU?$char_traits@D@std@@V?$allocator@D@2@@2@H@Z ; std::_Generic_error_category::message
PUBLIC	?name@_Generic_error_category@std@@UEBAPEBDXZ	; std::_Generic_error_category::name
PUBLIC	??0_Generic_error_category@std@@QEAA@XZ		; std::_Generic_error_category::_Generic_error_category
PUBLIC	?equivalent@error_category@std@@UEBA_NAEBVerror_code@2@H@Z ; std::error_category::equivalent
PUBLIC	?equivalent@error_category@std@@UEBA_NHAEBVerror_condition@2@@Z ; std::error_category::equivalent
PUBLIC	?default_error_condition@error_category@std@@UEBA?AVerror_condition@2@H@Z ; std::error_category::default_error_condition
PUBLIC	??8error_condition@std@@QEBA_NAEBV01@@Z		; std::error_condition::operator==
PUBLIC	?category@error_condition@std@@QEBAAEBVerror_category@2@XZ ; std::error_condition::category
PUBLIC	?value@error_condition@std@@QEBAHXZ		; std::error_condition::value
PUBLIC	??0error_condition@std@@QEAA@HAEBVerror_category@1@@Z ; std::error_condition::error_condition
PUBLIC	?category@error_code@std@@QEBAAEBVerror_category@2@XZ ; std::error_code::category
PUBLIC	?value@error_code@std@@QEBAHXZ			; std::error_code::value
PUBLIC	??_Gerror_category@std@@UEAAPEAXI@Z		; std::error_category::`scalar deleting destructor'
PUBLIC	??8error_category@std@@QEBA_NAEBV01@@Z		; std::error_category::operator==
PUBLIC	??1error_category@std@@UEAA@XZ			; std::error_category::~error_category
PUBLIC	??0error_category@std@@QEAA@XZ			; std::error_category::error_category
PUBLIC	??0id@locale@std@@QEAA@_K@Z			; std::locale::id::id
PUBLIC	?assign@?$char_traits@D@std@@SAXAEADAEBD@Z	; std::char_traits<char>::assign
PUBLIC	?move@?$char_traits@D@std@@SAPEADPEADPEBD_K@Z	; std::char_traits<char>::move
PUBLIC	?copy@?$char_traits@D@std@@SAPEADPEADPEBD_K@Z	; std::char_traits<char>::copy
PUBLIC	?length@?$char_traits@D@std@@SA_KPEBD@Z		; std::char_traits<char>::length
PUBLIC	??3@YAXPEAX0@Z					; operator delete
PUBLIC	??2@YAPEAX_KPEAX@Z				; operator new
PUBLIC	?id@?$num_put@_WV?$back_insert_iterator@V?$basic_string@_WU?$char_traits@_W@std@@V?$allocator@_W@2@@std@@@std@@@std@@2V0locale@2@A ; std::num_put<wchar_t,std::back_insert_iterator<std::basic_string<wchar_t,std::char_traits<wchar_t>,std::allocator<wchar_t> > > >::id
PUBLIC	?_System_object@?$_Error_objects@H@std@@2V_System_error_category@2@A ; std::_Error_objects<int>::_System_object
PUBLIC	?id@?$numpunct@_W@std@@2V0locale@2@A		; std::numpunct<wchar_t>::id
PUBLIC	?id@?$num_put@DV?$back_insert_iterator@V?$basic_string@DU?$char_traits@D@std@@V?$allocator@D@2@@std@@@std@@@std@@2V0locale@2@A ; std::num_put<char,std::back_insert_iterator<std::basic_string<char,std::char_traits<char>,std::allocator<char> > > >::id
PUBLIC	?_Iostream_object@?$_Error_objects@H@std@@2V_Iostream_error_category@2@A ; std::_Error_objects<int>::_Iostream_object
PUBLIC	?_Generic_object@?$_Error_objects@H@std@@2V_Generic_error_category@2@A ; std::_Error_objects<int>::_Generic_object
PUBLIC	?id@?$codecvt@DDH@std@@2V0locale@2@A		; std::codecvt<char,char,int>::id
PUBLIC	?id@?$numpunct@D@std@@2V0locale@2@A		; std::numpunct<char>::id
PUBLIC	__real@0010000000000000
PUBLIC	__real@0010000000000001
PUBLIC	__real@38aa95a5b7f87a0f
PUBLIC	__real@3a83126f
PUBLIC	__real@3cb0000000000000
PUBLIC	__real@3d719799812dea11
PUBLIC	__real@3e112e0be826d695
PUBLIC	__real@3f50624dd2f1a9fc
PUBLIC	__real@3f847ae147ae147b
PUBLIC	__real@3f90000000000000
PUBLIC	__real@3fb0000000000000
PUBLIC	__real@3fc0000000000000
PUBLIC	__real@3fc4000000000000
PUBLIC	__real@3fd8000000000000
PUBLIC	__real@3fda000000000000
PUBLIC	__real@3fdc000000000000
PUBLIC	__real@3fe0000000000000
PUBLIC	__real@3ff0000000000000
PUBLIC	__real@4000000000000000
PUBLIC	__real@4024000000000000
PUBLIC	__real@404e000000000000
PUBLIC	__real@4059000000000000
PUBLIC	__real@40ac200000000000
PUBLIC	__real@40f5180000000000
PUBLIC	__real@412e848000000000
PUBLIC	__real@414409ffffffffff
PUBLIC	__real@417e133800000000
PUBLIC	__real@4197d78400000000
PUBLIC	__real@41e77f03c0000000
PUBLIC	__real@4202a05f20000000
PUBLIC	__real@43e0000000000000
PUBLIC	__real@43f0000000000000
PUBLIC	__real@4733426172c74d82
PUBLIC	__real@7fefffffffffffff
PUBLIC	__real@bf847ae147ae147b
PUBLIC	__real@c059000000000000
PUBLIC	__xmm@00000060000000600000006000000060
PUBLIC	__xmm@00000100000001000000010000000100
PUBLIC	__xmm@000106e0000206f0000206c000020650
PUBLIC	__xmm@7fffffffffffffff7fffffffffffffff
PUBLIC	__xmm@80000000000000008000000000000000
PUBLIC	__xmm@80000000800000008000000080000000
EXTRN	??_E_Generic_error_category@std@@UEAAPEAXI@Z:PROC ; std::_Generic_error_category::`vector deleting destructor'
EXTRN	??_E_Iostream_error_category@std@@UEAAPEAXI@Z:PROC ; std::_Iostream_error_category::`vector deleting destructor'
EXTRN	??_E_System_error_category@std@@UEAAPEAXI@Z:PROC ; std::_System_error_category::`vector deleting destructor'
EXTRN	??_Eerror_category@std@@UEAAPEAXI@Z:PROC	; std::error_category::`vector deleting destructor'
EXTRN	_CxxThrowException:PROC
EXTRN	__CxxFrameHandler3:PROC
EXTRN	__GSHandlerCheck:PROC
EXTRN	__GSHandlerCheck_EH:PROC
EXTRN	__chkstk:PROC
EXTRN	floor:PROC
EXTRN	memcmp:PROC
EXTRN	memcpy:PROC
EXTRN	memset:PROC
EXTRN	strcmp:PROC
EXTRN	__ImageBase:BYTE
EXTRN	__security_cookie:QWORD
EXTRN	_fltused:DWORD
_Tuple_alloc DB	01H DUP (?)
_BSS	ENDS
;	COMDAT ?id@?$num_put@_WV?$back_insert_iterator@V?$basic_string@_WU?$char_traits@_W@std@@V?$allocator@_W@2@@std@@@std@@@std@@2V0locale@2@A
_BSS	SEGMENT
?id@?$num_put@_WV?$back_insert_iterator@V?$basic_string@_WU?$char_traits@_W@std@@V?$allocator@_W@2@@std@@@std@@@std@@2V0locale@2@A DQ 01H DUP (?) ; std::num_put<wchar_t,std::back_insert_iterator<std::basic_string<wchar_t,std::char_traits<wchar_t>,std::allocator<wchar_t> > > >::id
_BSS	ENDS
;	COMDAT ?id@?$numpunct@_W@std@@2V0locale@2@A
_BSS	SEGMENT
?id@?$numpunct@_W@std@@2V0locale@2@A DQ 01H DUP (?)	; std::numpunct<wchar_t>::id
_BSS	ENDS
;	COMDAT ?id@?$num_put@DV?$back_insert_iterator@V?$basic_string@DU?$char_traits@D@std@@V?$allocator@D@2@@std@@@std@@@std@@2V0locale@2@A
_BSS	SEGMENT
?id@?$num_put@DV?$back_insert_iterator@V?$basic_string@DU?$char_traits@D@std@@V?$allocator@D@2@@std@@@std@@@std@@2V0locale@2@A DQ 01H DUP (?) ; std::num_put<char,std::back_insert_iterator<std::basic_string<char,std::char_traits<char>,std::allocator<char> > > >::id
	ALIGN	8

errno_ecat DQ	01H DUP (?)
ignore	DB	01H DUP (?)
	ALIGN	4

allocator_arg DB 01H DUP (?)
	ALIGN	8

native_ecat DQ	01H DUP (?)
piecewise_construct DB 01H DUP (?)
_BSS	ENDS
;	COMDAT ?id@?$codecvt@DDH@std@@2V0locale@2@A
_BSS	SEGMENT
?id@?$codecvt@DDH@std@@2V0locale@2@A DQ 01H DUP (?)	; std::codecvt<char,char,int>::id
	ALIGN	8

posix_category DQ 01H DUP (?)
_BSS	ENDS
;	COMDAT ?id@?$numpunct@D@std@@2V0locale@2@A
_BSS	SEGMENT
?id@?$numpunct@D@std@@2V0locale@2@A DQ 01H DUP (?)	; std::numpunct<char>::id
_BSS	ENDS
;	COMDAT pdata
pdata	SEGMENT
$pdata$??$_Allocate@D@std@@YAPEAD_KPEAD@Z DD imagerel $LN10
	DD	imagerel $LN10+38
	DD	imagerel $unwind$??$_Allocate@D@std@@YAPEAD_KPEAD@Z
pdata	ENDS
;	COMDAT pdata
pdata	SEGMENT
$pdata$?allocate@?$allocator@D@std@@QEAAPEAD_K@Z DD imagerel $LN13
	DD	imagerel $LN13+41
	DD	imagerel $unwind$?allocate@?$allocator@D@std@@QEAAPEAD_K@Z
pdata	ENDS
;	COMDAT pdata
pdata	SEGMENT
$pdata$?allocate@?$_Wrap_alloc@V?$allocator@D@std@@@std@@QEAAPEAD_K@Z DD imagerel $LN16
	DD	imagerel $LN16+41
	DD	imagerel $unwind$?allocate@?$_Wrap_alloc@V?$allocator@D@std@@@std@@QEAAPEAD_K@Z
pdata	ENDS
;	COMDAT pdata
pdata	SEGMENT
$pdata$?_Copy@?$basic_string@DU?$char_traits@D@std@@V?$allocator@D@2@@std@@QEAAX_K0@Z DD imagerel $LN185
	DD	imagerel $LN185+257
	DD	imagerel $unwind$?_Copy@?$basic_string@DU?$char_traits@D@std@@V?$allocator@D@2@@std@@QEAAX_K0@Z
pdata	ENDS
;	COMDAT pdata
pdata	SEGMENT
$pdata$?catch$1@?0??_Copy@?$basic_string@DU?$char_traits@D@std@@V?$allocator@D@2@@std@@QEAAX_K0@Z@4HA DD imagerel ?catch$1@?0??_Copy@?$basic_string@DU?$char_traits@D@std@@V?$allocator@D@2@@std@@QEAAX_K0@Z@4HA
	DD	imagerel ?catch$1@?0??_Copy@?$basic_string@DU?$char_traits@D@std@@V?$allocator@D@2@@std@@QEAAX_K0@Z@4HA+67
	DD	imagerel $unwind$?catch$1@?0??_Copy@?$basic_string@DU?$char_traits@D@std@@V?$allocator@D@2@@std@@QEAAX_K0@Z@4HA
pdata	ENDS
;	COMDAT pdata
pdata	SEGMENT
$pdata$?catch$0@?0??_Copy@?$basic_string@DU?$char_traits@D@std@@V?$allocator@D@2@@std@@QEAAX_K0@Z@4HA DD imagerel ?catch$0@?0??_Copy@?$basic_string@DU?$char_traits@D@std@@V?$allocator@D@2@@std@@QEAAX_K0@Z@4HA
	DD	imagerel ?catch$0@?0??_Copy@?$basic_string@DU?$char_traits@D@std@@V?$allocator@D@2@@std@@QEAAX_K0@Z@4HA+62
	DD	imagerel $unwind$?catch$0@?0??_Copy@?$basic_string@DU?$char_traits@D@std@@V?$allocator@D@2@@std@@QEAAX_K0@Z@4HA
pdata	ENDS
;	COMDAT pdata
pdata	SEGMENT
$pdata$?_Xran@?$basic_string@DU?$char_traits@D@std@@V?$allocator@D@2@@std@@QEBAXXZ DD imagerel $LN4
	DD	imagerel $LN4+17
	DD	imagerel $unwind$?_Xran@?$basic_string@DU?$char_traits@D@std@@V?$allocator@D@2@@std@@QEBAXXZ
pdata	ENDS
;	COMDAT pdata
pdata	SEGMENT
$pdata$?_Xlen@?$basic_string@DU?$char_traits@D@std@@V?$allocator@D@2@@std@@QEBAXXZ DD imagerel $LN4
	DD	imagerel $LN4+17
	DD	imagerel $unwind$?_Xlen@?$basic_string@DU?$char_traits@D@std@@V?$allocator@D@2@@std@@QEBAXXZ
pdata	ENDS
;	COMDAT pdata
pdata	SEGMENT
$pdata$?_Grow@?$basic_string@DU?$char_traits@D@std@@V?$allocator@D@2@@std@@QEAA_N_K_N@Z DD imagerel $LN69
	DD	imagerel $LN69+30
	DD	imagerel $unwind$?_Grow@?$basic_string@DU?$char_traits@D@std@@V?$allocator@D@2@@std@@QEAA_N_K_N@Z
pdata	ENDS
;	COMDAT pdata
pdata	SEGMENT
$pdata$0$?_Grow@?$basic_string@DU?$char_traits@D@std@@V?$allocator@D@2@@std@@QEAA_N_K_N@Z DD imagerel $LN69+30
	DD	imagerel $LN69+64
	DD	imagerel $chain$0$?_Grow@?$basic_string@DU?$char_traits@D@std@@V?$allocator@D@2@@std@@QEAA_N_K_N@Z
pdata	ENDS
;	COMDAT pdata
pdata	SEGMENT
$pdata$1$?_Grow@?$basic_string@DU?$char_traits@D@std@@V?$allocator@D@2@@std@@QEAA_N_K_N@Z DD imagerel $LN69+64
	DD	imagerel $LN69+86
	DD	imagerel $chain$1$?_Grow@?$basic_string@DU?$char_traits@D@std@@V?$allocator@D@2@@std@@QEAA_N_K_N@Z
pdata	ENDS
;	COMDAT pdata
pdata	SEGMENT
$pdata$2$?_Grow@?$basic_string@DU?$char_traits@D@std@@V?$allocator@D@2@@std@@QEAA_N_K_N@Z DD imagerel $LN69+86
	DD	imagerel $LN69+123
	DD	imagerel $chain$2$?_Grow@?$basic_string@DU?$char_traits@D@std@@V?$allocator@D@2@@std@@QEAA_N_K_N@Z
pdata	ENDS
;	COMDAT pdata
pdata	SEGMENT
$pdata$3$?_Grow@?$basic_string@DU?$char_traits@D@std@@V?$allocator@D@2@@std@@QEAA_N_K_N@Z DD imagerel $LN69+123
	DD	imagerel $LN69+146
	DD	imagerel $chain$3$?_Grow@?$basic_string@DU?$char_traits@D@std@@V?$allocator@D@2@@std@@QEAA_N_K_N@Z
pdata	ENDS
;	COMDAT pdata
pdata	SEGMENT
$pdata$4$?_Grow@?$basic_string@DU?$char_traits@D@std@@V?$allocator@D@2@@std@@QEAA_N_K_N@Z DD imagerel $LN69+146
	DD	imagerel $LN69+189
	DD	imagerel $chain$4$?_Grow@?$basic_string@DU?$char_traits@D@std@@V?$allocator@D@2@@std@@QEAA_N_K_N@Z
pdata	ENDS
;	COMDAT pdata
pdata	SEGMENT
$pdata$5$?_Grow@?$basic_string@DU?$char_traits@D@std@@V?$allocator@D@2@@std@@QEAA_N_K_N@Z DD imagerel $LN69+189
	DD	imagerel $LN69+202
	DD	imagerel $chain$5$?_Grow@?$basic_string@DU?$char_traits@D@std@@V?$allocator@D@2@@std@@QEAA_N_K_N@Z
pdata	ENDS
;	COMDAT pdata
pdata	SEGMENT
$pdata$?erase@?$basic_string@DU?$char_traits@D@std@@V?$allocator@D@2@@std@@QEAAAEAV12@_K@Z DD imagerel $LN20
	DD	imagerel $LN20+61
	DD	imagerel $unwind$?erase@?$basic_string@DU?$char_traits@D@std@@V?$allocator@D@2@@std@@QEAAAEAV12@_K@Z
pdata	ENDS
;	COMDAT pdata
pdata	SEGMENT
$pdata$?_Tidy@?$basic_string@DU?$char_traits@D@std@@V?$allocator@D@2@@std@@QEAAX_N_K@Z DD imagerel $LN32
	DD	imagerel $LN32+27
	DD	imagerel $unwind$?_Tidy@?$basic_string@DU?$char_traits@D@std@@V?$allocator@D@2@@std@@QEAAX_N_K@Z
pdata	ENDS
;	COMDAT pdata
pdata	SEGMENT
$pdata$0$?_Tidy@?$basic_string@DU?$char_traits@D@std@@V?$allocator@D@2@@std@@QEAAX_N_K@Z DD imagerel $LN32+27
	DD	imagerel $LN32+61
	DD	imagerel $chain$0$?_Tidy@?$basic_string@DU?$char_traits@D@std@@V?$allocator@D@2@@std@@QEAAX_N_K@Z
pdata	ENDS
;	COMDAT pdata
pdata	SEGMENT
$pdata$1$?_Tidy@?$basic_string@DU?$char_traits@D@std@@V?$allocator@D@2@@std@@QEAAX_N_K@Z DD imagerel $LN32+61
	DD	imagerel $LN32+88
	DD	imagerel $chain$1$?_Tidy@?$basic_string@DU?$char_traits@D@std@@V?$allocator@D@2@@std@@QEAAX_N_K@Z
pdata	ENDS
;	COMDAT pdata
pdata	SEGMENT
$pdata$?erase@?$basic_string@DU?$char_traits@D@std@@V?$allocator@D@2@@std@@QEAAAEAV12@_K0@Z DD imagerel $LN43
	DD	imagerel $LN43+203
	DD	imagerel $unwind$?erase@?$basic_string@DU?$char_traits@D@std@@V?$allocator@D@2@@std@@QEAAAEAV12@_K0@Z
pdata	ENDS
;	COMDAT pdata
pdata	SEGMENT
$pdata$?assign@?$basic_string@DU?$char_traits@D@std@@V?$allocator@D@2@@std@@QEAAAEAV12@PEBD_K@Z DD imagerel $LN118
	DD	imagerel $LN118+306
	DD	imagerel $unwind$?assign@?$basic_string@DU?$char_traits@D@std@@V?$allocator@D@2@@std@@QEAAAEAV12@PEBD_K@Z
pdata	ENDS
;	COMDAT pdata
pdata	SEGMENT
$pdata$?assign@?$basic_string@DU?$char_traits@D@std@@V?$allocator@D@2@@std@@QEAAAEAV12@AEBV12@_K1@Z DD imagerel $LN129
	DD	imagerel $LN129+299
	DD	imagerel $unwind$?assign@?$basic_string@DU?$char_traits@D@std@@V?$allocator@D@2@@std@@QEAAAEAV12@AEBV12@_K1@Z
pdata	ENDS
;	COMDAT pdata
pdata	SEGMENT
$pdata$??1?$basic_string@DU?$char_traits@D@std@@V?$allocator@D@2@@std@@QEAA@XZ DD imagerel $LN34
	DD	imagerel $LN34+49
	DD	imagerel $unwind$??1?$basic_string@DU?$char_traits@D@std@@V?$allocator@D@2@@std@@QEAA@XZ
pdata	ENDS
;	COMDAT pdata
pdata	SEGMENT
$pdata$??0?$basic_string@DU?$char_traits@D@std@@V?$allocator@D@2@@std@@QEAA@PEBD@Z DD imagerel $LN47
	DD	imagerel $LN47+60
	DD	imagerel $unwind$??0?$basic_string@DU?$char_traits@D@std@@V?$allocator@D@2@@std@@QEAA@PEBD@Z
pdata	ENDS
;	COMDAT pdata
pdata	SEGMENT
$pdata$?Thread_SearchForDESTripcodesOnCPU@@YAXXZ DD imagerel $LN10
	DD	imagerel $LN10+56
	DD	imagerel $unwind$?Thread_SearchForDESTripcodesOnCPU@@YAXXZ
pdata	ENDS
;	COMDAT pdata
pdata	SEGMENT
$pdata$?CPU_DES_MainLoop@@YAXXZ DD imagerel $LN158
	DD	imagerel $LN158+774
	DD	imagerel $unwind$?CPU_DES_MainLoop@@YAXXZ
pdata	ENDS
;	COMDAT pdata
pdata	SEGMENT
$pdata$?GetCrypt25Address@@YAPEADPEAUDES_Context@@@Z DD imagerel ?GetCrypt25Address@@YAPEADPEAUDES_Context@@@Z
	DD	imagerel ?GetCrypt25Address@@YAPEADPEAUDES_Context@@@Z+58
	DD	imagerel $unwind$?GetCrypt25Address@@YAPEADPEAUDES_Context@@@Z
pdata	ENDS
;	COMDAT pdata
pdata	SEGMENT
$pdata$?SearchForTripcodes@@YAIPEAUDES_Context@@@Z DD imagerel ?SearchForTripcodes@@YAIPEAUDES_Context@@@Z
	DD	imagerel ?SearchForTripcodes@@YAIPEAUDES_Context@@@Z+54
	DD	imagerel $unwind$?SearchForTripcodes@@YAIPEAUDES_Context@@@Z
pdata	ENDS
;	COMDAT pdata
pdata	SEGMENT
$pdata$4$?SearchForTripcodes@@YAIPEAUDES_Context@@@Z DD imagerel ?SearchForTripcodes@@YAIPEAUDES_Context@@@Z+54
	DD	imagerel ?SearchForTripcodes@@YAIPEAUDES_Context@@@Z+7294
	DD	imagerel $chain$4$?SearchForTripcodes@@YAIPEAUDES_Context@@@Z
pdata	ENDS
;	COMDAT pdata
pdata	SEGMENT
$pdata$5$?SearchForTripcodes@@YAIPEAUDES_Context@@@Z DD imagerel ?SearchForTripcodes@@YAIPEAUDES_Context@@@Z+7294
	DD	imagerel ?SearchForTripcodes@@YAIPEAUDES_Context@@@Z+7300
	DD	imagerel $chain$5$?SearchForTripcodes@@YAIPEAUDES_Context@@@Z
pdata	ENDS
;	COMDAT pdata
pdata	SEGMENT
$pdata$?DES_GetTripcode@@YAPEAEPEAUDES_Context@@HPEAE@Z DD imagerel ?DES_GetTripcode@@YAPEAEPEAUDES_Context@@HPEAE@Z
	DD	imagerel ?DES_GetTripcode@@YAPEAEPEAUDES_Context@@HPEAE@Z+1172
	DD	imagerel $unwind$?DES_GetTripcode@@YAPEAEPEAUDES_Context@@HPEAE@Z
pdata	ENDS
;	COMDAT pdata
pdata	SEGMENT
$pdata$?DES_GetTripcodeChunks@@YAXPEAUDES_Context@@HPEAIH@Z DD imagerel ?DES_GetTripcodeChunks@@YAXPEAUDES_Context@@HPEAIH@Z
	DD	imagerel ?DES_GetTripcodeChunks@@YAXPEAUDES_Context@@HPEAIH@Z+3333
	DD	imagerel $unwind$?DES_GetTripcodeChunks@@YAXPEAUDES_Context@@HPEAIH@Z
pdata	ENDS
;	COMDAT pdata
pdata	SEGMENT
$pdata$?DES_SetSalt@@YAXPEAUDES_Context@@H@Z DD imagerel ?DES_SetSalt@@YAXPEAUDES_Context@@H@Z
	DD	imagerel ?DES_SetSalt@@YAXPEAUDES_Context@@H@Z+183
	DD	imagerel $unwind$?DES_SetSalt@@YAXPEAUDES_Context@@H@Z
pdata	ENDS
;	COMDAT pdata
pdata	SEGMENT
$pdata$?DES_RewriteCrypt25_x64_AVX2@@YAXPEAUDES_Context@@@Z DD imagerel ?DES_RewriteCrypt25_x64_AVX2@@YAXPEAUDES_Context@@@Z
	DD	imagerel ?DES_RewriteCrypt25_x64_AVX2@@YAXPEAUDES_Context@@@Z+366
	DD	imagerel $unwind$?DES_RewriteCrypt25_x64_AVX2@@YAXPEAUDES_Context@@@Z
pdata	ENDS
;	COMDAT pdata
pdata	SEGMENT
$pdata$?DES_RewriteCrypt25@@YAXPEAUDES_Context@@@Z DD imagerel ?DES_RewriteCrypt25@@YAXPEAUDES_Context@@@Z
	DD	imagerel ?DES_RewriteCrypt25@@YAXPEAUDES_Context@@@Z+593
	DD	imagerel $unwind$?DES_RewriteCrypt25@@YAXPEAUDES_Context@@@Z
pdata	ENDS
;	COMDAT pdata
pdata	SEGMENT
$pdata$??__Enative_ecat@system@boost@@YAXXZ DD imagerel ??__Enative_ecat@system@boost@@YAXXZ
	DD	imagerel ??__Enative_ecat@system@boost@@YAXXZ+21
	DD	imagerel $unwind$??__Enative_ecat@system@boost@@YAXXZ
pdata	ENDS
;	COMDAT pdata
pdata	SEGMENT
$pdata$??__Eerrno_ecat@system@boost@@YAXXZ DD imagerel ??__Eerrno_ecat@system@boost@@YAXXZ
	DD	imagerel ??__Eerrno_ecat@system@boost@@YAXXZ+21
	DD	imagerel $unwind$??__Eerrno_ecat@system@boost@@YAXXZ
pdata	ENDS
;	COMDAT pdata
pdata	SEGMENT
$pdata$??__Eposix_category@system@boost@@YAXXZ DD imagerel ??__Eposix_category@system@boost@@YAXXZ
	DD	imagerel ??__Eposix_category@system@boost@@YAXXZ+21
	DD	imagerel $unwind$??__Eposix_category@system@boost@@YAXXZ
pdata	ENDS
;	COMDAT pdata
pdata	SEGMENT
$pdata$??_G_System_error_category@std@@UEAAPEAXI@Z DD imagerel $LN12
	DD	imagerel $LN12+38
	DD	imagerel $unwind$??_G_System_error_category@std@@UEAAPEAXI@Z
pdata	ENDS
;	COMDAT pdata
pdata	SEGMENT
$pdata$?default_error_condition@_System_error_category@std@@UEBA?AVerror_condition@2@H@Z DD imagerel $LN15
	DD	imagerel $LN15+63
	DD	imagerel $unwind$?default_error_condition@_System_error_category@std@@UEBA?AVerror_condition@2@H@Z
pdata	ENDS
;	COMDAT pdata
pdata	SEGMENT
$pdata$?message@_System_error_category@std@@UEBA?AV?$basic_string@DU?$char_traits@D@std@@V?$allocator@D@2@@2@H@Z DD imagerel $LN51
	DD	imagerel $LN51+98
	DD	imagerel $unwind$?message@_System_error_category@std@@UEBA?AV?$basic_string@DU?$char_traits@D@std@@V?$allocator@D@2@@2@H@Z
pdata	ENDS
;	COMDAT pdata
pdata	SEGMENT
$pdata$??_G_Iostream_error_category@std@@UEAAPEAXI@Z DD imagerel $LN12
	DD	imagerel $LN12+38
	DD	imagerel $unwind$??_G_Iostream_error_category@std@@UEAAPEAXI@Z
pdata	ENDS
;	COMDAT pdata
pdata	SEGMENT
$pdata$?message@_Iostream_error_category@std@@UEBA?AV?$basic_string@DU?$char_traits@D@std@@V?$allocator@D@2@@2@H@Z DD imagerel $LN53
	DD	imagerel $LN53+77
	DD	imagerel $unwind$?message@_Iostream_error_category@std@@UEBA?AV?$basic_string@DU?$char_traits@D@std@@V?$allocator@D@2@@2@H@Z
pdata	ENDS
;	COMDAT pdata
pdata	SEGMENT
$pdata$??_G_Generic_error_category@std@@UEAAPEAXI@Z DD imagerel $LN10
	DD	imagerel $LN10+38
	DD	imagerel $unwind$??_G_Generic_error_category@std@@UEAAPEAXI@Z
pdata	ENDS
;	COMDAT pdata
pdata	SEGMENT
$pdata$?message@_Generic_error_category@std@@UEBA?AV?$basic_string@DU?$char_traits@D@std@@V?$allocator@D@2@@2@H@Z DD imagerel $LN51
	DD	imagerel $LN51+98
	DD	imagerel $unwind$?message@_Generic_error_category@std@@UEBA?AV?$basic_string@DU?$char_traits@D@std@@V?$allocator@D@2@@2@H@Z
pdata	ENDS
;	COMDAT pdata
pdata	SEGMENT
$pdata$?equivalent@error_category@std@@UEBA_NHAEBVerror_condition@2@@Z DD imagerel $LN18
	DD	imagerel $LN18+55
	DD	imagerel $unwind$?equivalent@error_category@std@@UEBA_NHAEBVerror_condition@2@@Z
pdata	ENDS
;	COMDAT pdata
pdata	SEGMENT
$pdata$??_Gerror_category@std@@UEAAPEAXI@Z DD imagerel $LN8
	DD	imagerel $LN8+38
	DD	imagerel $unwind$??_Gerror_category@std@@UEAAPEAXI@Z
pdata	ENDS
;	COMDAT pdata
pdata	SEGMENT
$pdata$?copy@?$char_traits@D@std@@SAPEADPEADPEBD_K@Z DD imagerel $LN7
	DD	imagerel $LN7+28
	DD	imagerel $unwind$?copy@?$char_traits@D@std@@SAPEADPEADPEBD_K@Z
pdata	ENDS
CRT$XCU	SEGMENT
posix_category$initializer$ DQ FLAT:??__Eposix_category@system@boost@@YAXXZ
;	COMDAT __xmm@80000000800000008000000080000000
CONST	SEGMENT
__xmm@80000000800000008000000080000000 DB 00H, 00H, 00H, 080H, 00H, 00H, 00H
	DB	080H, 00H, 00H, 00H, 080H, 00H, 00H, 00H, 080H
CONST	ENDS
;	COMDAT __xmm@80000000000000008000000000000000
CONST	SEGMENT
__xmm@80000000000000008000000000000000 DB 00H, 00H, 00H, 00H, 00H, 00H, 00H
	DB	080H, 00H, 00H, 00H, 00H, 00H, 00H, 00H, 080H
CONST	ENDS
;	COMDAT __xmm@7fffffffffffffff7fffffffffffffff
CONST	SEGMENT
__xmm@7fffffffffffffff7fffffffffffffff DB 0ffH, 0ffH, 0ffH, 0ffH, 0ffH, 0ffH
	DB	0ffH, 07fH, 0ffH, 0ffH, 0ffH, 0ffH, 0ffH, 0ffH, 0ffH, 07fH
CONST	ENDS
;	COMDAT __xmm@000106e0000206f0000206c000020650
CONST	SEGMENT
__xmm@000106e0000206f0000206c000020650 DB 'P', 06H, 02H, 00H, 0c0H, 06H, 02H
	DB	00H, 0f0H, 06H, 02H, 00H, 0e0H, 06H, 01H, 00H
CONST	ENDS
;	COMDAT __xmm@00000100000001000000010000000100
CONST	SEGMENT
__xmm@00000100000001000000010000000100 DB 00H, 01H, 00H, 00H, 00H, 01H, 00H
	DB	00H, 00H, 01H, 00H, 00H, 00H, 01H, 00H, 00H
CONST	ENDS
;	COMDAT __xmm@00000060000000600000006000000060
CONST	SEGMENT
__xmm@00000060000000600000006000000060 DB '`', 00H, 00H, 00H, '`', 00H, 00H
	DB	00H, '`', 00H, 00H, 00H, '`', 00H, 00H, 00H
CONST	ENDS
;	COMDAT __real@c059000000000000
CONST	SEGMENT
__real@c059000000000000 DQ 0c059000000000000r	; -100
CONST	ENDS
;	COMDAT __real@bf847ae147ae147b
CONST	SEGMENT
__real@bf847ae147ae147b DQ 0bf847ae147ae147br	; -0.01
CONST	ENDS
;	COMDAT __real@7fefffffffffffff
CONST	SEGMENT
__real@7fefffffffffffff DQ 07fefffffffffffffr	; 1.79769e+308
CONST	ENDS
;	COMDAT __real@4733426172c74d82
CONST	SEGMENT
__real@4733426172c74d82 DQ 04733426172c74d82r	; 1e+035
CONST	ENDS
;	COMDAT __real@43f0000000000000
CONST	SEGMENT
__real@43f0000000000000 DQ 043f0000000000000r	; 1.84467e+019
CONST	ENDS
;	COMDAT __real@43e0000000000000
CONST	SEGMENT
__real@43e0000000000000 DQ 043e0000000000000r	; 9.22337e+018
CONST	ENDS
;	COMDAT __real@4202a05f20000000
CONST	SEGMENT
__real@4202a05f20000000 DQ 04202a05f20000000r	; 1e+010
CONST	ENDS
;	COMDAT __real@41e77f03c0000000
CONST	SEGMENT
__real@41e77f03c0000000 DQ 041e77f03c0000000r	; 3.1536e+009
CONST	ENDS
;	COMDAT __real@4197d78400000000
CONST	SEGMENT
__real@4197d78400000000 DQ 04197d78400000000r	; 1e+008
CONST	ENDS
;	COMDAT __real@417e133800000000
CONST	SEGMENT
__real@417e133800000000 DQ 0417e133800000000r	; 3.1536e+007
CONST	ENDS
;	COMDAT __real@414409ffffffffff
CONST	SEGMENT
__real@414409ffffffffff DQ 0414409ffffffffffr	; 2.62656e+006
CONST	ENDS
;	COMDAT __real@412e848000000000
CONST	SEGMENT
__real@412e848000000000 DQ 0412e848000000000r	; 1e+006
CONST	ENDS
;	COMDAT __real@40f5180000000000
CONST	SEGMENT
__real@40f5180000000000 DQ 040f5180000000000r	; 86400
CONST	ENDS
;	COMDAT __real@40ac200000000000
CONST	SEGMENT
__real@40ac200000000000 DQ 040ac200000000000r	; 3600
CONST	ENDS
;	COMDAT __real@4059000000000000
CONST	SEGMENT
__real@4059000000000000 DQ 04059000000000000r	; 100
CONST	ENDS
;	COMDAT __real@404e000000000000
CONST	SEGMENT
__real@404e000000000000 DQ 0404e000000000000r	; 60
CONST	ENDS
;	COMDAT __real@4024000000000000
CONST	SEGMENT
__real@4024000000000000 DQ 04024000000000000r	; 10
CONST	ENDS
;	COMDAT __real@4000000000000000
CONST	SEGMENT
__real@4000000000000000 DQ 04000000000000000r	; 2
CONST	ENDS
;	COMDAT __real@3ff0000000000000
CONST	SEGMENT
__real@3ff0000000000000 DQ 03ff0000000000000r	; 1
CONST	ENDS
;	COMDAT __real@3fe0000000000000
CONST	SEGMENT
__real@3fe0000000000000 DQ 03fe0000000000000r	; 0.5
CONST	ENDS
;	COMDAT __real@3fdc000000000000
CONST	SEGMENT
__real@3fdc000000000000 DQ 03fdc000000000000r	; 0.4375
CONST	ENDS
;	COMDAT __real@3fda000000000000
CONST	SEGMENT
__real@3fda000000000000 DQ 03fda000000000000r	; 0.40625
CONST	ENDS
;	COMDAT __real@3fd8000000000000
CONST	SEGMENT
__real@3fd8000000000000 DQ 03fd8000000000000r	; 0.375
CONST	ENDS
;	COMDAT __real@3fc4000000000000
CONST	SEGMENT
__real@3fc4000000000000 DQ 03fc4000000000000r	; 0.15625
CONST	ENDS
;	COMDAT __real@3fc0000000000000
CONST	SEGMENT
__real@3fc0000000000000 DQ 03fc0000000000000r	; 0.125
CONST	ENDS
;	COMDAT __real@3fb0000000000000
CONST	SEGMENT
__real@3fb0000000000000 DQ 03fb0000000000000r	; 0.0625
CONST	ENDS
;	COMDAT __real@3f90000000000000
CONST	SEGMENT
__real@3f90000000000000 DQ 03f90000000000000r	; 0.015625
CONST	ENDS
;	COMDAT __real@3f847ae147ae147b
CONST	SEGMENT
__real@3f847ae147ae147b DQ 03f847ae147ae147br	; 0.01
CONST	ENDS
;	COMDAT __real@3f50624dd2f1a9fc
CONST	SEGMENT
__real@3f50624dd2f1a9fc DQ 03f50624dd2f1a9fcr	; 0.001
CONST	ENDS
;	COMDAT __real@3e112e0be826d695
CONST	SEGMENT
__real@3e112e0be826d695 DQ 03e112e0be826d695r	; 1e-009
CONST	ENDS
;	COMDAT __real@3d719799812dea11
CONST	SEGMENT
__real@3d719799812dea11 DQ 03d719799812dea11r	; 1e-012
CONST	ENDS
;	COMDAT __real@3cb0000000000000
CONST	SEGMENT
__real@3cb0000000000000 DQ 03cb0000000000000r	; 2.22045e-016
CONST	ENDS
;	COMDAT __real@3a83126f
CONST	SEGMENT
__real@3a83126f DD 03a83126fr			; 0.001
CONST	ENDS
;	COMDAT __real@38aa95a5b7f87a0f
CONST	SEGMENT
__real@38aa95a5b7f87a0f DQ 038aa95a5b7f87a0fr	; 1e-035
CONST	ENDS
;	COMDAT __real@0010000000000001
CONST	SEGMENT
__real@0010000000000001 DQ 00010000000000001r	; 2.22507e-308
CONST	ENDS
;	COMDAT __real@0010000000000000
CONST	SEGMENT
__real@0010000000000000 DQ 00010000000000000r	; 2.22507e-308
CONST	ENDS
;	COMDAT ?_Generic_object@?$_Error_objects@H@std@@2V_Generic_error_category@2@A
_DATA	SEGMENT
?_Generic_object@?$_Error_objects@H@std@@2V_Generic_error_category@2@A DQ FLAT:??_7_Generic_error_category@std@@6B@ ; std::_Error_objects<int>::_Generic_object
_DATA	ENDS
;	COMDAT ?_Iostream_object@?$_Error_objects@H@std@@2V_Iostream_error_category@2@A
_DATA	SEGMENT
?_Iostream_object@?$_Error_objects@H@std@@2V_Iostream_error_category@2@A DQ FLAT:??_7_Iostream_error_category@std@@6B@ ; std::_Error_objects<int>::_Iostream_object
_DATA	ENDS
;	COMDAT ?_System_object@?$_Error_objects@H@std@@2V_System_error_category@2@A
_DATA	SEGMENT
?_System_object@?$_Error_objects@H@std@@2V_System_error_category@2@A DQ FLAT:??_7_System_error_category@std@@6B@ ; std::_Error_objects<int>::_System_object
_DATA	ENDS
;	COMDAT xdata
xdata	SEGMENT
$unwind$?copy@?$char_traits@D@std@@SAPEADPEADPEBD_K@Z DD 020601H
	DD	030023206H
xdata	ENDS
;	COMDAT xdata
xdata	SEGMENT
$unwind$??_Gerror_category@std@@UEAAPEAXI@Z DD 020601H
	DD	030023206H
xdata	ENDS
;	COMDAT xdata
xdata	SEGMENT
$unwind$?equivalent@error_category@std@@UEBA_NHAEBVerror_condition@2@@Z DD 020601H
	DD	030025206H
xdata	ENDS
;	COMDAT xdata
xdata	SEGMENT
$unwind$?message@_Generic_error_category@std@@UEBA?AV?$basic_string@DU?$char_traits@D@std@@V?$allocator@D@2@@2@H@Z DD 040a01H
	DD	08340aH
	DD	07006520aH
xdata	ENDS
;	COMDAT xdata
xdata	SEGMENT
$unwind$??_G_Generic_error_category@std@@UEAAPEAXI@Z DD 020601H
	DD	030023206H
xdata	ENDS
;	COMDAT xdata
xdata	SEGMENT
$unwind$?message@_Iostream_error_category@std@@UEBA?AV?$basic_string@DU?$char_traits@D@std@@V?$allocator@D@2@@2@H@Z DD 020601H
	DD	030025206H
xdata	ENDS
;	COMDAT xdata
xdata	SEGMENT
$unwind$??_G_Iostream_error_category@std@@UEAAPEAXI@Z DD 020601H
	DD	030023206H
xdata	ENDS
;	COMDAT xdata
xdata	SEGMENT
$unwind$?message@_System_error_category@std@@UEBA?AV?$basic_string@DU?$char_traits@D@std@@V?$allocator@D@2@@2@H@Z DD 040a01H
	DD	08340aH
	DD	07006520aH
xdata	ENDS
;	COMDAT xdata
xdata	SEGMENT
$unwind$?default_error_condition@_System_error_category@std@@UEBA?AVerror_condition@2@H@Z DD 040a01H
	DD	06340aH
	DD	07006320aH
xdata	ENDS
;	COMDAT xdata
xdata	SEGMENT
$unwind$??_G_System_error_category@std@@UEAAPEAXI@Z DD 020601H
	DD	030023206H
xdata	ENDS
;	COMDAT xdata
xdata	SEGMENT
$unwind$??__Eposix_category@system@boost@@YAXXZ DD 010401H
	DD	04204H
xdata	ENDS
;	COMDAT xdata
xdata	SEGMENT
$unwind$??__Eerrno_ecat@system@boost@@YAXXZ DD 010401H
	DD	04204H
xdata	ENDS
;	COMDAT xdata
xdata	SEGMENT
$unwind$??__Enative_ecat@system@boost@@YAXXZ DD 010401H
	DD	04204H
xdata	ENDS
;	COMDAT xdata
xdata	SEGMENT
$unwind$?DES_RewriteCrypt25@@YAXPEAUDES_Context@@@Z DD 051f19H
	DD	033340dH
	DD	030010dH
	DD	07006H
	DD	imagerel __GSHandlerCheck
	DD	0170H
xdata	ENDS
;	COMDAT xdata
xdata	SEGMENT
$unwind$?DES_RewriteCrypt25_x64_AVX2@@YAXPEAUDES_Context@@@Z DD 021619H
	DD	0110107H
	DD	imagerel __GSHandlerCheck
	DD	070H
xdata	ENDS
;	COMDAT xdata
xdata	SEGMENT
$unwind$?DES_SetSalt@@YAXPEAUDES_Context@@H@Z DD 081401H
	DD	086414H
	DD	075414H
	DD	063414H
	DD	070103214H
xdata	ENDS
;	COMDAT xdata
xdata	SEGMENT
$unwind$?DES_GetTripcodeChunks@@YAXPEAUDES_Context@@HPEAIH@Z DD 040a01H
	DD	02740aH
	DD	013405H
xdata	ENDS
;	COMDAT xdata
xdata	SEGMENT
$unwind$?DES_GetTripcode@@YAPEAEPEAUDES_Context@@HPEAE@Z DD 020501H
	DD	013405H
xdata	ENDS
;	COMDAT xdata
xdata	SEGMENT
$chain$5$?SearchForTripcodes@@YAIPEAUDES_Context@@@Z DD 021H
	DD	imagerel ?SearchForTripcodes@@YAIPEAUDES_Context@@@Z
	DD	imagerel ?SearchForTripcodes@@YAIPEAUDES_Context@@@Z+54
	DD	imagerel $unwind$?SearchForTripcodes@@YAIPEAUDES_Context@@@Z
xdata	ENDS
;	COMDAT xdata
xdata	SEGMENT
$chain$4$?SearchForTripcodes@@YAIPEAUDES_Context@@@Z DD 0a1c21H
	DD	01cf41cH
	DD	01de410H
	DD	025c40cH
	DD	0247408H
	DD	0236404H
	DD	imagerel ?SearchForTripcodes@@YAIPEAUDES_Context@@@Z
	DD	imagerel ?SearchForTripcodes@@YAIPEAUDES_Context@@@Z+54
	DD	imagerel $unwind$?SearchForTripcodes@@YAIPEAUDES_Context@@@Z
xdata	ENDS
;	COMDAT xdata
xdata	SEGMENT
$unwind$?SearchForTripcodes@@YAIPEAUDES_Context@@@Z DD 052019H
	DD	01e0112H
	DD	03005d007H
	DD	05004H
	DD	imagerel __GSHandlerCheck
	DD	0d0H
xdata	ENDS
;	COMDAT xdata
xdata	SEGMENT
$unwind$?GetCrypt25Address@@YAPEADPEAUDES_Context@@@Z DD 010401H
	DD	04204H
xdata	ENDS
;	COMDAT xdata
xdata	SEGMENT
$unwind$?CPU_DES_MainLoop@@YAXXZ DD 092f19H
	DD	07cc641dH
	DD	07cb541dH
	DD	07ca341dH
	DD	07c8011dH
	DD	07010H
	DD	imagerel __GSHandlerCheck
	DD	03e30H
xdata	ENDS
;	COMDAT xdata
xdata	SEGMENT
$unwind$?Thread_SearchForDESTripcodesOnCPU@@YAXXZ DD 010401H
	DD	04204H
xdata	ENDS
;	COMDAT xdata
xdata	SEGMENT
$unwind$??0?$basic_string@DU?$char_traits@D@std@@V?$allocator@D@2@@std@@QEAA@PEBD@Z DD 020601H
	DD	030023206H
xdata	ENDS
;	COMDAT xdata
xdata	SEGMENT
$unwind$??1?$basic_string@DU?$char_traits@D@std@@V?$allocator@D@2@@std@@QEAA@XZ DD 020601H
	DD	030023206H
xdata	ENDS
;	COMDAT xdata
xdata	SEGMENT
$unwind$?assign@?$basic_string@DU?$char_traits@D@std@@V?$allocator@D@2@@std@@QEAAAEAV12@AEBV12@_K1@Z DD 081401H
	DD	086414H
	DD	075414H
	DD	063414H
	DD	070103214H
xdata	ENDS
;	COMDAT xdata
xdata	SEGMENT
$unwind$?assign@?$basic_string@DU?$char_traits@D@std@@V?$allocator@D@2@@std@@QEAAAEAV12@PEBD_K@Z DD 060f01H
	DD	07640fH
	DD	06340fH
	DD	0700b320fH
xdata	ENDS
;	COMDAT xdata
xdata	SEGMENT
$unwind$?erase@?$basic_string@DU?$char_traits@D@std@@V?$allocator@D@2@@std@@QEAAAEAV12@_K0@Z DD 040a01H
	DD	06340aH
	DD	07006320aH
xdata	ENDS
;	COMDAT xdata
xdata	SEGMENT
$chain$1$?_Tidy@?$basic_string@DU?$char_traits@D@std@@V?$allocator@D@2@@std@@QEAAX_N_K@Z DD 021H
	DD	imagerel $LN32
	DD	imagerel $LN32+27
	DD	imagerel $unwind$?_Tidy@?$basic_string@DU?$char_traits@D@std@@V?$allocator@D@2@@std@@QEAAX_N_K@Z
xdata	ENDS
;	COMDAT xdata
xdata	SEGMENT
$chain$0$?_Tidy@?$basic_string@DU?$char_traits@D@std@@V?$allocator@D@2@@std@@QEAAX_N_K@Z DD 020521H
	DD	066405H
	DD	imagerel $LN32
	DD	imagerel $LN32+27
	DD	imagerel $unwind$?_Tidy@?$basic_string@DU?$char_traits@D@std@@V?$allocator@D@2@@std@@QEAAX_N_K@Z
xdata	ENDS
;	COMDAT xdata
xdata	SEGMENT
$unwind$?_Tidy@?$basic_string@DU?$char_traits@D@std@@V?$allocator@D@2@@std@@QEAAX_N_K@Z DD 040a01H
	DD	07340aH
	DD	07006320aH
xdata	ENDS
;	COMDAT xdata
xdata	SEGMENT
$unwind$?erase@?$basic_string@DU?$char_traits@D@std@@V?$allocator@D@2@@std@@QEAAAEAV12@_K@Z DD 010401H
	DD	04204H
xdata	ENDS
;	COMDAT xdata
xdata	SEGMENT
$chain$5$?_Grow@?$basic_string@DU?$char_traits@D@std@@V?$allocator@D@2@@std@@QEAA_N_K_N@Z DD 021H
	DD	imagerel $LN69
	DD	imagerel $LN69+30
	DD	imagerel $unwind$?_Grow@?$basic_string@DU?$char_traits@D@std@@V?$allocator@D@2@@std@@QEAA_N_K_N@Z
xdata	ENDS
;	COMDAT xdata
xdata	SEGMENT
$chain$4$?_Grow@?$basic_string@DU?$char_traits@D@std@@V?$allocator@D@2@@std@@QEAA_N_K_N@Z DD 021H
	DD	imagerel $LN69+30
	DD	imagerel $LN69+64
	DD	imagerel $chain$0$?_Grow@?$basic_string@DU?$char_traits@D@std@@V?$allocator@D@2@@std@@QEAA_N_K_N@Z
xdata	ENDS
;	COMDAT xdata
xdata	SEGMENT
$chain$3$?_Grow@?$basic_string@DU?$char_traits@D@std@@V?$allocator@D@2@@std@@QEAA_N_K_N@Z DD 021H
	DD	imagerel $LN69+64
	DD	imagerel $LN69+86
	DD	imagerel $chain$1$?_Grow@?$basic_string@DU?$char_traits@D@std@@V?$allocator@D@2@@std@@QEAA_N_K_N@Z
xdata	ENDS
;	COMDAT xdata
xdata	SEGMENT
$chain$2$?_Grow@?$basic_string@DU?$char_traits@D@std@@V?$allocator@D@2@@std@@QEAA_N_K_N@Z DD 020521H
	DD	08e405H
	DD	imagerel $LN69+64
	DD	imagerel $LN69+86
	DD	imagerel $chain$1$?_Grow@?$basic_string@DU?$char_traits@D@std@@V?$allocator@D@2@@std@@QEAA_N_K_N@Z
xdata	ENDS
;	COMDAT xdata
xdata	SEGMENT
$chain$1$?_Grow@?$basic_string@DU?$char_traits@D@std@@V?$allocator@D@2@@std@@QEAA_N_K_N@Z DD 020521H
	DD	076405H
	DD	imagerel $LN69+30
	DD	imagerel $LN69+64
	DD	imagerel $chain$0$?_Grow@?$basic_string@DU?$char_traits@D@std@@V?$allocator@D@2@@std@@QEAA_N_K_N@Z
xdata	ENDS
;	COMDAT xdata
xdata	SEGMENT
$chain$0$?_Grow@?$basic_string@DU?$char_traits@D@std@@V?$allocator@D@2@@std@@QEAA_N_K_N@Z DD 020521H
	DD	065405H
	DD	imagerel $LN69
	DD	imagerel $LN69+30
	DD	imagerel $unwind$?_Grow@?$basic_string@DU?$char_traits@D@std@@V?$allocator@D@2@@std@@QEAA_N_K_N@Z
xdata	ENDS
;	COMDAT xdata
xdata	SEGMENT
$unwind$?_Grow@?$basic_string@DU?$char_traits@D@std@@V?$allocator@D@2@@std@@QEAA_N_K_N@Z DD 040a01H
	DD	09340aH
	DD	07006320aH
xdata	ENDS
;	COMDAT xdata
xdata	SEGMENT
$unwind$?_Xlen@?$basic_string@DU?$char_traits@D@std@@V?$allocator@D@2@@std@@QEBAXXZ DD 010401H
	DD	04204H
xdata	ENDS
;	COMDAT xdata
xdata	SEGMENT
$unwind$?_Xran@?$basic_string@DU?$char_traits@D@std@@V?$allocator@D@2@@std@@QEBAXXZ DD 010401H
	DD	04204H
xdata	ENDS
;	COMDAT xdata
xdata	SEGMENT
$unwind$?catch$0@?0??_Copy@?$basic_string@DU?$char_traits@D@std@@V?$allocator@D@2@@std@@QEAAX_K0@Z@4HA DD 030b19H
	DD	05007420bH
	DD	03006H
	DD	imagerel __CxxFrameHandler3
	DD	imagerel $cppxdata$?_Copy@?$basic_string@DU?$char_traits@D@std@@V?$allocator@D@2@@std@@QEAAX_K0@Z
xdata	ENDS
;	COMDAT xdata
xdata	SEGMENT
$unwind$?catch$1@?0??_Copy@?$basic_string@DU?$char_traits@D@std@@V?$allocator@D@2@@std@@QEAAX_K0@Z@4HA DD 020a19H
	DD	05006320aH
	DD	imagerel __CxxFrameHandler3
	DD	imagerel $cppxdata$?_Copy@?$basic_string@DU?$char_traits@D@std@@V?$allocator@D@2@@std@@QEAAX_K0@Z
xdata	ENDS
;	COMDAT xdata
xdata	SEGMENT
$ip2state$?_Copy@?$basic_string@DU?$char_traits@D@std@@V?$allocator@D@2@@std@@QEAAX_K0@Z DD imagerel ?_Copy@?$basic_string@DU?$char_traits@D@std@@V?$allocator@D@2@@std@@QEAAX_K0@Z
	DD	0ffffffffH
	DD	imagerel ?_Copy@?$basic_string@DU?$char_traits@D@std@@V?$allocator@D@2@@std@@QEAAX_K0@Z+110
	DD	00H
	DD	imagerel ?_Copy@?$basic_string@DU?$char_traits@D@std@@V?$allocator@D@2@@std@@QEAAX_K0@Z+147
	DD	0ffffffffH
	DD	imagerel ?catch$1@?0??_Copy@?$basic_string@DU?$char_traits@D@std@@V?$allocator@D@2@@std@@QEAAX_K0@Z@4HA
	DD	00H
	DD	imagerel ?catch$1@?0??_Copy@?$basic_string@DU?$char_traits@D@std@@V?$allocator@D@2@@std@@QEAAX_K0@Z@4HA+13
	DD	01H
	DD	imagerel ?catch$1@?0??_Copy@?$basic_string@DU?$char_traits@D@std@@V?$allocator@D@2@@std@@QEAAX_K0@Z@4HA+21
	DD	02H
	DD	imagerel ?catch$1@?0??_Copy@?$basic_string@DU?$char_traits@D@std@@V?$allocator@D@2@@std@@QEAAX_K0@Z@4HA+53
	DD	00H
	DD	imagerel ?catch$0@?0??_Copy@?$basic_string@DU?$char_traits@D@std@@V?$allocator@D@2@@std@@QEAAX_K0@Z@4HA+14
	DD	03H
xdata	ENDS
;	COMDAT xdata
xdata	SEGMENT
$handlerMap$1$?_Copy@?$basic_string@DU?$char_traits@D@std@@V?$allocator@D@2@@std@@QEAAX_K0@Z DD 040H
	DD	00H
	DD	00H
	DD	imagerel ?catch$0@?0??_Copy@?$basic_string@DU?$char_traits@D@std@@V?$allocator@D@2@@std@@QEAAX_K0@Z@4HA
	DD	048H
xdata	ENDS
;	COMDAT xdata
xdata	SEGMENT
$handlerMap$0$?_Copy@?$basic_string@DU?$char_traits@D@std@@V?$allocator@D@2@@std@@QEAAX_K0@Z DD 040H
	DD	00H
	DD	00H
	DD	imagerel ?catch$1@?0??_Copy@?$basic_string@DU?$char_traits@D@std@@V?$allocator@D@2@@std@@QEAAX_K0@Z@4HA
	DD	038H
xdata	ENDS
;	COMDAT xdata
xdata	SEGMENT
$tryMap$?_Copy@?$basic_string@DU?$char_traits@D@std@@V?$allocator@D@2@@std@@QEAAX_K0@Z DD 00H
	DD	00H
	DD	03H
	DD	01H
	DD	imagerel $handlerMap$0$?_Copy@?$basic_string@DU?$char_traits@D@std@@V?$allocator@D@2@@std@@QEAAX_K0@Z
	DD	02H
	DD	02H
	DD	03H
	DD	01H
	DD	imagerel $handlerMap$1$?_Copy@?$basic_string@DU?$char_traits@D@std@@V?$allocator@D@2@@std@@QEAAX_K0@Z
xdata	ENDS
;	COMDAT xdata
xdata	SEGMENT
$stateUnwindMap$?_Copy@?$basic_string@DU?$char_traits@D@std@@V?$allocator@D@2@@std@@QEAAX_K0@Z DD 0ffffffffH
	DD	00H
	DD	0ffffffffH
	DD	00H
	DD	01H
	DD	00H
	DD	01H
	DD	00H
xdata	ENDS
;	COMDAT CONST
CONST	SEGMENT
$cppxdata$?_Copy@?$basic_string@DU?$char_traits@D@std@@V?$allocator@D@2@@std@@QEAAX_K0@Z DD 019930522H
	DD	04H
	DD	imagerel $stateUnwindMap$?_Copy@?$basic_string@DU?$char_traits@D@std@@V?$allocator@D@2@@std@@QEAAX_K0@Z
	DD	02H
	DD	imagerel $tryMap$?_Copy@?$basic_string@DU?$char_traits@D@std@@V?$allocator@D@2@@std@@QEAAX_K0@Z
	DD	08H
	DD	imagerel $ip2state$?_Copy@?$basic_string@DU?$char_traits@D@std@@V?$allocator@D@2@@std@@QEAAX_K0@Z
	DD	020H
	DD	00H
	DD	01H
CONST	ENDS
;	COMDAT xdata
xdata	SEGMENT
$unwind$?_Copy@?$basic_string@DU?$char_traits@D@std@@V?$allocator@D@2@@std@@QEAAX_K0@Z DD 052119H
	DD	0e0146218H
	DD	060117012H
	DD	03010H
	DD	imagerel __CxxFrameHandler3
	DD	imagerel $cppxdata$?_Copy@?$basic_string@DU?$char_traits@D@std@@V?$allocator@D@2@@std@@QEAAX_K0@Z
xdata	ENDS
;	COMDAT xdata
xdata	SEGMENT
$unwind$?allocate@?$_Wrap_alloc@V?$allocator@D@std@@@std@@QEAAPEAD_K@Z DD 010401H
	DD	04204H
xdata	ENDS
;	COMDAT xdata
xdata	SEGMENT
$unwind$?allocate@?$allocator@D@std@@QEAAPEAD_K@Z DD 010401H
	DD	04204H
xdata	ENDS
;	COMDAT xdata
xdata	SEGMENT
$unwind$??$_Allocate@D@std@@YAPEAD_KPEAD@Z DD 010401H
	DD	04204H
xdata	ENDS
CRT$XCU	SEGMENT
errno_ecat$initializer$ DQ FLAT:??__Eerrno_ecat@system@boost@@YAXXZ
CRT$XCU	ENDS
CRT$XCU	SEGMENT
native_ecat$initializer$ DQ FLAT:??__Enative_ecat@system@boost@@YAXXZ
CRT$XCU	ENDS
;	COMDAT CRT$XCU
CRT$XCU	SEGMENT
?_Generic_object$initializer$@?$_Error_objects@H@std@@2P6AXXZEA DQ FLAT:??__E?_Generic_object@?$_Error_objects@H@std@@2V_Generic_error_category@2@A@@YAXXZ ; std::_Error_objects<int>::_Generic_object$initializer$
CRT$XCU	ENDS
;	COMDAT CRT$XCU
CRT$XCU	SEGMENT
?_Iostream_object$initializer$@?$_Error_objects@H@std@@2P6AXXZEA DQ FLAT:??__E?_Iostream_object@?$_Error_objects@H@std@@2V_Iostream_error_category@2@A@@YAXXZ ; std::_Error_objects<int>::_Iostream_object$initializer$
CRT$XCU	ENDS
;	COMDAT CRT$XCU
CRT$XCU	SEGMENT
?_System_object$initializer$@?$_Error_objects@H@std@@2P6AXXZEA DQ FLAT:??__E?_System_object@?$_Error_objects@H@std@@2V_System_error_category@2@A@@YAXXZ ; std::_Error_objects<int>::_System_object$initializer$
CRT$XCU	ENDS
CRT$XCU	ENDS
CRT$XCU	ENDS
CRT$XCU	ENDS
CRT$XCU	ENDS
CRT$XCU	ENDS
CRT$XCU	ENDS
CRT$XCU	ENDS
CRT$XCU	ENDS
CRT$XCU	ENDS
CRT$XCU	ENDS
CRT$XCU	ENDS
CRT$XCU	ENDS
CRT$XCU	ENDS
CRT$XCU	ENDS
CRT$XCU	ENDS
CRT$XCU	ENDS
CRT$XCU	ENDS
CRT$XCU	ENDS
CRT$XCU	ENDS
CRT$XCU	ENDS
CRT$XCU	ENDS
CRT$XCU	ENDS
CRT$XCU	ENDS
CRT$XCU	ENDS
CRT$XCU	ENDS
CRT$XCU	ENDS
CRT$XCU	ENDS
CRT$XCU	ENDS
CRT$XCU	ENDS
CRT$XCU	ENDS
CRT$XCU	ENDS
CRT$XCU	ENDS
CRT$XCU	ENDS
CRT$XCU	ENDS
CRT$XCU	ENDS
CRT$XCU	ENDS
; Function compile flags: /Ogtpy
; File c:\program files (x86)\microsoft visual studio 12.0\vc\include\new
;	COMDAT ??2@YAPEAX_KPEAX@Z
_TEXT	SEGMENT
__formal$ = 8
_Where$ = 16
??2@YAPEAX_KPEAX@Z PROC					; operator new, COMDAT

; 60   : 	return (_Where);

	mov	rax, rdx

; 61   : 	}

	ret	0
??2@YAPEAX_KPEAX@Z ENDP					; operator new
_TEXT	ENDS
; Function compile flags: /Ogtpy
; File c:\program files (x86)\microsoft visual studio 12.0\vc\include\new
;	COMDAT ??3@YAXPEAX0@Z
_TEXT	SEGMENT
__formal$ = 8
__formal$ = 16
??3@YAXPEAX0@Z PROC					; operator delete, COMDAT

; 65   : 	}

	ret	0
??3@YAXPEAX0@Z ENDP					; operator delete
_TEXT	ENDS
; Function compile flags: /Ogtpy
; File c:\program files (x86)\microsoft visual studio 12.0\vc\include\iosfwd
;	COMDAT ?length@?$char_traits@D@std@@SA_KPEBD@Z
_TEXT	SEGMENT
_First$ = 8
?length@?$char_traits@D@std@@SA_KPEBD@Z PROC		; std::char_traits<char>::length, COMDAT

; 522  : 		return (*_First == 0 ? 0
; 523  : 			: _CSTD strlen(_First));

	cmp	BYTE PTR [rcx], 0
	jne	SHORT $LN3@length
	xor	eax, eax

; 524  : 		}

	ret	0
$LN3@length:

; 522  : 		return (*_First == 0 ? 0
; 523  : 			: _CSTD strlen(_First));

	or	rax, -1
	npad	4
$LL5@length:
	inc	rax
	cmp	BYTE PTR [rcx+rax], 0
	jne	SHORT $LL5@length

; 524  : 		}

	ret	0
?length@?$char_traits@D@std@@SA_KPEBD@Z ENDP		; std::char_traits<char>::length
_TEXT	ENDS
; Function compile flags: /Ogtpy
; File c:\program files (x86)\microsoft visual studio 12.0\vc\include\iosfwd
;	COMDAT ?copy@?$char_traits@D@std@@SAPEADPEADPEBD_K@Z
_TEXT	SEGMENT
_First1$ = 48
_First2$ = 56
_Count$ = 64
?copy@?$char_traits@D@std@@SAPEADPEADPEBD_K@Z PROC	; std::char_traits<char>::copy, COMDAT

; 528  : 		{	// copy [_First2, _First2 + _Count) to [_First1, ...)

$LN7:
	push	rbx
	sub	rsp, 32					; 00000020H
	mov	rbx, rcx

; 529  : 		return (_Count == 0 ? _First1
; 530  : 			: (_Elem *)_CSTD memcpy(_First1, _First2, _Count));

	test	r8, r8
	je	SHORT $LN5@copy
	call	memcpy
$LN5@copy:
	mov	rax, rbx

; 531  : 		}

	add	rsp, 32					; 00000020H
	pop	rbx
	ret	0
?copy@?$char_traits@D@std@@SAPEADPEADPEBD_K@Z ENDP	; std::char_traits<char>::copy
_TEXT	ENDS
; Function compile flags: /Ogtpy
; File c:\program files (x86)\microsoft visual studio 12.0\vc\include\iosfwd
;	COMDAT ?move@?$char_traits@D@std@@SAPEADPEADPEBD_K@Z
_TEXT	SEGMENT
_First1$ = 8
_First2$ = 16
_Count$ = 24
?move@?$char_traits@D@std@@SAPEADPEADPEBD_K@Z PROC	; std::char_traits<char>::move, COMDAT

; 552  : 		return (_Count == 0 ? _First1
; 553  : 			: (_Elem *)_CSTD memmove(_First1, _First2, _Count));

	test	r8, r8
	jne	SHORT $LN3@move
	mov	rax, rcx

; 554  : 		}

	ret	0
$LN3@move:

; 552  : 		return (_Count == 0 ? _First1
; 553  : 			: (_Elem *)_CSTD memmove(_First1, _First2, _Count));

	jmp	memmove
?move@?$char_traits@D@std@@SAPEADPEADPEBD_K@Z ENDP	; std::char_traits<char>::move
_TEXT	ENDS
; Function compile flags: /Ogtpy
; File c:\program files (x86)\microsoft visual studio 12.0\vc\include\iosfwd
;	COMDAT ?assign@?$char_traits@D@std@@SAXAEADAEBD@Z
_TEXT	SEGMENT
_Left$ = 8
_Right$ = 16
?assign@?$char_traits@D@std@@SAXAEADAEBD@Z PROC		; std::char_traits<char>::assign, COMDAT

; 564  : 		_Left = _Right;

	movzx	eax, BYTE PTR [rdx]
	mov	BYTE PTR [rcx], al

; 565  : 		}

	ret	0
?assign@?$char_traits@D@std@@SAXAEADAEBD@Z ENDP		; std::char_traits<char>::assign
_TEXT	ENDS
; Function compile flags: /Ogtpy
; File c:\program files (x86)\microsoft visual studio 12.0\vc\include\xlocale
;	COMDAT ??0id@locale@std@@QEAA@_K@Z
_TEXT	SEGMENT
this$ = 8
_Val$ = 16
??0id@locale@std@@QEAA@_K@Z PROC			; std::locale::id::id, COMDAT

; 74   : 			{	// construct with specified stamp value

	mov	QWORD PTR [rcx], rdx

; 75   : 			}

	mov	rax, rcx
	ret	0
??0id@locale@std@@QEAA@_K@Z ENDP			; std::locale::id::id
_TEXT	ENDS
; Function compile flags: /Ogtpy
; File c:\program files (x86)\microsoft visual studio 12.0\vc\include\system_error
;	COMDAT ??0error_category@std@@QEAA@XZ
_TEXT	SEGMENT
this$ = 8
??0error_category@std@@QEAA@XZ PROC			; std::error_category::error_category, COMDAT

; 154  : 	error_category()

	lea	rax, OFFSET FLAT:??_7error_category@std@@6B@
	mov	QWORD PTR [rcx], rax

; 155  : 		{	// default constructor
; 156  : 		}

	mov	rax, rcx
	ret	0
??0error_category@std@@QEAA@XZ ENDP			; std::error_category::error_category
_TEXT	ENDS
; Function compile flags: /Ogtpy
; File c:\program files (x86)\microsoft visual studio 12.0\vc\include\system_error
;	COMDAT ??1error_category@std@@UEAA@XZ
_TEXT	SEGMENT
this$ = 8
??1error_category@std@@UEAA@XZ PROC			; std::error_category::~error_category, COMDAT

; 159  : 		{	// destroy the object

	lea	rax, OFFSET FLAT:??_7error_category@std@@6B@
	mov	QWORD PTR [rcx], rax

; 160  : 		}

	ret	0
??1error_category@std@@UEAA@XZ ENDP			; std::error_category::~error_category
_TEXT	ENDS
; Function compile flags: /Ogtpy
; File c:\program files (x86)\microsoft visual studio 12.0\vc\include\system_error
;	COMDAT ??8error_category@std@@QEBA_NAEBV01@@Z
_TEXT	SEGMENT
this$ = 8
_Right$ = 16
??8error_category@std@@QEBA_NAEBV01@@Z PROC		; std::error_category::operator==, COMDAT

; 177  : 		return (this == &_Right);

	cmp	rcx, rdx
	sete	al

; 178  : 		}

	ret	0
??8error_category@std@@QEBA_NAEBV01@@Z ENDP		; std::error_category::operator==
_TEXT	ENDS
; Function compile flags: /Ogtpy
; File c:\program files (x86)\microsoft visual studio 12.0\vc\include\system_error
;	COMDAT ??_Gerror_category@std@@UEAAPEAXI@Z
_TEXT	SEGMENT
this$ = 48
__flags$ = 56
??_Gerror_category@std@@UEAAPEAXI@Z PROC		; std::error_category::`scalar deleting destructor', COMDAT
$LN8:
	push	rbx
	sub	rsp, 32					; 00000020H

; 159  : 		{	// destroy the object

	lea	rax, OFFSET FLAT:??_7error_category@std@@6B@
	mov	rbx, rcx
	mov	QWORD PTR [rcx], rax
	test	dl, 1
	je	SHORT $LN6@scalar
	call	??3@YAXPEAX@Z				; operator delete
$LN6@scalar:
	mov	rax, rbx
	add	rsp, 32					; 00000020H
	pop	rbx
	ret	0
??_Gerror_category@std@@UEAAPEAXI@Z ENDP		; std::error_category::`scalar deleting destructor'
_TEXT	ENDS
; Function compile flags: /Ogtpy
; File c:\program files (x86)\microsoft visual studio 12.0\vc\include\system_error
;	COMDAT ?value@error_code@std@@QEBAHXZ
_TEXT	SEGMENT
this$ = 8
?value@error_code@std@@QEBAHXZ PROC			; std::error_code::value, COMDAT

; 242  : 		return (_Myval);

	mov	eax, DWORD PTR [rcx]

; 243  : 		}

	ret	0
?value@error_code@std@@QEBAHXZ ENDP			; std::error_code::value
_TEXT	ENDS
; Function compile flags: /Ogtpy
; File c:\program files (x86)\microsoft visual studio 12.0\vc\include\system_error
;	COMDAT ?category@error_code@std@@QEBAAEBVerror_category@2@XZ
_TEXT	SEGMENT
this$ = 8
?category@error_code@std@@QEBAAEBVerror_category@2@XZ PROC ; std::error_code::category, COMDAT

; 247  : 		return (*_Mycat);

	mov	rax, QWORD PTR [rcx+8]

; 248  : 		}

	ret	0
?category@error_code@std@@QEBAAEBVerror_category@2@XZ ENDP ; std::error_code::category
_TEXT	ENDS
; Function compile flags: /Ogtpy
; File c:\program files (x86)\microsoft visual studio 12.0\vc\include\system_error
;	COMDAT ??0error_condition@std@@QEAA@HAEBVerror_category@1@@Z
_TEXT	SEGMENT
this$ = 8
_Val$ = 16
_Cat$ = 24
??0error_condition@std@@QEAA@HAEBVerror_category@1@@Z PROC ; std::error_condition::error_condition, COMDAT

; 299  : 		{	// construct from error code and category

	mov	DWORD PTR [rcx], edx
	mov	QWORD PTR [rcx+8], r8

; 300  : 		}

	mov	rax, rcx
	ret	0
??0error_condition@std@@QEAA@HAEBVerror_category@1@@Z ENDP ; std::error_condition::error_condition
_TEXT	ENDS
; Function compile flags: /Ogtpy
; File c:\program files (x86)\microsoft visual studio 12.0\vc\include\system_error
;	COMDAT ?value@error_condition@std@@QEBAHXZ
_TEXT	SEGMENT
this$ = 8
?value@error_condition@std@@QEBAHXZ PROC		; std::error_condition::value, COMDAT

; 333  : 		return (_Myval);

	mov	eax, DWORD PTR [rcx]

; 334  : 		}

	ret	0
?value@error_condition@std@@QEBAHXZ ENDP		; std::error_condition::value
_TEXT	ENDS
; Function compile flags: /Ogtpy
; File c:\program files (x86)\microsoft visual studio 12.0\vc\include\system_error
;	COMDAT ?category@error_condition@std@@QEBAAEBVerror_category@2@XZ
_TEXT	SEGMENT
this$ = 8
?category@error_condition@std@@QEBAAEBVerror_category@2@XZ PROC ; std::error_condition::category, COMDAT

; 338  : 		return (*_Mycat);

	mov	rax, QWORD PTR [rcx+8]

; 339  : 		}

	ret	0
?category@error_condition@std@@QEBAAEBVerror_category@2@XZ ENDP ; std::error_condition::category
_TEXT	ENDS
; Function compile flags: /Ogtpy
; File c:\program files (x86)\microsoft visual studio 12.0\vc\include\system_error
;	COMDAT ??8error_condition@std@@QEBA_NAEBV01@@Z
_TEXT	SEGMENT
this$ = 8
_Right$ = 16
??8error_condition@std@@QEBA_NAEBV01@@Z PROC		; std::error_condition::operator==, COMDAT

; 177  : 		return (this == &_Right);

	mov	rax, QWORD PTR [rdx+8]
	cmp	QWORD PTR [rcx+8], rax

; 353  : 		return (category() == _Right.category()
; 354  : 			&& value() == _Right.value());

	jne	SHORT $LN3@operator
	mov	eax, DWORD PTR [rdx]
	cmp	DWORD PTR [rcx], eax
	jne	SHORT $LN3@operator
	mov	al, 1

; 355  : 		}

	ret	0
$LN3@operator:

; 353  : 		return (category() == _Right.category()
; 354  : 			&& value() == _Right.value());

	xor	al, al

; 355  : 		}

	ret	0
??8error_condition@std@@QEBA_NAEBV01@@Z ENDP		; std::error_condition::operator==
_TEXT	ENDS
; Function compile flags: /Ogtpy
; File c:\program files (x86)\microsoft visual studio 12.0\vc\include\system_error
;	COMDAT ?default_error_condition@error_category@std@@UEBA?AVerror_condition@2@H@Z
_TEXT	SEGMENT
this$ = 8
__$ReturnUdt$ = 16
_Errval$ = 24
?default_error_condition@error_category@std@@UEBA?AVerror_condition@2@H@Z PROC ; std::error_category::default_error_condition, COMDAT

; 299  : 		{	// construct from error code and category

	mov	DWORD PTR [rdx], r8d
	mov	QWORD PTR [rdx+8], rcx

; 378  : 	return (error_condition(_Errval, *this));

	mov	rax, rdx

; 379  : 	}

	ret	0
?default_error_condition@error_category@std@@UEBA?AVerror_condition@2@H@Z ENDP ; std::error_category::default_error_condition
_TEXT	ENDS
; Function compile flags: /Ogtpy
; File c:\program files (x86)\microsoft visual studio 12.0\vc\include\system_error
;	COMDAT ?equivalent@error_category@std@@UEBA_NHAEBVerror_condition@2@@Z
_TEXT	SEGMENT
$T1 = 32
this$ = 64
_Errval$ = 72
_Cond$ = 80
?equivalent@error_category@std@@UEBA_NHAEBVerror_condition@2@@Z PROC ; std::error_category::equivalent, COMDAT

; 384  : 	{	// test if error code same condition

$LN18:
	push	rbx
	sub	rsp, 48					; 00000030H

; 385  : 	return (default_error_condition(_Errval) == _Cond);

	mov	rax, QWORD PTR [rcx]
	mov	rbx, r8
	mov	r8d, edx
	lea	rdx, QWORD PTR $T1[rsp]
	call	QWORD PTR [rax+24]

; 177  : 		return (this == &_Right);

	mov	rcx, QWORD PTR [rbx+8]
	cmp	QWORD PTR [rax+8], rcx

; 178  : 		}
; 179  : 
; 180  : 	bool operator!=(const error_category& _Right) const _NOEXCEPT
; 181  : 		{	// compare categories for inequality
; 182  : 		return (!(*this == _Right));
; 183  : 		}
; 184  : 
; 185  : 	bool operator<(const error_category& _Right) const _NOEXCEPT
; 186  : 		{	// compare categories for order
; 187  : 		return (this < &_Right);
; 188  : 		}
; 189  : 
; 190  : 	error_category(const error_category&) = delete;
; 191  : 	error_category& operator=(const error_category&) = delete;
; 192  : 	};
; 193  : 
; 194  : 		// CLASS error_code
; 195  : class error_code
; 196  : 	{	// store an implementation-specific error code and category
; 197  : public:
; 198  : 	typedef error_code _Myt;
; 199  : 
; 200  : 	error_code()
; 201  : 		: _Myval(0),
; 202  : 			_Mycat(&system_category())
; 203  : 		{	// construct non-error
; 204  : 		}
; 205  : 
; 206  : 	error_code(int _Val, const error_category& _Cat)
; 207  : 		: _Myval(_Val), _Mycat(&_Cat)
; 208  : 		{	// construct from error code and category
; 209  : 		}
; 210  : 
; 211  : 	template<class _Enum,
; 212  : 		class = typename enable_if<is_error_code_enum<_Enum>::value,
; 213  : 			void>::type>
; 214  : 		error_code(_Enum _Errcode)
; 215  : 		: _Myval(0), _Mycat(0)
; 216  : 		{	// construct from enumerated error code
; 217  : 		*this = make_error_code(_Errcode);	// using ADL
; 218  : 		}
; 219  : 
; 220  : 	void assign(int _Val, const error_category& _Cat)
; 221  : 		{	// assign error code and category
; 222  : 		_Myval = _Val;
; 223  : 		_Mycat = &_Cat;
; 224  : 		}
; 225  : 
; 226  : 	template<class _Enum>
; 227  : 		typename enable_if<is_error_code_enum<_Enum>::value,
; 228  : 			error_code>::type& operator=(_Enum _Errcode)
; 229  : 		{	// assign enumerated error code
; 230  : 		*this = make_error_code(_Errcode);	// using ADL
; 231  : 		return (*this);
; 232  : 		}
; 233  : 
; 234  : 	void clear() _NOEXCEPT
; 235  : 		{	// assign non-error
; 236  : 		_Myval = 0;
; 237  : 		_Mycat = &system_category();
; 238  : 		}
; 239  : 
; 240  : 	int value() const
; 241  : 		{	// get error code
; 242  : 		return (_Myval);
; 243  : 		}
; 244  : 
; 245  : 	const error_category& category() const
; 246  : 		{	// get category
; 247  : 		return (*_Mycat);
; 248  : 		}
; 249  : 
; 250  : 	error_condition default_error_condition() const;
; 251  : 
; 252  : 	string message() const
; 253  : 		{	// get name of error code
; 254  : 		return (category().message(value()));
; 255  : 		}
; 256  : 
; 257  : 	explicit operator bool() const _NOEXCEPT
; 258  : 		{	// test for actual error
; 259  : 		return (value() != 0);
; 260  : 		}
; 261  : 
; 262  : 	bool operator==(const error_code& _Right) const _NOEXCEPT
; 263  : 		{	// test if *this == _Right
; 264  : 		return (category() == _Right.category()
; 265  : 			&& value() == _Right.value());
; 266  : 		}
; 267  : 
; 268  : 	bool operator!=(const error_code& _Right) const _NOEXCEPT
; 269  : 		{	// test if *this != _Right
; 270  : 		return (!(*this == _Right));
; 271  : 		}
; 272  : 
; 273  : 	bool operator<(const error_code& _Right) const _NOEXCEPT
; 274  : 		{	// test if *this == _Right
; 275  : 		return (category() < _Right.category()
; 276  : 			|| (category() == _Right.category()
; 277  : 				&& value() < _Right.value()));
; 278  : 		}
; 279  : 
; 280  : private:
; 281  : 	int _Myval;	// the stored error number
; 282  : 	const error_category *_Mycat;	// pointer to error category
; 283  : 	};
; 284  : 
; 285  : 		// CLASS error_condition
; 286  : class error_condition
; 287  : 	{	// store an abstract error code and category
; 288  : public:
; 289  : 	typedef error_condition _Myt;
; 290  : 
; 291  : 	error_condition() _NOEXCEPT
; 292  : 		: _Myval(0),
; 293  : 			_Mycat(&generic_category())
; 294  : 		{	// construct non-error
; 295  : 		}
; 296  : 
; 297  : 	error_condition(int _Val, const error_category& _Cat) _NOEXCEPT
; 298  : 		: _Myval(_Val), _Mycat(&_Cat)
; 299  : 		{	// construct from error code and category
; 300  : 		}
; 301  : 
; 302  : 	template<class _Enum,
; 303  : 		class = typename enable_if<is_error_condition_enum<_Enum>::value,
; 304  : 			void>::type>
; 305  : 		error_condition(_Enum _Errcode) _NOEXCEPT
; 306  : 		: _Myval(0), _Mycat(0)
; 307  : 		{	// construct from enumerated error code
; 308  : 		*this = make_error_condition(_Errcode);	// using ADL
; 309  : 		}
; 310  : 
; 311  : 	void assign(int _Val, const error_category& _Cat) _NOEXCEPT
; 312  : 		{	// assign error code and category
; 313  : 		_Myval = _Val;
; 314  : 		_Mycat = &_Cat;
; 315  : 		}
; 316  : 
; 317  : 	template<class _Enum>
; 318  : 		typename enable_if<is_error_condition_enum<_Enum>::value,
; 319  : 			error_condition>::type& operator=(_Enum _Errcode) _NOEXCEPT
; 320  : 		{	// assign enumerated error code
; 321  : 		*this = make_error_condition(_Errcode);	// using ADL
; 322  : 		return (*this);
; 323  : 		}
; 324  : 
; 325  : 	void clear() _NOEXCEPT
; 326  : 		{	// assign non-error
; 327  : 		_Myval = 0;
; 328  : 		_Mycat = &generic_category();
; 329  : 		}
; 330  : 
; 331  : 	int value() const _NOEXCEPT
; 332  : 		{	// get error code
; 333  : 		return (_Myval);
; 334  : 		}
; 335  : 
; 336  : 	const error_category& category() const _NOEXCEPT
; 337  : 		{	// get category
; 338  : 		return (*_Mycat);
; 339  : 		}
; 340  : 
; 341  : 	string message() const
; 342  : 		{	// get name of error code
; 343  : 		return (category().message(value()));
; 344  : 		}
; 345  : 
; 346  : 	explicit operator bool() const _NOEXCEPT
; 347  : 		{	// test for actual error
; 348  : 		return (value() != 0);
; 349  : 		}
; 350  : 
; 351  : 	bool operator==(const error_condition& _Right) const _NOEXCEPT
; 352  : 		{	// test if *this == _Right
; 353  : 		return (category() == _Right.category()
; 354  : 			&& value() == _Right.value());

	jne	SHORT $LN5@equivalent
	mov	ecx, DWORD PTR [rbx]
	cmp	DWORD PTR [rax], ecx
	jne	SHORT $LN5@equivalent

; 385  : 	return (default_error_condition(_Errval) == _Cond);

	mov	al, 1

; 386  : 	}

	add	rsp, 48					; 00000030H
	pop	rbx
	ret	0
$LN5@equivalent:

; 385  : 	return (default_error_condition(_Errval) == _Cond);

	xor	al, al

; 386  : 	}

	add	rsp, 48					; 00000030H
	pop	rbx
	ret	0
?equivalent@error_category@std@@UEBA_NHAEBVerror_condition@2@@Z ENDP ; std::error_category::equivalent
_TEXT	ENDS
; Function compile flags: /Ogtpy
; File c:\program files (x86)\microsoft visual studio 12.0\vc\include\system_error
;	COMDAT ?equivalent@error_category@std@@UEBA_NAEBVerror_code@2@H@Z
_TEXT	SEGMENT
this$ = 8
_Code$ = 16
_Errval$ = 24
?equivalent@error_category@std@@UEBA_NAEBVerror_code@2@H@Z PROC ; std::error_category::equivalent, COMDAT

; 177  : 		return (this == &_Right);

	cmp	rcx, QWORD PTR [rdx+8]

; 392  : 	return (*this == _Code.category() && _Code.value() == _Errval);

	jne	SHORT $LN3@equivalent
	cmp	DWORD PTR [rdx], r8d
	jne	SHORT $LN3@equivalent
	mov	al, 1

; 393  : 	}

	ret	0
$LN3@equivalent:

; 392  : 	return (*this == _Code.category() && _Code.value() == _Errval);

	xor	al, al

; 393  : 	}

	ret	0
?equivalent@error_category@std@@UEBA_NAEBVerror_code@2@H@Z ENDP ; std::error_category::equivalent
_TEXT	ENDS
; Function compile flags: /Ogtpy
; File c:\program files (x86)\microsoft visual studio 12.0\vc\include\system_error
;	COMDAT ??0_Generic_error_category@std@@QEAA@XZ
_TEXT	SEGMENT
this$ = 8
??0_Generic_error_category@std@@QEAA@XZ PROC		; std::_Generic_error_category::_Generic_error_category, COMDAT

; 553  : 	_Generic_error_category()

	lea	rax, OFFSET FLAT:??_7_Generic_error_category@std@@6B@
	mov	QWORD PTR [rcx], rax

; 554  : 		{	// default constructor
; 555  : 		}

	mov	rax, rcx
	ret	0
??0_Generic_error_category@std@@QEAA@XZ ENDP		; std::_Generic_error_category::_Generic_error_category
_TEXT	ENDS
; Function compile flags: /Ogtpy
; File c:\program files (x86)\microsoft visual studio 12.0\vc\include\system_error
;	COMDAT ?name@_Generic_error_category@std@@UEBAPEBDXZ
_TEXT	SEGMENT
this$ = 8
?name@_Generic_error_category@std@@UEBAPEBDXZ PROC	; std::_Generic_error_category::name, COMDAT

; 559  : 		return ("generic");

	lea	rax, OFFSET FLAT:??_C@_07DCLBNMLN@generic?$AA@

; 560  : 		}

	ret	0
?name@_Generic_error_category@std@@UEBAPEBDXZ ENDP	; std::_Generic_error_category::name
_TEXT	ENDS
; Function compile flags: /Ogtpy
; File c:\program files (x86)\microsoft visual studio 12.0\vc\include\system_error
; File c:\program files (x86)\microsoft visual studio 12.0\vc\include\xstring
; File c:\program files (x86)\microsoft visual studio 12.0\vc\include\system_error
; File c:\program files (x86)\microsoft visual studio 12.0\vc\include\xstring
; File c:\program files (x86)\microsoft visual studio 12.0\vc\include\system_error
; File c:\program files (x86)\microsoft visual studio 12.0\vc\include\iosfwd
; File c:\program files (x86)\microsoft visual studio 12.0\vc\include\xstring
; File c:\program files (x86)\microsoft visual studio 12.0\vc\include\system_error
;	COMDAT ?message@_Generic_error_category@std@@UEBA?AV?$basic_string@DU?$char_traits@D@std@@V?$allocator@D@2@@2@H@Z
_TEXT	SEGMENT
$T1 = 32
this$ = 64
__$ReturnUdt$ = 72
_Errcode$ = 80
?message@_Generic_error_category@std@@UEBA?AV?$basic_string@DU?$char_traits@D@std@@V?$allocator@D@2@@2@H@Z PROC ; std::_Generic_error_category::message, COMDAT

; 563  : 		{	// convert to name of error

$LN51:
	mov	QWORD PTR [rsp+8], rbx
	push	rdi
	sub	rsp, 48					; 00000030H
	xor	ebx, ebx

; 564  : 		const char *_Name = _Syserror_map(_Errcode);

	mov	ecx, r8d
	mov	rdi, rdx
	mov	DWORD PTR $T1[rsp], ebx
	call	?_Syserror_map@std@@YAPEBDH@Z		; std::_Syserror_map
; File c:\program files (x86)\microsoft visual studio 12.0\vc\include\xstring

; 2284 : 		this->_Myres = this->_BUF_SIZE - 1;

	mov	QWORD PTR [rdi+24], 15
; File c:\program files (x86)\microsoft visual studio 12.0\vc\include\system_error

; 565  : 		return (string(_Name != 0 ? _Name : "unknown error"));

	test	rax, rax
; File c:\program files (x86)\microsoft visual studio 12.0\vc\include\xstring

; 2237 : 		_Traits::assign(this->_Myptr()[this->_Mysize = _Newsize], _Elem());

	mov	QWORD PTR [rdi+16], rbx
; File c:\program files (x86)\microsoft visual studio 12.0\vc\include\system_error

; 565  : 		return (string(_Name != 0 ? _Name : "unknown error"));

	lea	rdx, OFFSET FLAT:??_C@_0O@BFJCFAAK@unknown?5error?$AA@
	cmovne	rdx, rax
; File c:\program files (x86)\microsoft visual studio 12.0\vc\include\iosfwd

; 564  : 		_Left = _Right;

	mov	BYTE PTR [rdi], bl

; 523  : 			: _CSTD strlen(_First));

	cmp	BYTE PTR [rdx], bl
	je	SHORT $LN48@message
	or	rbx, -1
	npad	1
$LL49@message:
	inc	rbx
	cmp	BYTE PTR [rdx+rbx], 0
	jne	SHORT $LL49@message
$LN48@message:
; File c:\program files (x86)\microsoft visual studio 12.0\vc\include\xstring

; 1169 : 		return (assign(_Ptr, _Traits::length(_Ptr)));

	mov	r8, rbx
	mov	rcx, rdi
	call	?assign@?$basic_string@DU?$char_traits@D@std@@V?$allocator@D@2@@std@@QEAAAEAV12@PEBD_K@Z ; std::basic_string<char,std::char_traits<char>,std::allocator<char> >::assign
; File c:\program files (x86)\microsoft visual studio 12.0\vc\include\system_error

; 566  : 		}

	mov	rbx, QWORD PTR [rsp+64]
	mov	rax, rdi
	add	rsp, 48					; 00000030H
	pop	rdi
	ret	0
?message@_Generic_error_category@std@@UEBA?AV?$basic_string@DU?$char_traits@D@std@@V?$allocator@D@2@@2@H@Z ENDP ; std::_Generic_error_category::message
_TEXT	ENDS
; Function compile flags: /Ogtpy
; File c:\program files (x86)\microsoft visual studio 12.0\vc\include\system_error
;	COMDAT ??_G_Generic_error_category@std@@UEAAPEAXI@Z
_TEXT	SEGMENT
this$ = 48
__flags$ = 56
??_G_Generic_error_category@std@@UEAAPEAXI@Z PROC	; std::_Generic_error_category::`scalar deleting destructor', COMDAT
$LN10:
	push	rbx
	sub	rsp, 32					; 00000020H

; 159  : 		{	// destroy the object

	lea	rax, OFFSET FLAT:??_7error_category@std@@6B@
	mov	rbx, rcx
	mov	QWORD PTR [rcx], rax
	test	dl, 1
	je	SHORT $LN8@scalar
	call	??3@YAXPEAX@Z				; operator delete
$LN8@scalar:
	mov	rax, rbx
	add	rsp, 32					; 00000020H
	pop	rbx
	ret	0
??_G_Generic_error_category@std@@UEAAPEAXI@Z ENDP	; std::_Generic_error_category::`scalar deleting destructor'
_TEXT	ENDS
; Function compile flags: /Ogtpy
; File c:\program files (x86)\microsoft visual studio 12.0\vc\include\system_error
;	COMDAT ??1_Generic_error_category@std@@UEAA@XZ
_TEXT	SEGMENT
this$ = 8
??1_Generic_error_category@std@@UEAA@XZ PROC		; std::_Generic_error_category::~_Generic_error_category, COMDAT

; 159  : 		{	// destroy the object

	lea	rax, OFFSET FLAT:??_7error_category@std@@6B@
	mov	QWORD PTR [rcx], rax
	ret	0
??1_Generic_error_category@std@@UEAA@XZ ENDP		; std::_Generic_error_category::~_Generic_error_category
_TEXT	ENDS
; Function compile flags: /Ogtpy
; File c:\program files (x86)\microsoft visual studio 12.0\vc\include\system_error
;	COMDAT ??0_Iostream_error_category@std@@QEAA@XZ
_TEXT	SEGMENT
this$ = 8
??0_Iostream_error_category@std@@QEAA@XZ PROC		; std::_Iostream_error_category::_Iostream_error_category, COMDAT

; 574  : 	_Iostream_error_category()

	lea	rax, OFFSET FLAT:??_7_Iostream_error_category@std@@6B@
	mov	QWORD PTR [rcx], rax

; 575  : 		{	// default constructor
; 576  : 		}

	mov	rax, rcx
	ret	0
??0_Iostream_error_category@std@@QEAA@XZ ENDP		; std::_Iostream_error_category::_Iostream_error_category
_TEXT	ENDS
; Function compile flags: /Ogtpy
; File c:\program files (x86)\microsoft visual studio 12.0\vc\include\system_error
;	COMDAT ?name@_Iostream_error_category@std@@UEBAPEBDXZ
_TEXT	SEGMENT
this$ = 8
?name@_Iostream_error_category@std@@UEBAPEBDXZ PROC	; std::_Iostream_error_category::name, COMDAT

; 580  : 		return ("iostream");

	lea	rax, OFFSET FLAT:??_C@_08LLGCOLLL@iostream?$AA@

; 581  : 		}

	ret	0
?name@_Iostream_error_category@std@@UEBAPEBDXZ ENDP	; std::_Iostream_error_category::name
_TEXT	ENDS
; Function compile flags: /Ogtpy
; File c:\program files (x86)\microsoft visual studio 12.0\vc\include\system_error
; File c:\program files (x86)\microsoft visual studio 12.0\vc\include\xstring
; File c:\program files (x86)\microsoft visual studio 12.0\vc\include\iosfwd
; File c:\program files (x86)\microsoft visual studio 12.0\vc\include\xstring
; File c:\program files (x86)\microsoft visual studio 12.0\vc\include\system_error
;	COMDAT ?message@_Iostream_error_category@std@@UEBA?AV?$basic_string@DU?$char_traits@D@std@@V?$allocator@D@2@@2@H@Z
_TEXT	SEGMENT
$T1 = 32
this$ = 64
__$ReturnUdt$ = 72
_Errcode$ = 80
?message@_Iostream_error_category@std@@UEBA?AV?$basic_string@DU?$char_traits@D@std@@V?$allocator@D@2@@2@H@Z PROC ; std::_Iostream_error_category::message, COMDAT

; 584  : 		{	// convert to name of error

$LN53:
	push	rbx
	sub	rsp, 48					; 00000030H
	xor	eax, eax
	mov	rbx, rdx
	mov	DWORD PTR $T1[rsp], eax

; 585  : 		if (_Errcode == (int)io_errc::stream)

	cmp	r8d, 1
	jne	SHORT $LN2@message
; File c:\program files (x86)\microsoft visual studio 12.0\vc\include\xstring

; 2284 : 		this->_Myres = this->_BUF_SIZE - 1;

	mov	QWORD PTR [rdx+24], 15

; 1170 : 		}
; 1171 : 
; 1172 : 	_Myt& assign(size_type _Count, _Elem _Ch)
; 1173 : 		{	// assign _Count * _Ch
; 1174 : 		if (_Count == npos)
; 1175 : 			_Xlen();	// result too long
; 1176 : 
; 1177 : 		if (_Grow(_Count))
; 1178 : 			{	// make room and assign new stuff
; 1179 : 			_Chassign(0, _Count, _Ch);
; 1180 : 			_Eos(_Count);
; 1181 : 			}
; 1182 : 		return (*this);
; 1183 : 		}
; 1184 : 
; 1185 : 	template<class _Iter>
; 1186 : 		typename enable_if<_Is_iterator<_Iter>::value,
; 1187 : 			_Myt&>::type
; 1188 : 		assign(_Iter _First, _Iter _Last)
; 1189 : 		{	// assign [_First, _Last), input iterators
; 1190 : 		return (replace(begin(), end(), _First, _Last));
; 1191 : 		}
; 1192 : 
; 1193 : 	_Myt& assign(const_pointer _First, const_pointer _Last)
; 1194 : 		{	// assign [_First, _Last), const pointers
; 1195 : 		return (replace(begin(), end(), _First, _Last));
; 1196 : 		}
; 1197 : 
; 1198 : 	_Myt& assign(const_iterator _First, const_iterator _Last)
; 1199 : 		{	// assign [_First, _Last), const_iterators
; 1200 : 		return (replace(begin(), end(), _First, _Last));
; 1201 : 		}
; 1202 : 
; 1203 : 	_Myt& insert(size_type _Off, const _Myt& _Right)
; 1204 : 		{	// insert _Right at _Off
; 1205 : 		return (insert(_Off, _Right, 0, npos));
; 1206 : 		}
; 1207 : 
; 1208 : 	_Myt& insert(size_type _Off,
; 1209 : 		const _Myt& _Right, size_type _Roff, size_type _Count)
; 1210 : 		{	// insert _Right [_Roff, _Roff + _Count) at _Off
; 1211 : 		if (this->_Mysize < _Off || _Right.size() < _Roff)
; 1212 : 			_Xran();	// _Off or _Roff off end
; 1213 : 		size_type _Num = _Right.size() - _Roff;
; 1214 : 		if (_Num < _Count)
; 1215 : 			_Count = _Num;	// trim _Count to size
; 1216 : 		if (npos - this->_Mysize <= _Count)
; 1217 : 			_Xlen();	// result too long
; 1218 : 
; 1219 : 		if (0 < _Count && _Grow(_Num = this->_Mysize + _Count))
; 1220 : 			{	// make room and insert new stuff
; 1221 : 			_Traits::move(this->_Myptr() + _Off + _Count,
; 1222 : 				this->_Myptr() + _Off,
; 1223 : 				this->_Mysize - _Off);	// empty out hole
; 1224 : 			if (this == &_Right)
; 1225 : 				_Traits::move(this->_Myptr() + _Off,
; 1226 : 					this->_Myptr() + (_Off < _Roff ? _Roff + _Count : _Roff),
; 1227 : 						_Count);	// substring
; 1228 : 			else
; 1229 : 				_Traits::copy(this->_Myptr() + _Off,
; 1230 : 					_Right._Myptr() + _Roff, _Count);	// fill hole
; 1231 : 			_Eos(_Num);
; 1232 : 			}
; 1233 : 		return (*this);
; 1234 : 		}
; 1235 : 
; 1236 : 	_Myt& insert(size_type _Off,
; 1237 : 		const _Elem *_Ptr, size_type _Count)
; 1238 : 		{	// insert [_Ptr, _Ptr + _Count) at _Off
; 1239 :  #if _ITERATOR_DEBUG_LEVEL == 2
; 1240 : 		if (_Count != 0)
; 1241 : 			_DEBUG_POINTER(_Ptr);
; 1242 :  #endif /* _ITERATOR_DEBUG_LEVEL == 2 */
; 1243 : 
; 1244 : 		if (_Inside(_Ptr))
; 1245 : 			return (insert(_Off, *this,
; 1246 : 				_Ptr - this->_Myptr(), _Count));	// substring
; 1247 : 		if (this->_Mysize < _Off)
; 1248 : 			_Xran();	// _Off off end
; 1249 : 		if (npos - this->_Mysize <= _Count)
; 1250 : 			_Xlen();	// result too long
; 1251 : 		size_type _Num;
; 1252 : 		if (0 < _Count && _Grow(_Num = this->_Mysize + _Count))
; 1253 : 			{	// make room and insert new stuff
; 1254 : 			_Traits::move(this->_Myptr() + _Off + _Count,
; 1255 : 				this->_Myptr() + _Off,
; 1256 : 				this->_Mysize - _Off);	// empty out hole
; 1257 : 			_Traits::copy(this->_Myptr() + _Off, _Ptr, _Count);	// fill hole
; 1258 : 			_Eos(_Num);
; 1259 : 			}
; 1260 : 		return (*this);
; 1261 : 		}
; 1262 : 
; 1263 : 	_Myt& insert(size_type _Off, const _Elem *_Ptr)
; 1264 : 		{	// insert [_Ptr, <null>) at _Off
; 1265 : 		_DEBUG_POINTER(_Ptr);
; 1266 : 		return (insert(_Off, _Ptr, _Traits::length(_Ptr)));
; 1267 : 		}
; 1268 : 
; 1269 : 	_Myt& insert(size_type _Off,
; 1270 : 		size_type _Count, _Elem _Ch)
; 1271 : 		{	// insert _Count * _Ch at _Off
; 1272 : 		if (this->_Mysize < _Off)
; 1273 : 			_Xran();	// _Off off end
; 1274 : 		if (npos - this->_Mysize <= _Count)
; 1275 : 			_Xlen();	// result too long
; 1276 : 		size_type _Num;
; 1277 : 		if (0 < _Count && _Grow(_Num = this->_Mysize + _Count))
; 1278 : 			{	// make room and insert new stuff
; 1279 : 			_Traits::move(this->_Myptr() + _Off + _Count,
; 1280 : 				this->_Myptr() + _Off,
; 1281 : 				this->_Mysize - _Off);	// empty out hole
; 1282 : 			_Chassign(_Off, _Count, _Ch);	// fill hole
; 1283 : 			_Eos(_Num);
; 1284 : 			}
; 1285 : 		return (*this);
; 1286 : 		}
; 1287 : 
; 1288 : 	iterator insert(const_iterator _Where)
; 1289 : 		{	// insert <null> at _Where
; 1290 : 		return (insert(_Where, _Elem()));
; 1291 : 		}
; 1292 : 
; 1293 : 	iterator insert(const_iterator _Where, _Elem _Ch)
; 1294 : 		{	// insert _Ch at _Where
; 1295 : 		size_type _Off = _Pdif(_Where, begin());
; 1296 : 		insert(_Off, 1, _Ch);
; 1297 : 		return (begin() + _Off);
; 1298 : 		}
; 1299 : 
; 1300 : 	iterator insert(const_iterator _Where, size_type _Count, _Elem _Ch)
; 1301 : 		{	// insert _Count * _Elem at _Where
; 1302 : 		size_type _Off = _Pdif(_Where, begin());
; 1303 : 		insert(_Off, _Count, _Ch);
; 1304 : 		return (begin() + _Off);
; 1305 : 		}
; 1306 : 
; 1307 : 	template<class _Iter>
; 1308 : 		typename enable_if<_Is_iterator<_Iter>::value,
; 1309 : 			iterator>::type
; 1310 : 		insert(const_iterator _Where, _Iter _First, _Iter _Last)
; 1311 : 		{	// insert [_First, _Last) at _Where, input iterators
; 1312 : 		size_type _Off = _Pdif(_Where, begin());
; 1313 : 		replace(_Where, _Where, _First, _Last);
; 1314 : 		return (begin() + _Off);
; 1315 : 		}
; 1316 : 
; 1317 : 	iterator insert(const_iterator _Where,
; 1318 : 		const_pointer _First, const_pointer _Last)
; 1319 : 		{	// insert [_First, _Last) at _Where, const pointers
; 1320 : 		size_type _Off = _Pdif(_Where, begin());
; 1321 : 		replace(_Where, _Where, _First, _Last);
; 1322 : 		return (begin() + _Off);
; 1323 : 		}
; 1324 : 
; 1325 : 	iterator insert(const_iterator _Where,
; 1326 : 		const_iterator _First, const_iterator _Last)
; 1327 : 		{	// insert [_First, _Last) at _Where, const_iterators
; 1328 : 		size_type _Off = _Pdif(_Where, begin());
; 1329 : 		replace(_Where, _Where, _First, _Last);
; 1330 : 		return (begin() + _Off);
; 1331 : 		}
; 1332 : 
; 1333 : 	_Myt& erase(size_type _Off = 0)
; 1334 : 		{	// erase elements [_Off, ...)
; 1335 : 		if (this->_Mysize < _Off)
; 1336 : 			_Xran();	// _Off off end
; 1337 : 		_Eos(_Off);
; 1338 : 		return (*this);
; 1339 : 		}
; 1340 : 
; 1341 : 	_Myt& erase(size_type _Off, size_type _Count)
; 1342 : 		{	// erase elements [_Off, _Off + _Count)
; 1343 : 		if (this->_Mysize < _Off)
; 1344 : 			_Xran();	// _Off off end
; 1345 : 		if (this->_Mysize - _Off <= _Count)
; 1346 : 			_Eos(_Off);	// erase elements [_Off, ...)
; 1347 : 		else if (0 < _Count)
; 1348 : 			{	// move elements down
; 1349 : 			value_type *_Ptr = this->_Myptr() + _Off;
; 1350 : 			size_type _Newsize = this->_Mysize - _Count;
; 1351 : 			_Traits::move(_Ptr, _Ptr + _Count, _Newsize - _Off);
; 1352 : 			_Eos(_Newsize);
; 1353 : 			}
; 1354 : 		return (*this);
; 1355 : 		}
; 1356 : 
; 1357 : 	iterator erase(const_iterator _Where)
; 1358 : 		{	// erase element at _Where
; 1359 : 		size_type _Count = _Pdif(_Where, begin());
; 1360 : 		erase(_Count, 1);
; 1361 : 		return (_STRING_ITERATOR(this->_Myptr() + _Count));
; 1362 : 		}
; 1363 : 
; 1364 : 	iterator erase(const_iterator _First, const_iterator _Last)
; 1365 : 		{	// erase substring [_First, _Last)
; 1366 : 		_DEBUG_RANGE(_First, _Last);
; 1367 : 		size_type _Count = _Pdif(_First, begin());
; 1368 : 		erase(_Count, _Pdif(_Last, _First));
; 1369 : 		return (_STRING_ITERATOR(this->_Myptr() + _Count));
; 1370 : 		}
; 1371 : 
; 1372 : 	void clear() _NOEXCEPT
; 1373 : 		{	// erase all
; 1374 : 		_Eos(0);
; 1375 : 		}
; 1376 : 
; 1377 : 	_Myt& replace(size_type _Off, size_type _N0, const _Myt& _Right)
; 1378 : 		{	// replace [_Off, _Off + _N0) with _Right
; 1379 : 		return (replace(_Off, _N0, _Right, 0, npos));
; 1380 : 		}
; 1381 : 
; 1382 : 	_Myt& replace(size_type _Off,
; 1383 : 		size_type _N0, const _Myt& _Right, size_type _Roff, size_type _Count)
; 1384 : 		{	// replace [_Off, _Off + _N0) with _Right [_Roff, _Roff + _Count)
; 1385 : 		if (this->_Mysize < _Off || _Right.size() < _Roff)
; 1386 : 			_Xran();	// _Off or _Roff off end
; 1387 : 		if (this->_Mysize - _Off < _N0)
; 1388 : 			_N0 = this->_Mysize - _Off;	// trim _N0 to size
; 1389 : 		size_type _Num = _Right.size() - _Roff;
; 1390 : 		if (_Num < _Count)
; 1391 : 			_Count = _Num;	// trim _Count to size
; 1392 : 		if (npos - _Count <= this->_Mysize - _N0)
; 1393 : 			_Xlen();	// result too long
; 1394 : 
; 1395 : 		size_type _Nm = this->_Mysize - _N0 - _Off;	// length of kept tail
; 1396 : 		size_type _Newsize = this->_Mysize + _Count - _N0;
; 1397 : 		if (this->_Mysize < _Newsize)
; 1398 : 			_Grow(_Newsize);
; 1399 : 
; 1400 : 		if (this != &_Right)
; 1401 : 			{	// no overlap, just move down and copy in new stuff
; 1402 : 			_Traits::move(this->_Myptr() + _Off + _Count,
; 1403 : 				this->_Myptr() + _Off + _N0, _Nm);	// empty hole
; 1404 : 			_Traits::copy(this->_Myptr() + _Off,
; 1405 : 				_Right._Myptr() + _Roff, _Count);	// fill hole
; 1406 : 			}
; 1407 : 		else if (_Count <= _N0)
; 1408 : 			{	// hole doesn't get larger, just copy in substring
; 1409 : 			_Traits::move(this->_Myptr() + _Off,
; 1410 : 				this->_Myptr() + _Roff, _Count);	// fill hole
; 1411 : 			_Traits::move(this->_Myptr() + _Off + _Count,
; 1412 : 				this->_Myptr() + _Off + _N0, _Nm);	// move tail down
; 1413 : 			}
; 1414 : 		else if (_Roff <= _Off)
; 1415 : 			{	// hole gets larger, substring begins before hole
; 1416 : 			_Traits::move(this->_Myptr() + _Off + _Count,
; 1417 : 				this->_Myptr() + _Off + _N0, _Nm);	// move tail down
; 1418 : 			_Traits::move(this->_Myptr() + _Off,
; 1419 : 				this->_Myptr() + _Roff, _Count);	// fill hole
; 1420 : 			}
; 1421 : 		else if (_Off + _N0 <= _Roff)
; 1422 : 			{	// hole gets larger, substring begins after hole
; 1423 : 			_Traits::move(this->_Myptr() + _Off + _Count,
; 1424 : 				this->_Myptr() + _Off + _N0, _Nm);	// move tail down
; 1425 : 			_Traits::move(this->_Myptr() + _Off,
; 1426 : 				this->_Myptr() + (_Roff + _Count - _N0),
; 1427 : 				_Count);	// fill hole
; 1428 : 			}
; 1429 : 		else
; 1430 : 			{	// hole gets larger, substring begins in hole
; 1431 : 			_Traits::move(this->_Myptr() + _Off,
; 1432 : 				this->_Myptr() + _Roff, _N0);	// fill old hole
; 1433 : 			_Traits::move(this->_Myptr() + _Off + _Count,
; 1434 : 				this->_Myptr() + _Off + _N0, _Nm);	// move tail down
; 1435 : 			_Traits::move(this->_Myptr() + _Off + _N0,
; 1436 : 				this->_Myptr() + _Roff + _Count,
; 1437 : 				_Count - _N0);	// fill rest of new hole
; 1438 : 			}
; 1439 : 
; 1440 : 		_Eos(_Newsize);
; 1441 : 		return (*this);
; 1442 : 		}
; 1443 : 
; 1444 : 	_Myt& replace(size_type _Off,
; 1445 : 		size_type _N0, const _Elem *_Ptr, size_type _Count)
; 1446 : 		{	// replace [_Off, _Off + _N0) with [_Ptr, _Ptr + _Count)
; 1447 :  #if _ITERATOR_DEBUG_LEVEL == 2
; 1448 : 		if (_Count != 0)
; 1449 : 			_DEBUG_POINTER(_Ptr);
; 1450 :  #endif /* _ITERATOR_DEBUG_LEVEL == 2 */
; 1451 : 
; 1452 : 		if (_Inside(_Ptr))
; 1453 : 			return (replace(_Off, _N0, *this,
; 1454 : 				_Ptr - this->_Myptr(),
; 1455 : 				_Count));	// substring, replace carefully
; 1456 : 		if (this->_Mysize < _Off)
; 1457 : 			_Xran();	// _Off off end
; 1458 : 		if (this->_Mysize - _Off < _N0)
; 1459 : 			_N0 = this->_Mysize - _Off;	// trim _N0 to size
; 1460 : 		if (npos - _Count <= this->_Mysize - _N0)
; 1461 : 			_Xlen();	// result too long
; 1462 : 		size_type _Nm = this->_Mysize - _N0 - _Off;
; 1463 : 
; 1464 : 		if (_Count < _N0)
; 1465 : 			_Traits::move(this->_Myptr() + _Off + _Count,
; 1466 : 				this->_Myptr() + _Off + _N0,
; 1467 : 				_Nm);	// smaller hole, move tail up
; 1468 : 		size_type _Num;
; 1469 : 		if ((0 < _Count || 0 < _N0)
; 1470 : 			&& _Grow(_Num = this->_Mysize + _Count - _N0))
; 1471 : 			{	// make room and rearrange
; 1472 : 			if (_N0 < _Count)
; 1473 : 				_Traits::move(this->_Myptr() + _Off + _Count,
; 1474 : 					this->_Myptr() + _Off + _N0, _Nm);	// move tail down
; 1475 : 			_Traits::copy(this->_Myptr() + _Off, _Ptr, _Count);	// fill hole
; 1476 : 			_Eos(_Num);
; 1477 : 			}
; 1478 : 		return (*this);
; 1479 : 		}
; 1480 : 
; 1481 : 	_Myt& replace(size_type _Off, size_type _N0, const _Elem *_Ptr)
; 1482 : 		{	// replace [_Off, _Off + _N0) with [_Ptr, <null>)
; 1483 : 		_DEBUG_POINTER(_Ptr);
; 1484 : 		return (replace(_Off, _N0, _Ptr, _Traits::length(_Ptr)));
; 1485 : 		}
; 1486 : 
; 1487 : 	_Myt& replace(size_type _Off,
; 1488 : 		size_type _N0, size_type _Count, _Elem _Ch)
; 1489 : 		{	// replace [_Off, _Off + _N0) with _Count * _Ch
; 1490 : 		if (this->_Mysize < _Off)
; 1491 : 			_Xran();	// _Off off end
; 1492 : 		if (this->_Mysize - _Off < _N0)
; 1493 : 			_N0 = this->_Mysize - _Off;	// trim _N0 to size
; 1494 : 		if (npos - _Count <= this->_Mysize - _N0)
; 1495 : 			_Xlen();	// result too long
; 1496 : 		size_type _Nm = this->_Mysize - _N0 - _Off;
; 1497 : 
; 1498 : 		if (_Count < _N0)
; 1499 : 			_Traits::move(this->_Myptr() + _Off + _Count,
; 1500 : 				this->_Myptr() + _Off + _N0,
; 1501 : 				_Nm);	// smaller hole, move tail up
; 1502 : 		size_type _Num;
; 1503 : 		if ((0 < _Count || 0 < _N0)
; 1504 : 			&& _Grow(_Num = this->_Mysize + _Count - _N0))
; 1505 : 			{	// make room and rearrange
; 1506 : 			if (_N0 < _Count)
; 1507 : 				_Traits::move(this->_Myptr() + _Off + _Count,
; 1508 : 					this->_Myptr() + _Off + _N0, _Nm);	// move tail down
; 1509 : 			_Chassign(_Off, _Count, _Ch);	// fill hole
; 1510 : 			_Eos(_Num);
; 1511 : 			}
; 1512 : 		return (*this);
; 1513 : 		}
; 1514 : 
; 1515 : 	_Myt& replace(const_iterator _First, const_iterator _Last,
; 1516 : 		const _Myt& _Right)
; 1517 : 		{	// replace [_First, _Last) with _Right
; 1518 : 		return (replace(
; 1519 : 			_Pdif(_First, begin()), _Pdif(_Last, _First), _Right));
; 1520 : 		}
; 1521 : 
; 1522 : 	_Myt& replace(const_iterator _First, const_iterator _Last,
; 1523 : 		const _Elem *_Ptr, size_type _Count)
; 1524 : 		{	// replace [_First, _Last) with [_Ptr, _Ptr + _Count)
; 1525 : 		return (replace(
; 1526 : 			_Pdif(_First, begin()), _Pdif(_Last, _First), _Ptr, _Count));
; 1527 : 		}
; 1528 : 
; 1529 : 	_Myt& replace(const_iterator _First, const_iterator _Last,
; 1530 : 		const _Elem *_Ptr)
; 1531 : 		{	// replace [_First, _Last) with [_Ptr, <null>)
; 1532 : 		return (replace(
; 1533 : 			_Pdif(_First, begin()), _Pdif(_Last, _First), _Ptr));
; 1534 : 		}
; 1535 : 
; 1536 : 	_Myt& replace(const_iterator _First, const_iterator _Last,
; 1537 : 		size_type _Count, _Elem _Ch)
; 1538 : 		{	// replace [_First, _Last) with _Count * _Ch
; 1539 : 		return (replace(
; 1540 : 			_Pdif(_First, begin()), _Pdif(_Last, _First), _Count, _Ch));
; 1541 : 		}
; 1542 : 
; 1543 : 	template<class _Iter>
; 1544 : 		typename enable_if<_Is_iterator<_Iter>::value,
; 1545 : 			_Myt&>::type
; 1546 : 		replace(const_iterator _First, const_iterator _Last,
; 1547 : 			_Iter _First2, _Iter _Last2)
; 1548 : 		{	// replace [_First, _Last) with [_First2, _Last2), input iterators
; 1549 : 		_Myt _Right(_First2, _Last2);
; 1550 : 		replace(_First, _Last, _Right);
; 1551 : 		return (*this);
; 1552 : 		}
; 1553 : 
; 1554 : 	_Myt& replace(const_iterator _First, const_iterator _Last,
; 1555 : 		const_pointer _First2, const_pointer _Last2)
; 1556 : 		{	// replace [_First, _Last) with [_First2, _Last2), const pointers
; 1557 : 		if (_First2 == _Last2)
; 1558 : 			erase(_Pdif(_First, begin()), _Pdif(_Last, _First));
; 1559 : 		else
; 1560 : 			replace(_Pdif(_First, begin()), _Pdif(_Last, _First),
; 1561 : 				&*_First2, _Last2 - _First2);
; 1562 : 		return (*this);
; 1563 : 		}
; 1564 : 
; 1565 : 	_Myt& replace(const_iterator _First, const_iterator _Last,
; 1566 : 		pointer _First2, pointer _Last2)
; 1567 : 		{	// replace [_First, _Last) with [_First2, _Last2), const pointers
; 1568 : 		if (_First2 == _Last2)
; 1569 : 			erase(_Pdif(_First, begin()), _Pdif(_Last, _First));
; 1570 : 		else
; 1571 : 			replace(_Pdif(_First, begin()), _Pdif(_Last, _First),
; 1572 : 				&*_First2, _Last2 - _First2);
; 1573 : 		return (*this);
; 1574 : 		}
; 1575 : 
; 1576 : 	_Myt& replace(const_iterator _First, const_iterator _Last,
; 1577 : 		const_iterator _First2, const_iterator _Last2)
; 1578 : 		{	// replace [_First, _Last) with [_First2, _Last2), const_iterators
; 1579 : 		if (_First2 == _Last2)
; 1580 : 			erase(_Pdif(_First, begin()), _Pdif(_Last, _First));
; 1581 : 		else
; 1582 : 			replace(_Pdif(_First, begin()), _Pdif(_Last, _First),
; 1583 : 				&*_First2, _Last2 - _First2);
; 1584 : 		return (*this);
; 1585 : 		}
; 1586 : 
; 1587 : 	_Myt& replace(const_iterator _First, const_iterator _Last,
; 1588 : 		iterator _First2, iterator _Last2)
; 1589 : 		{	// replace [_First, _Last) with [_First2, _Last2), const_iterators
; 1590 : 		if (_First2 == _Last2)
; 1591 : 			erase(_Pdif(_First, begin()), _Pdif(_Last, _First));
; 1592 : 		else
; 1593 : 			replace(_Pdif(_First, begin()), _Pdif(_Last, _First),
; 1594 : 				&*_First2, _Last2 - _First2);
; 1595 : 		return (*this);
; 1596 : 		}
; 1597 : 
; 1598 : 	iterator begin() _NOEXCEPT
; 1599 : 		{	// return iterator for beginning of mutable sequence
; 1600 : 		return (_STRING_ITERATOR(this->_Myptr()));
; 1601 : 		}
; 1602 : 
; 1603 : 	const_iterator begin() const _NOEXCEPT
; 1604 : 		{	// return iterator for beginning of nonmutable sequence
; 1605 : 		return (_STRING_CONST_ITERATOR(this->_Myptr()));
; 1606 : 		}
; 1607 : 
; 1608 : 	iterator end() _NOEXCEPT
; 1609 : 		{	// return iterator for end of mutable sequence
; 1610 : 		return (_STRING_ITERATOR(this->_Myptr() + this->_Mysize));
; 1611 : 		}
; 1612 : 
; 1613 : 	const_iterator end() const _NOEXCEPT
; 1614 : 		{	// return iterator for end of nonmutable sequence
; 1615 : 		return (_STRING_CONST_ITERATOR(this->_Myptr() + this->_Mysize));
; 1616 : 		}
; 1617 : 
; 1618 : 	reverse_iterator rbegin() _NOEXCEPT
; 1619 : 		{	// return iterator for beginning of reversed mutable sequence
; 1620 : 		return (reverse_iterator(end()));
; 1621 : 		}
; 1622 : 
; 1623 : 	const_reverse_iterator rbegin() const _NOEXCEPT
; 1624 : 		{	// return iterator for beginning of reversed nonmutable sequence
; 1625 : 		return (const_reverse_iterator(end()));
; 1626 : 		}
; 1627 : 
; 1628 : 	reverse_iterator rend() _NOEXCEPT
; 1629 : 		{	// return iterator for end of reversed mutable sequence
; 1630 : 		return (reverse_iterator(begin()));
; 1631 : 		}
; 1632 : 
; 1633 : 	const_reverse_iterator rend() const _NOEXCEPT
; 1634 : 		{	// return iterator for end of reversed nonmutable sequence
; 1635 : 		return (const_reverse_iterator(begin()));
; 1636 : 		}
; 1637 : 
; 1638 : 	const_iterator cbegin() const _NOEXCEPT
; 1639 : 		{	// return iterator for beginning of nonmutable sequence
; 1640 : 		return (((const _Myt *)this)->begin());
; 1641 : 		}
; 1642 : 
; 1643 : 	const_iterator cend() const _NOEXCEPT
; 1644 : 		{	// return iterator for end of nonmutable sequence
; 1645 : 		return (((const _Myt *)this)->end());
; 1646 : 		}
; 1647 : 
; 1648 : 	const_reverse_iterator crbegin() const _NOEXCEPT
; 1649 : 		{	// return iterator for beginning of reversed nonmutable sequence
; 1650 : 		return (((const _Myt *)this)->rbegin());
; 1651 : 		}
; 1652 : 
; 1653 : 	const_reverse_iterator crend() const _NOEXCEPT
; 1654 : 		{	// return iterator for end of reversed nonmutable sequence
; 1655 : 		return (((const _Myt *)this)->rend());
; 1656 : 		}
; 1657 : 
; 1658 : 	void shrink_to_fit()
; 1659 : 		{	// reduce capacity
; 1660 : 		if ((size() | this->_ALLOC_MASK) < capacity())
; 1661 : 			{	// worth shrinking, do it
; 1662 : 			_Myt _Tmp(*this);
; 1663 : 			swap(_Tmp);
; 1664 : 			}
; 1665 : 		}
; 1666 : 
; 1667 : 	reference at(size_type _Off)
; 1668 : 		{	// subscript mutable sequence with checking
; 1669 : 		if (this->_Mysize <= _Off)
; 1670 : 			_Xran();	// _Off off end
; 1671 : 		return (this->_Myptr()[_Off]);
; 1672 : 		}
; 1673 : 
; 1674 : 	const_reference at(size_type _Off) const
; 1675 : 		{	// subscript nonmutable sequence with checking
; 1676 : 		if (this->_Mysize <= _Off)
; 1677 : 			_Xran();	// _Off off end
; 1678 : 		return (this->_Myptr()[_Off]);
; 1679 : 		}
; 1680 : 
; 1681 : 	reference operator[](size_type _Off)
; 1682 : 		{	// subscript mutable sequence
; 1683 :  #if _ITERATOR_DEBUG_LEVEL == 2
; 1684 : 		if (this->_Mysize < _Off)	// sic
; 1685 : 			_DEBUG_ERROR("string subscript out of range");
; 1686 : 
; 1687 :  #elif _ITERATOR_DEBUG_LEVEL == 1
; 1688 : 		_SCL_SECURE_VALIDATE_RANGE(_Off <= this->_Mysize);	// sic
; 1689 :  #endif /* _ITERATOR_DEBUG_LEVEL == 2 */
; 1690 : 
; 1691 : 		return (this->_Myptr()[_Off]);
; 1692 : 		}
; 1693 : 
; 1694 : 	const_reference operator[](size_type _Off) const
; 1695 : 		{	// subscript nonmutable sequence
; 1696 :  #if _ITERATOR_DEBUG_LEVEL == 2
; 1697 : 		if (this->_Mysize < _Off)	// sic
; 1698 : 			_DEBUG_ERROR("string subscript out of range");
; 1699 : 
; 1700 :  #elif _ITERATOR_DEBUG_LEVEL == 1
; 1701 : 		_SCL_SECURE_VALIDATE_RANGE(_Off <= this->_Mysize);	// sic
; 1702 :  #endif /* _ITERATOR_DEBUG_LEVEL == 2 */
; 1703 : 
; 1704 : 		return (this->_Myptr()[_Off]);
; 1705 : 		}
; 1706 : 
; 1707 : 	void push_back(_Elem _Ch)
; 1708 : 		{	// insert element at end
; 1709 : 		insert(end(), _Ch);
; 1710 : 		}
; 1711 : 
; 1712 : 	void pop_back()
; 1713 : 		{	// erase element at end
; 1714 : 		erase(this->_Mysize - 1);	// throws if _Mysize == 0
; 1715 : 		}
; 1716 : 
; 1717 : 	reference front()
; 1718 : 		{	// return first element of mutable sequence
; 1719 : 		return (*begin());
; 1720 : 		}
; 1721 : 
; 1722 : 	const_reference front() const
; 1723 : 		{	// return first element of nonmutable sequence
; 1724 : 		return (*begin());
; 1725 : 		}
; 1726 : 
; 1727 : 	reference back()
; 1728 : 		{	// return last element of mutable sequence
; 1729 : 		return (*(end() - 1));
; 1730 : 		}
; 1731 : 
; 1732 : 	const_reference back() const
; 1733 : 		{	// return last element of nonmutable sequence
; 1734 : 		return (*(end() - 1));
; 1735 : 		}
; 1736 : 
; 1737 : 	const _Elem *c_str() const _NOEXCEPT
; 1738 : 		{	// return pointer to null-terminated nonmutable array
; 1739 : 		return (this->_Myptr());
; 1740 : 		}
; 1741 : 
; 1742 : 	const _Elem *data() const _NOEXCEPT
; 1743 : 		{	// return pointer to nonmutable array
; 1744 : 		return (c_str());
; 1745 : 		}
; 1746 : 
; 1747 : 	size_type length() const _NOEXCEPT
; 1748 : 		{	// return length of sequence
; 1749 : 		return (this->_Mysize);
; 1750 : 		}
; 1751 : 
; 1752 : 	size_type size() const _NOEXCEPT
; 1753 : 		{	// return length of sequence
; 1754 : 		return (this->_Mysize);
; 1755 : 		}
; 1756 : 
; 1757 : 	size_type max_size() const _NOEXCEPT
; 1758 : 		{	// return maximum possible length of sequence
; 1759 : 		size_type _Num = this->_Getal().max_size();
; 1760 : 		return (_Num <= 1 ? 1 : _Num - 1);
; 1761 : 		}
; 1762 : 
; 1763 : 	void resize(size_type _Newsize)
; 1764 : 		{	// determine new length, padding with null elements as needed
; 1765 : 		resize(_Newsize, _Elem());
; 1766 : 		}
; 1767 : 
; 1768 : 	void resize(size_type _Newsize, _Elem _Ch)
; 1769 : 		{	// determine new length, padding with _Ch elements as needed
; 1770 : 		if (_Newsize <= this->_Mysize)
; 1771 : 			_Eos(_Newsize);
; 1772 : 		else
; 1773 : 			append(_Newsize - this->_Mysize, _Ch);
; 1774 : 		}
; 1775 : 
; 1776 : 	size_type capacity() const _NOEXCEPT
; 1777 : 		{	// return current length of allocated storage
; 1778 : 		return (this->_Myres);
; 1779 : 		}
; 1780 : 
; 1781 : 	void reserve(size_type _Newcap = 0)
; 1782 : 		{	// determine new minimum length of allocated storage
; 1783 : 		if (this->_Mysize <= _Newcap && this->_Myres != _Newcap)
; 1784 : 			{	// change reservation
; 1785 : 			size_type _Size = this->_Mysize;
; 1786 : 			if (_Grow(_Newcap, true))
; 1787 : 				_Eos(_Size);
; 1788 : 			}
; 1789 : 		}
; 1790 : 
; 1791 : 	bool empty() const _NOEXCEPT
; 1792 : 		{	// test if sequence is empty
; 1793 : 		return (this->_Mysize == 0);
; 1794 : 		}
; 1795 : 
; 1796 : 	_SCL_INSECURE_DEPRECATE
; 1797 : 
; 1798 : 	size_type copy(_Elem *_Ptr,
; 1799 : 		size_type _Count, size_type _Off = 0) const
; 1800 : 		{	// copy [_Off, _Off + _Count) to [_Ptr, _Ptr + _Count)
; 1801 :  #if _ITERATOR_DEBUG_LEVEL == 2
; 1802 : 		if (_Count != 0)
; 1803 : 			_DEBUG_POINTER(_Ptr);
; 1804 :  #endif /* _ITERATOR_DEBUG_LEVEL == 2 */
; 1805 : 
; 1806 : 		if (this->_Mysize < _Off)
; 1807 : 			_Xran();	// _Off off end
; 1808 : 		if (this->_Mysize - _Off < _Count)
; 1809 : 			_Count = this->_Mysize - _Off;
; 1810 : 		_Traits::copy(_Ptr, this->_Myptr() + _Off, _Count);
; 1811 : 		return (_Count);
; 1812 : 		}
; 1813 : 
; 1814 : 	size_type _Copy_s(_Elem *_Dest, size_type _Dest_size,
; 1815 : 		size_type _Count, size_type _Off = 0) const
; 1816 : 		{	// copy [_Off, _Off + _Count) to [_Dest, _Dest + _Count)
; 1817 :  #if _ITERATOR_DEBUG_LEVEL == 2
; 1818 : 		if (_Count != 0)
; 1819 : 			_DEBUG_POINTER(_Dest);
; 1820 :  #endif /* _ITERATOR_DEBUG_LEVEL == 2 */
; 1821 : 
; 1822 : 		if (this->_Mysize < _Off)
; 1823 : 			_Xran();	// _Off off end
; 1824 : 		if (this->_Mysize - _Off < _Count)
; 1825 : 			_Count = this->_Mysize - _Off;
; 1826 : 		_Traits::_Copy_s(_Dest, _Dest_size, this->_Myptr() + _Off, _Count);
; 1827 : 		return (_Count);
; 1828 : 		}
; 1829 : 
; 1830 : 	void _Swap_bx(_Myt& _Right)
; 1831 : 		{	// exchange _Bx with _Right._Bx
; 1832 : 		if (this->_BUF_SIZE <= this->_Myres)
; 1833 : 			if (this->_BUF_SIZE <= _Right._Myres)
; 1834 : 				_Swap_adl(this->_Bx._Ptr, _Right._Bx._Ptr);
; 1835 : 			else
; 1836 : 				{	// swap large with small
; 1837 : 				pointer _Ptr = this->_Bx._Ptr;
; 1838 : 				this->_Getal().destroy(&this->_Bx._Ptr);
; 1839 : 				_Traits::copy(this->_Bx._Buf,
; 1840 : 					_Right._Bx._Buf, _Right._Mysize + 1);
; 1841 : 				this->_Getal().construct(&_Right._Bx._Ptr, _Ptr);
; 1842 : 				}
; 1843 : 		else
; 1844 : 			if (_Right._Myres < this->_BUF_SIZE)
; 1845 : 				_STD swap(this->_Bx._Buf, _Right._Bx._Buf);
; 1846 : 			else
; 1847 : 				{	// swap small with large
; 1848 : 				pointer _Ptr = _Right._Bx._Ptr;
; 1849 : 				this->_Getal().destroy(&_Right._Bx._Ptr);
; 1850 : 				_Traits::copy(_Right._Bx._Buf,
; 1851 : 					this->_Bx._Buf, this->_Mysize + 1);
; 1852 : 				this->_Getal().construct(&this->_Bx._Ptr, _Ptr);
; 1853 : 				}
; 1854 : 		}
; 1855 : 
; 1856 : 	void swap(_Myt& _Right)
; 1857 : 		{	// exchange contents with _Right
; 1858 : 		if (this == &_Right)
; 1859 : 			;	// same object, do nothing
; 1860 : 		else if (this->_Getal() == _Right._Getal())
; 1861 : 			{	// same allocator, swap control information
; 1862 : 			this->_Swap_all(_Right);
; 1863 : 			_Swap_bx(_Right);
; 1864 : 			_STD swap(this->_Mysize, _Right._Mysize);
; 1865 : 			_STD swap(this->_Myres, _Right._Myres);
; 1866 : 			}
; 1867 : 
; 1868 : 		else if (_Alty::propagate_on_container_swap::value)
; 1869 : 			{	// swap allocators and control information
; 1870 : 			this->_Swap_alloc(_Right);
; 1871 : 			_Swap_bx(_Right);
; 1872 : 			_STD swap(this->_Bx, _Right._Bx);	// pointer bitwise copyable?
; 1873 : 			_STD swap(this->_Mysize, _Right._Mysize);
; 1874 : 			_STD swap(this->_Myres, _Right._Myres);
; 1875 : 			}
; 1876 : 
; 1877 : 		else
; 1878 : 			{	// different allocator, do multiple assigns
; 1879 : 			_Myt _Tmp = *this;
; 1880 : 
; 1881 : 			*this = _Right;
; 1882 : 			_Right = _Tmp;
; 1883 : 			}
; 1884 : 		}
; 1885 : 
; 1886 : 	size_type find(const _Myt& _Right, size_type _Off = 0) const _NOEXCEPT
; 1887 : 		{	// look for _Right beginning at or after _Off
; 1888 : 		return (find(_Right._Myptr(), _Off, _Right.size()));
; 1889 : 		}
; 1890 : 
; 1891 : 	size_type find(const _Elem *_Ptr,
; 1892 : 		size_type _Off, size_type _Count) const
; 1893 : 		{	// look for [_Ptr, _Ptr + _Count) beginning at or after _Off
; 1894 :  #if _ITERATOR_DEBUG_LEVEL == 2
; 1895 : 		if (_Count != 0)
; 1896 : 			_DEBUG_POINTER(_Ptr);
; 1897 :  #endif /* _ITERATOR_DEBUG_LEVEL == 2 */
; 1898 : 
; 1899 : 		if (_Count == 0 && _Off <= this->_Mysize)
; 1900 : 			return (_Off);	// null string always matches (if inside string)
; 1901 : 
; 1902 : 		size_type _Nm;
; 1903 : 		if (_Off < this->_Mysize && _Count <= (_Nm = this->_Mysize - _Off))
; 1904 : 			{	// room for match, look for it
; 1905 : 			const _Elem *_Uptr, *_Vptr;
; 1906 : 			for (_Nm -= _Count - 1, _Vptr = this->_Myptr() + _Off;
; 1907 : 				(_Uptr = _Traits::find(_Vptr, _Nm, *_Ptr)) != 0;
; 1908 : 				_Nm -= _Uptr - _Vptr + 1, _Vptr = _Uptr + 1)
; 1909 : 				if (_Traits::compare(_Uptr, _Ptr, _Count) == 0)
; 1910 : 					return (_Uptr - this->_Myptr());	// found a match
; 1911 : 			}
; 1912 : 
; 1913 : 		return (npos);	// no match
; 1914 : 		}
; 1915 : 
; 1916 : 	size_type find(const _Elem *_Ptr, size_type _Off = 0) const
; 1917 : 		{	// look for [_Ptr, <null>) beginning at or after _Off
; 1918 : 		_DEBUG_POINTER(_Ptr);
; 1919 : 		return (find(_Ptr, _Off, _Traits::length(_Ptr)));
; 1920 : 		}
; 1921 : 
; 1922 : 	size_type find(_Elem _Ch, size_type _Off = 0) const
; 1923 : 		{	// look for _Ch at or after _Off
; 1924 : 		return (find((const _Elem *)&_Ch, _Off, 1));
; 1925 : 		}
; 1926 : 
; 1927 : 	size_type rfind(const _Myt& _Right, size_type _Off = npos) const _NOEXCEPT
; 1928 : 		{	// look for _Right beginning before _Off
; 1929 : 		return (rfind(_Right._Myptr(), _Off, _Right.size()));
; 1930 : 		}
; 1931 : 
; 1932 : 	size_type rfind(const _Elem *_Ptr,
; 1933 : 		size_type _Off, size_type _Count) const
; 1934 : 		{	// look for [_Ptr, _Ptr + _Count) beginning before _Off
; 1935 :  #if _ITERATOR_DEBUG_LEVEL == 2
; 1936 : 		if (_Count != 0)
; 1937 : 			_DEBUG_POINTER(_Ptr);
; 1938 :  #endif /* _ITERATOR_DEBUG_LEVEL == 2 */
; 1939 : 
; 1940 : 		if (_Count == 0)
; 1941 : 			return (_Off < this->_Mysize ? _Off
; 1942 : 				: this->_Mysize);	// null always matches
; 1943 : 		if (_Count <= this->_Mysize)
; 1944 : 			{	// room for match, look for it
; 1945 : 			const _Elem *_Uptr = this->_Myptr() +
; 1946 : 				(_Off < this->_Mysize - _Count ? _Off
; 1947 : 					: this->_Mysize - _Count);
; 1948 : 			for (; ; --_Uptr)
; 1949 : 				if (_Traits::eq(*_Uptr, *_Ptr)
; 1950 : 					&& _Traits::compare(_Uptr, _Ptr, _Count) == 0)
; 1951 : 					return (_Uptr - this->_Myptr());	// found a match
; 1952 : 				else if (_Uptr == this->_Myptr())
; 1953 : 					break;	// at beginning, no more chance for match
; 1954 : 			}
; 1955 : 
; 1956 : 		return (npos);	// no match
; 1957 : 		}
; 1958 : 
; 1959 : 	size_type rfind(const _Elem *_Ptr, size_type _Off = npos) const
; 1960 : 		{	// look for [_Ptr, <null>) beginning before _Off
; 1961 : 		_DEBUG_POINTER(_Ptr);
; 1962 : 		return (rfind(_Ptr, _Off, _Traits::length(_Ptr)));
; 1963 : 		}
; 1964 : 
; 1965 : 	size_type rfind(_Elem _Ch, size_type _Off = npos) const
; 1966 : 		{	// look for _Ch before _Off
; 1967 : 		return (rfind((const _Elem *)&_Ch, _Off, 1));
; 1968 : 		}
; 1969 : 
; 1970 : 	size_type find_first_of(const _Myt& _Right,
; 1971 : 		size_type _Off = 0) const _NOEXCEPT
; 1972 : 		{	// look for one of _Right at or after _Off
; 1973 : 		return (find_first_of(_Right._Myptr(), _Off, _Right.size()));
; 1974 : 		}
; 1975 : 
; 1976 : 	size_type find_first_of(const _Elem *_Ptr,
; 1977 : 		size_type _Off, size_type _Count) const
; 1978 : 		{	// look for one of [_Ptr, _Ptr + _Count) at or after _Off
; 1979 :  #if _ITERATOR_DEBUG_LEVEL == 2
; 1980 : 		if (_Count != 0)
; 1981 : 			_DEBUG_POINTER(_Ptr);
; 1982 :  #endif /* _ITERATOR_DEBUG_LEVEL == 2 */
; 1983 : 
; 1984 : 		if (0 < _Count && _Off < this->_Mysize)
; 1985 : 			{	// room for match, look for it
; 1986 : 			const _Elem *const _Vptr = this->_Myptr() + this->_Mysize;
; 1987 : 			for (const _Elem *_Uptr = this->_Myptr() + _Off;
; 1988 : 				_Uptr < _Vptr; ++_Uptr)
; 1989 : 				if (_Traits::find(_Ptr, _Count, *_Uptr) != 0)
; 1990 : 					return (_Uptr - this->_Myptr());	// found a match
; 1991 : 			}
; 1992 : 
; 1993 : 		return (npos);	// no match
; 1994 : 		}
; 1995 : 
; 1996 : 	size_type find_first_of(const _Elem *_Ptr,
; 1997 : 		size_type _Off = 0) const
; 1998 : 		{	// look for one of [_Ptr, <null>) at or after _Off
; 1999 : 		_DEBUG_POINTER(_Ptr);
; 2000 : 		return (find_first_of(_Ptr, _Off, _Traits::length(_Ptr)));
; 2001 : 		}
; 2002 : 
; 2003 : 	size_type find_first_of(_Elem _Ch,
; 2004 : 		size_type _Off = 0) const
; 2005 : 		{	// look for _Ch at or after _Off
; 2006 : 		return (find((const _Elem *)&_Ch, _Off, 1));
; 2007 : 		}
; 2008 : 
; 2009 : 	size_type find_last_of(const _Myt& _Right,
; 2010 : 		size_type _Off = npos) const _NOEXCEPT
; 2011 : 		{	// look for one of _Right before _Off
; 2012 : 		return (find_last_of(_Right._Myptr(), _Off, _Right.size()));
; 2013 : 		}
; 2014 : 
; 2015 : 	size_type find_last_of(const _Elem *_Ptr,
; 2016 : 		size_type _Off, size_type _Count) const
; 2017 : 		{	// look for one of [_Ptr, _Ptr + _Count) before _Off
; 2018 :  #if _ITERATOR_DEBUG_LEVEL == 2
; 2019 : 		if (_Count != 0)
; 2020 : 			_DEBUG_POINTER(_Ptr);
; 2021 :  #endif /* _ITERATOR_DEBUG_LEVEL == 2 */
; 2022 : 
; 2023 : 		if (0 < _Count && 0 < this->_Mysize)
; 2024 : 			{	// worth searching, do it
; 2025 : 			const _Elem *_Uptr = this->_Myptr()
; 2026 : 				+ (_Off < this->_Mysize ? _Off : this->_Mysize - 1);
; 2027 : 			for (; ; --_Uptr)
; 2028 : 				if (_Traits::find(_Ptr, _Count, *_Uptr) != 0)
; 2029 : 					return (_Uptr - this->_Myptr());	// found a match
; 2030 : 				else if (_Uptr == this->_Myptr())
; 2031 : 					break;	// at beginning, no more chance for match
; 2032 : 			}
; 2033 : 
; 2034 : 		return (npos);	// no match
; 2035 : 		}
; 2036 : 
; 2037 : 	size_type find_last_of(const _Elem *_Ptr,
; 2038 : 		size_type _Off = npos) const
; 2039 : 		{	// look for one of [_Ptr, <null>) before _Off
; 2040 : 		_DEBUG_POINTER(_Ptr);
; 2041 : 		return (find_last_of(_Ptr, _Off, _Traits::length(_Ptr)));
; 2042 : 		}
; 2043 : 
; 2044 : 	size_type find_last_of(_Elem _Ch,
; 2045 : 		size_type _Off = npos) const
; 2046 : 		{	// look for _Ch before _Off
; 2047 : 		return (rfind((const _Elem *)&_Ch, _Off, 1));
; 2048 : 		}
; 2049 : 
; 2050 : 	size_type find_first_not_of(const _Myt& _Right,
; 2051 : 		size_type _Off = 0) const _NOEXCEPT
; 2052 : 		{	// look for none of _Right at or after _Off
; 2053 : 		return (find_first_not_of(_Right._Myptr(), _Off,
; 2054 : 			_Right.size()));
; 2055 : 		}
; 2056 : 
; 2057 : 	size_type find_first_not_of(const _Elem *_Ptr,
; 2058 : 		size_type _Off, size_type _Count) const
; 2059 : 		{	// look for none of [_Ptr, _Ptr + _Count) at or after _Off
; 2060 :  #if _ITERATOR_DEBUG_LEVEL == 2
; 2061 : 		if (_Count != 0)
; 2062 : 			_DEBUG_POINTER(_Ptr);
; 2063 :  #endif /* _ITERATOR_DEBUG_LEVEL == 2 */
; 2064 : 
; 2065 : 		if (_Off < this->_Mysize)
; 2066 : 			{	// room for match, look for it
; 2067 : 			const _Elem *const _Vptr = this->_Myptr() + this->_Mysize;
; 2068 : 			for (const _Elem *_Uptr = this->_Myptr() + _Off;
; 2069 : 				_Uptr < _Vptr; ++_Uptr)
; 2070 : 				if (_Traits::find(_Ptr, _Count, *_Uptr) == 0)
; 2071 : 					return (_Uptr - this->_Myptr());
; 2072 : 			}
; 2073 : 		return (npos);
; 2074 : 		}
; 2075 : 
; 2076 : 	size_type find_first_not_of(const _Elem *_Ptr,
; 2077 : 		size_type _Off = 0) const
; 2078 : 		{	// look for one of [_Ptr, <null>) at or after _Off
; 2079 : 		_DEBUG_POINTER(_Ptr);
; 2080 : 		return (find_first_not_of(_Ptr, _Off, _Traits::length(_Ptr)));
; 2081 : 		}
; 2082 : 
; 2083 : 	size_type find_first_not_of(_Elem _Ch,
; 2084 : 		size_type _Off = 0) const
; 2085 : 		{	// look for non _Ch at or after _Off
; 2086 : 		return (find_first_not_of((const _Elem *)&_Ch, _Off, 1));
; 2087 : 		}
; 2088 : 
; 2089 : 	size_type find_last_not_of(const _Myt& _Right,
; 2090 : 		size_type _Off = npos) const _NOEXCEPT
; 2091 : 		{	// look for none of _Right before _Off
; 2092 : 		return (find_last_not_of(_Right._Myptr(), _Off, _Right.size()));
; 2093 : 		}
; 2094 : 
; 2095 : 	size_type find_last_not_of(const _Elem *_Ptr,
; 2096 : 		size_type _Off, size_type _Count) const
; 2097 : 		{	// look for none of [_Ptr, _Ptr + _Count) before _Off
; 2098 :  #if _ITERATOR_DEBUG_LEVEL == 2
; 2099 : 		if (_Count != 0)
; 2100 : 			_DEBUG_POINTER(_Ptr);
; 2101 :  #endif /* _ITERATOR_DEBUG_LEVEL == 2 */
; 2102 : 
; 2103 : 		if (0 < this->_Mysize)
; 2104 : 			{	// worth searching, do it
; 2105 : 			const _Elem *_Uptr = this->_Myptr()
; 2106 : 				+ (_Off < this->_Mysize ? _Off : this->_Mysize - 1);
; 2107 : 			for (; ; --_Uptr)
; 2108 : 				if (_Traits::find(_Ptr, _Count, *_Uptr) == 0)
; 2109 : 					return (_Uptr - this->_Myptr());
; 2110 : 				else if (_Uptr == this->_Myptr())
; 2111 : 					break;
; 2112 : 			}
; 2113 : 		return (npos);
; 2114 : 		}
; 2115 : 
; 2116 : 	size_type find_last_not_of(const _Elem *_Ptr,
; 2117 : 		size_type _Off = npos) const
; 2118 : 		{	// look for none of [_Ptr, <null>) before _Off
; 2119 : 		_DEBUG_POINTER(_Ptr);
; 2120 : 		return (find_last_not_of(_Ptr, _Off, _Traits::length(_Ptr)));
; 2121 : 		}
; 2122 : 
; 2123 : 	size_type find_last_not_of(_Elem _Ch,
; 2124 : 		size_type _Off = npos) const
; 2125 : 		{	// look for non _Ch before _Off
; 2126 : 		return (find_last_not_of((const _Elem *)&_Ch, _Off, 1));
; 2127 : 		}
; 2128 : 
; 2129 : 	_Myt substr(size_type _Off = 0, size_type _Count = npos) const
; 2130 : 		{	// return [_Off, _Off + _Count) as new string
; 2131 : 		return (_Myt(*this, _Off, _Count, get_allocator()));
; 2132 : 		}
; 2133 : 
; 2134 : 	int compare(const _Myt& _Right) const _NOEXCEPT
; 2135 : 		{	// compare [0, _Mysize) with _Right
; 2136 : 		return (compare(0, this->_Mysize, _Right._Myptr(), _Right.size()));
; 2137 : 		}
; 2138 : 
; 2139 : 	int compare(size_type _Off, size_type _N0,
; 2140 : 		const _Myt& _Right) const
; 2141 : 		{	// compare [_Off, _Off + _N0) with _Right
; 2142 : 		return (compare(_Off, _N0, _Right, 0, npos));
; 2143 : 		}
; 2144 : 
; 2145 : 	int compare(size_type _Off,
; 2146 : 		size_type _N0, const _Myt& _Right,
; 2147 : 		size_type _Roff, size_type _Count) const
; 2148 : 		{	// compare [_Off, _Off + _N0) with _Right [_Roff, _Roff + _Count)
; 2149 : 		if (_Right.size() < _Roff)
; 2150 : 			_Xran();	// _Off off end
; 2151 : 		if (_Right._Mysize - _Roff < _Count)
; 2152 : 			_Count = _Right._Mysize - _Roff;	// trim _Count to size
; 2153 : 		return (compare(_Off, _N0, _Right._Myptr() + _Roff, _Count));
; 2154 : 		}
; 2155 : 
; 2156 : 	int compare(const _Elem *_Ptr) const
; 2157 : 		{	// compare [0, _Mysize) with [_Ptr, <null>)
; 2158 : 		_DEBUG_POINTER(_Ptr);
; 2159 : 		return (compare(0, this->_Mysize, _Ptr, _Traits::length(_Ptr)));
; 2160 : 		}
; 2161 : 
; 2162 : 	int compare(size_type _Off, size_type _N0, const _Elem *_Ptr) const
; 2163 : 		{	// compare [_Off, _Off + _N0) with [_Ptr, <null>)
; 2164 : 		_DEBUG_POINTER(_Ptr);
; 2165 : 		return (compare(_Off, _N0, _Ptr, _Traits::length(_Ptr)));
; 2166 : 		}
; 2167 : 
; 2168 : 	int compare(size_type _Off,
; 2169 : 		size_type _N0, const _Elem *_Ptr, size_type _Count) const
; 2170 : 		{	// compare [_Off, _Off + _N0) with [_Ptr, _Ptr + _Count)
; 2171 :  #if _ITERATOR_DEBUG_LEVEL == 2
; 2172 : 		if (_Count != 0)
; 2173 : 			_DEBUG_POINTER(_Ptr);
; 2174 :  #endif /* _ITERATOR_DEBUG_LEVEL == 2 */
; 2175 : 
; 2176 : 		if (this->_Mysize < _Off)
; 2177 : 			_Xran();	// _Off off end
; 2178 : 		if (this->_Mysize - _Off < _N0)
; 2179 : 			_N0 = this->_Mysize - _Off;	// trim _N0 to size
; 2180 : 
; 2181 : 		size_type _Ans = _Traits::compare(this->_Myptr() + _Off, _Ptr,
; 2182 : 			_N0 < _Count ? _N0 : _Count);
; 2183 : 		return (_Ans != 0 ? (int)_Ans : _N0 < _Count ? -1
; 2184 : 			: _N0 == _Count ? 0 : +1);
; 2185 : 		}
; 2186 : 
; 2187 : 	allocator_type get_allocator() const _NOEXCEPT
; 2188 : 		{	// return allocator object for values
; 2189 : 		return (this->_Getal());
; 2190 : 		}
; 2191 : 
; 2192 : 	void _Chassign(size_type _Off, size_type _Count, _Elem _Ch)
; 2193 : 		{	// assign _Count copies of _Ch beginning at _Off
; 2194 : 		if (_Count == 1)
; 2195 : 			_Traits::assign(*(this->_Myptr() + _Off), _Ch);
; 2196 : 		else
; 2197 : 			_Traits::assign(this->_Myptr() + _Off, _Count, _Ch);
; 2198 : 		}
; 2199 : 
; 2200 : 	void _Copy(size_type _Newsize, size_type _Oldlen)
; 2201 : 		{	// copy _Oldlen elements to newly allocated buffer
; 2202 : 		size_type _Newres = _Newsize | this->_ALLOC_MASK;
; 2203 : 		if (max_size() < _Newres)
; 2204 : 			_Newres = _Newsize;	// undo roundup if too big
; 2205 : 		else if (this->_Myres / 2 <= _Newres / 3)
; 2206 : 			;
; 2207 : 		else if (this->_Myres <= max_size() - this->_Myres / 2)
; 2208 : 			_Newres = this->_Myres
; 2209 : 				+ this->_Myres / 2;	// grow exponentially if possible
; 2210 : 		else
; 2211 : 			_Newres = max_size();	// settle for max_size()
; 2212 : 
; 2213 : 		_Elem *_Ptr;
; 2214 : 		_TRY_BEGIN
; 2215 : 			_Ptr = this->_Getal().allocate(_Newres + 1);
; 2216 : 		_CATCH_ALL
; 2217 : 			_Newres = _Newsize;	// allocation failed, undo roundup and retry
; 2218 : 			_TRY_BEGIN
; 2219 : 				_Ptr = this->_Getal().allocate(_Newres + 1);
; 2220 : 			_CATCH_ALL
; 2221 : 			_Tidy(true);	// failed again, discard storage and reraise
; 2222 : 			_RERAISE;
; 2223 : 			_CATCH_END
; 2224 : 		_CATCH_END
; 2225 : 
; 2226 : 		if (0 < _Oldlen)
; 2227 : 			_Traits::copy(_Ptr, this->_Myptr(),
; 2228 : 				_Oldlen);	// copy existing elements
; 2229 : 		_Tidy(true);
; 2230 : 		this->_Getal().construct(&this->_Bx._Ptr, _Ptr);
; 2231 : 		this->_Myres = _Newres;
; 2232 : 		_Eos(_Oldlen);
; 2233 : 		}
; 2234 : 
; 2235 : 	void _Eos(size_type _Newsize)
; 2236 : 		{	// set new length and null terminator
; 2237 : 		_Traits::assign(this->_Myptr()[this->_Mysize = _Newsize], _Elem());

	mov	QWORD PTR [rdx+16], rax
; File c:\program files (x86)\microsoft visual studio 12.0\vc\include\iosfwd

; 564  : 		_Left = _Right;

	mov	BYTE PTR [rdx], al
; File c:\program files (x86)\microsoft visual studio 12.0\vc\include\xstring

; 1169 : 		return (assign(_Ptr, _Traits::length(_Ptr)));

	lea	rdx, OFFSET FLAT:??_C@_0BG@PADBLCHM@iostream?5stream?5error?$AA@
	lea	r8d, QWORD PTR [rax+21]
	mov	rcx, rbx
	call	?assign@?$basic_string@DU?$char_traits@D@std@@V?$allocator@D@2@@std@@QEAAAEAV12@PEBD_K@Z ; std::basic_string<char,std::char_traits<char>,std::allocator<char> >::assign
; File c:\program files (x86)\microsoft visual studio 12.0\vc\include\system_error

; 588  : 			return (_Generic_error_category::message(_Errcode));

	mov	rax, rbx

; 589  : 		}

	add	rsp, 48					; 00000030H
	pop	rbx
	ret	0
$LN2@message:

; 588  : 			return (_Generic_error_category::message(_Errcode));

	call	?message@_Generic_error_category@std@@UEBA?AV?$basic_string@DU?$char_traits@D@std@@V?$allocator@D@2@@2@H@Z ; std::_Generic_error_category::message
	mov	rax, rbx

; 589  : 		}

	add	rsp, 48					; 00000030H
	pop	rbx
	ret	0
?message@_Iostream_error_category@std@@UEBA?AV?$basic_string@DU?$char_traits@D@std@@V?$allocator@D@2@@2@H@Z ENDP ; std::_Iostream_error_category::message
_TEXT	ENDS
; Function compile flags: /Ogtpy
; File c:\program files (x86)\microsoft visual studio 12.0\vc\include\system_error
;	COMDAT ??_G_Iostream_error_category@std@@UEAAPEAXI@Z
_TEXT	SEGMENT
this$ = 48
__flags$ = 56
??_G_Iostream_error_category@std@@UEAAPEAXI@Z PROC	; std::_Iostream_error_category::`scalar deleting destructor', COMDAT
$LN12:
	push	rbx
	sub	rsp, 32					; 00000020H

; 159  : 		{	// destroy the object

	lea	rax, OFFSET FLAT:??_7error_category@std@@6B@
	mov	rbx, rcx
	mov	QWORD PTR [rcx], rax
	test	dl, 1
	je	SHORT $LN10@scalar
	call	??3@YAXPEAX@Z				; operator delete
$LN10@scalar:
	mov	rax, rbx
	add	rsp, 32					; 00000020H
	pop	rbx
	ret	0
??_G_Iostream_error_category@std@@UEAAPEAXI@Z ENDP	; std::_Iostream_error_category::`scalar deleting destructor'
_TEXT	ENDS
; Function compile flags: /Ogtpy
; File c:\program files (x86)\microsoft visual studio 12.0\vc\include\system_error
;	COMDAT ??1_Iostream_error_category@std@@UEAA@XZ
_TEXT	SEGMENT
this$ = 8
??1_Iostream_error_category@std@@UEAA@XZ PROC		; std::_Iostream_error_category::~_Iostream_error_category, COMDAT

; 159  : 		{	// destroy the object

	lea	rax, OFFSET FLAT:??_7error_category@std@@6B@
	mov	QWORD PTR [rcx], rax
	ret	0
??1_Iostream_error_category@std@@UEAA@XZ ENDP		; std::_Iostream_error_category::~_Iostream_error_category
_TEXT	ENDS
; Function compile flags: /Ogtpy
; File c:\program files (x86)\microsoft visual studio 12.0\vc\include\system_error
;	COMDAT ??0_System_error_category@std@@QEAA@XZ
_TEXT	SEGMENT
this$ = 8
??0_System_error_category@std@@QEAA@XZ PROC		; std::_System_error_category::_System_error_category, COMDAT

; 597  : 	_System_error_category()

	lea	rax, OFFSET FLAT:??_7_System_error_category@std@@6B@
	mov	QWORD PTR [rcx], rax

; 598  : 		{	// default constructor
; 599  : 		}

	mov	rax, rcx
	ret	0
??0_System_error_category@std@@QEAA@XZ ENDP		; std::_System_error_category::_System_error_category
_TEXT	ENDS
; Function compile flags: /Ogtpy
; File c:\program files (x86)\microsoft visual studio 12.0\vc\include\system_error
;	COMDAT ?name@_System_error_category@std@@UEBAPEBDXZ
_TEXT	SEGMENT
this$ = 8
?name@_System_error_category@std@@UEBAPEBDXZ PROC	; std::_System_error_category::name, COMDAT

; 603  : 		return ("system");

	lea	rax, OFFSET FLAT:??_C@_06FHFOAHML@system?$AA@

; 604  : 		}

	ret	0
?name@_System_error_category@std@@UEBAPEBDXZ ENDP	; std::_System_error_category::name
_TEXT	ENDS
; Function compile flags: /Ogtpy
; File c:\program files (x86)\microsoft visual studio 12.0\vc\include\system_error
; File c:\program files (x86)\microsoft visual studio 12.0\vc\include\xstring
; File c:\program files (x86)\microsoft visual studio 12.0\vc\include\system_error
; File c:\program files (x86)\microsoft visual studio 12.0\vc\include\xstring
; File c:\program files (x86)\microsoft visual studio 12.0\vc\include\system_error
; File c:\program files (x86)\microsoft visual studio 12.0\vc\include\iosfwd
; File c:\program files (x86)\microsoft visual studio 12.0\vc\include\xstring
; File c:\program files (x86)\microsoft visual studio 12.0\vc\include\system_error
;	COMDAT ?message@_System_error_category@std@@UEBA?AV?$basic_string@DU?$char_traits@D@std@@V?$allocator@D@2@@2@H@Z
_TEXT	SEGMENT
$T1 = 32
this$ = 64
__$ReturnUdt$ = 72
_Errcode$ = 80
?message@_System_error_category@std@@UEBA?AV?$basic_string@DU?$char_traits@D@std@@V?$allocator@D@2@@2@H@Z PROC ; std::_System_error_category::message, COMDAT

; 607  : 		{	// convert to name of error

$LN51:
	mov	QWORD PTR [rsp+8], rbx
	push	rdi
	sub	rsp, 48					; 00000030H
	xor	ebx, ebx

; 608  : 		const char *_Name = _Winerror_map(_Errcode);

	mov	ecx, r8d
	mov	rdi, rdx
	mov	DWORD PTR $T1[rsp], ebx
	call	?_Winerror_map@std@@YAPEBDH@Z		; std::_Winerror_map
; File c:\program files (x86)\microsoft visual studio 12.0\vc\include\xstring

; 2284 : 		this->_Myres = this->_BUF_SIZE - 1;

	mov	QWORD PTR [rdi+24], 15
; File c:\program files (x86)\microsoft visual studio 12.0\vc\include\system_error

; 609  : 		return (string(_Name != 0 ? _Name : "unknown error"));

	test	rax, rax
; File c:\program files (x86)\microsoft visual studio 12.0\vc\include\xstring

; 2237 : 		_Traits::assign(this->_Myptr()[this->_Mysize = _Newsize], _Elem());

	mov	QWORD PTR [rdi+16], rbx
; File c:\program files (x86)\microsoft visual studio 12.0\vc\include\system_error

; 609  : 		return (string(_Name != 0 ? _Name : "unknown error"));

	lea	rdx, OFFSET FLAT:??_C@_0O@BFJCFAAK@unknown?5error?$AA@
	cmovne	rdx, rax
; File c:\program files (x86)\microsoft visual studio 12.0\vc\include\iosfwd

; 564  : 		_Left = _Right;

	mov	BYTE PTR [rdi], bl

; 523  : 			: _CSTD strlen(_First));

	cmp	BYTE PTR [rdx], bl
	je	SHORT $LN48@message
	or	rbx, -1
	npad	1
$LL49@message:
	inc	rbx
	cmp	BYTE PTR [rdx+rbx], 0
	jne	SHORT $LL49@message
$LN48@message:
; File c:\program files (x86)\microsoft visual studio 12.0\vc\include\xstring

; 1169 : 		return (assign(_Ptr, _Traits::length(_Ptr)));

	mov	r8, rbx
	mov	rcx, rdi
	call	?assign@?$basic_string@DU?$char_traits@D@std@@V?$allocator@D@2@@std@@QEAAAEAV12@PEBD_K@Z ; std::basic_string<char,std::char_traits<char>,std::allocator<char> >::assign
; File c:\program files (x86)\microsoft visual studio 12.0\vc\include\system_error

; 610  : 		}

	mov	rbx, QWORD PTR [rsp+64]
	mov	rax, rdi
	add	rsp, 48					; 00000030H
	pop	rdi
	ret	0
?message@_System_error_category@std@@UEBA?AV?$basic_string@DU?$char_traits@D@std@@V?$allocator@D@2@@2@H@Z ENDP ; std::_System_error_category::message
_TEXT	ENDS
; Function compile flags: /Ogtpy
; File c:\program files (x86)\microsoft visual studio 12.0\vc\include\system_error
;	COMDAT ?default_error_condition@_System_error_category@std@@UEBA?AVerror_condition@2@H@Z
_TEXT	SEGMENT
this$ = 48
__$ReturnUdt$ = 56
_Errval$ = 64
?default_error_condition@_System_error_category@std@@UEBA?AVerror_condition@2@H@Z PROC ; std::_System_error_category::default_error_condition, COMDAT

; 614  : 		{	// make error_condition for error code (generic if possible)

$LN15:
	mov	QWORD PTR [rsp+8], rbx
	push	rdi
	sub	rsp, 32					; 00000020H

; 615  : 		if (_Syserror_map(_Errval))

	mov	ecx, r8d
	mov	edi, r8d
	mov	rbx, rdx
	call	?_Syserror_map@std@@YAPEBDH@Z		; std::_Syserror_map

; 299  : 		{	// construct from error code and category

	mov	DWORD PTR [rbx], edi

; 615  : 		if (_Syserror_map(_Errval))

	test	rax, rax

; 299  : 		{	// construct from error code and category

	lea	rax, OFFSET FLAT:?_Generic_object@?$_Error_objects@H@std@@2V_Generic_error_category@2@A ; std::_Error_objects<int>::_Generic_object

; 615  : 		if (_Syserror_map(_Errval))

	jne	SHORT $LN13@default_er

; 299  : 		{	// construct from error code and category

	lea	rax, OFFSET FLAT:?_System_object@?$_Error_objects@H@std@@2V_System_error_category@2@A ; std::_Error_objects<int>::_System_object
$LN13@default_er:
	mov	QWORD PTR [rbx+8], rax

; 616  : 			return (error_condition(_Errval, generic_category()));
; 617  : 		else
; 618  : 			return (error_condition(_Errval, system_category()));

	mov	rax, rbx

; 619  : 		}

	mov	rbx, QWORD PTR [rsp+48]
	add	rsp, 32					; 00000020H
	pop	rdi
	ret	0
?default_error_condition@_System_error_category@std@@UEBA?AVerror_condition@2@H@Z ENDP ; std::_System_error_category::default_error_condition
_TEXT	ENDS
; Function compile flags: /Ogtpy
; File c:\program files (x86)\microsoft visual studio 12.0\vc\include\system_error
;	COMDAT ??_G_System_error_category@std@@UEAAPEAXI@Z
_TEXT	SEGMENT
this$ = 48
__flags$ = 56
??_G_System_error_category@std@@UEAAPEAXI@Z PROC	; std::_System_error_category::`scalar deleting destructor', COMDAT
$LN12:
	push	rbx
	sub	rsp, 32					; 00000020H

; 159  : 		{	// destroy the object

	lea	rax, OFFSET FLAT:??_7error_category@std@@6B@
	mov	rbx, rcx
	mov	QWORD PTR [rcx], rax
	test	dl, 1
	je	SHORT $LN10@scalar
	call	??3@YAXPEAX@Z				; operator delete
$LN10@scalar:
	mov	rax, rbx
	add	rsp, 32					; 00000020H
	pop	rbx
	ret	0
??_G_System_error_category@std@@UEAAPEAXI@Z ENDP	; std::_System_error_category::`scalar deleting destructor'
_TEXT	ENDS
; Function compile flags: /Ogtpy
; File c:\program files (x86)\microsoft visual studio 12.0\vc\include\system_error
;	COMDAT ??1_System_error_category@std@@UEAA@XZ
_TEXT	SEGMENT
this$ = 8
??1_System_error_category@std@@UEAA@XZ PROC		; std::_System_error_category::~_System_error_category, COMDAT

; 159  : 		{	// destroy the object

	lea	rax, OFFSET FLAT:??_7error_category@std@@6B@
	mov	QWORD PTR [rcx], rax
	ret	0
??1_System_error_category@std@@UEAA@XZ ENDP		; std::_System_error_category::~_System_error_category
_TEXT	ENDS
; Function compile flags: /Ogtpy
; File c:\program files (x86)\microsoft visual studio 12.0\vc\include\system_error
;	COMDAT ?generic_category@std@@YAAEBVerror_category@1@XZ
_TEXT	SEGMENT
?generic_category@std@@YAAEBVerror_category@1@XZ PROC	; std::generic_category, COMDAT

; 643  : 	return (_Error_objects<int>::_Generic_object);

	lea	rax, OFFSET FLAT:?_Generic_object@?$_Error_objects@H@std@@2V_Generic_error_category@2@A ; std::_Error_objects<int>::_Generic_object

; 644  : 	}

	ret	0
?generic_category@std@@YAAEBVerror_category@1@XZ ENDP	; std::generic_category
_TEXT	ENDS
; Function compile flags: /Ogtpy
; File c:\program files (x86)\microsoft visual studio 12.0\vc\include\system_error
;	COMDAT ?system_category@std@@YAAEBVerror_category@1@XZ
_TEXT	SEGMENT
?system_category@std@@YAAEBVerror_category@1@XZ PROC	; std::system_category, COMDAT

; 653  : 	return (_Error_objects<int>::_System_object);

	lea	rax, OFFSET FLAT:?_System_object@?$_Error_objects@H@std@@2V_System_error_category@2@A ; std::_Error_objects<int>::_System_object

; 654  : 	}

	ret	0
?system_category@std@@YAAEBVerror_category@1@XZ ENDP	; std::system_category
_TEXT	ENDS
; Function compile flags: /Ogtpy
; File c:\program files (x86)\microsoft visual studio 12.0\vc\include\tuple
;	COMDAT ??0_Ignore@std@@QEAA@XZ
_TEXT	SEGMENT
this$ = 8
??0_Ignore@std@@QEAA@XZ PROC				; std::_Ignore::_Ignore, COMDAT

; 50   : 		{	// construct
; 51   : 		}

	mov	rax, rcx
	ret	0
??0_Ignore@std@@QEAA@XZ ENDP				; std::_Ignore::_Ignore
_TEXT	ENDS
; Function compile flags: /Ogtpy
; File c:\program files (x86)\microsoft visual studio 12.0\vc\include\boost\system\error_code.hpp
;	COMDAT ??__Eposix_category@system@boost@@YAXXZ
text$di	SEGMENT
??__Eposix_category@system@boost@@YAXXZ PROC		; boost::system::`dynamic initializer for 'posix_category'', COMDAT

; 221  :     static const error_category &  posix_category = generic_category();

	sub	rsp, 40					; 00000028H
	call	?generic_category@system@boost@@YAAEBVerror_category@12@XZ ; boost::system::generic_category
	mov	QWORD PTR posix_category, rax
	add	rsp, 40					; 00000028H
	ret	0
??__Eposix_category@system@boost@@YAXXZ ENDP		; boost::system::`dynamic initializer for 'posix_category''
text$di	ENDS
; Function compile flags: /Ogtpy
; File c:\program files (x86)\microsoft visual studio 12.0\vc\include\boost\system\error_code.hpp
;	COMDAT ??__Eerrno_ecat@system@boost@@YAXXZ
text$di	SEGMENT
??__Eerrno_ecat@system@boost@@YAXXZ PROC		; boost::system::`dynamic initializer for 'errno_ecat'', COMDAT

; 222  :     static const error_category &  errno_ecat     = generic_category();

	sub	rsp, 40					; 00000028H
	call	?generic_category@system@boost@@YAAEBVerror_category@12@XZ ; boost::system::generic_category
	mov	QWORD PTR errno_ecat, rax
	add	rsp, 40					; 00000028H
	ret	0
??__Eerrno_ecat@system@boost@@YAXXZ ENDP		; boost::system::`dynamic initializer for 'errno_ecat''
text$di	ENDS
; Function compile flags: /Ogtpy
; File c:\program files (x86)\microsoft visual studio 12.0\vc\include\boost\system\error_code.hpp
;	COMDAT ??__Enative_ecat@system@boost@@YAXXZ
text$di	SEGMENT
??__Enative_ecat@system@boost@@YAXXZ PROC		; boost::system::`dynamic initializer for 'native_ecat'', COMDAT

; 223  :     static const error_category &  native_ecat    = system_category();

	sub	rsp, 40					; 00000028H
	call	?system_category@system@boost@@YAAEBVerror_category@12@XZ ; boost::system::system_category
	mov	QWORD PTR native_ecat, rax
	add	rsp, 40					; 00000028H
	ret	0
??__Enative_ecat@system@boost@@YAXXZ ENDP		; boost::system::`dynamic initializer for 'native_ecat''
text$di	ENDS
; Function compile flags: /Ogtpy
; File z:\github\merikens-tripcode-engine\sourcefiles\cpu10.h
;	COMDAT ?DES_RewriteCrypt25@@YAXPEAUDES_Context@@@Z
_TEXT	SEGMENT
rewriteTable$ = 32
__$ArrayPad$ = 368
context$ = 400
?DES_RewriteCrypt25@@YAXPEAUDES_Context@@@Z PROC	; DES_RewriteCrypt25, COMDAT

; 210  : {

	mov	QWORD PTR [rsp+16], rbx
	push	rdi
	sub	rsp, 384				; 00000180H
	mov	rax, QWORD PTR __security_cookie
	xor	rax, rsp
	mov	QWORD PTR __$ArrayPad$[rsp], rax

; 211  : 	// Rewrite the assembly function.
; 212  : #define SKIP 0x100
; 213  : 	int32_t rewriteTable[] = {
; 214  : 		0,    1,    2,    3,    4,    5,
; 215  : 		6,    7,    8,    9,    10,   11,
; 216  : 		SKIP, SKIP, SKIP, SKIP, SKIP, SKIP,
; 217  : 		SKIP, SKIP, SKIP, SKIP, SKIP,
; 218  : 		24,   25,   26,   27,   28,   29,
; 219  : 		30,   31,   32,   33,   34,   35,
; 220  : 		SKIP, SKIP, SKIP, SKIP, SKIP, 
; 221  : 		SKIP, SKIP, SKIP, SKIP, SKIP, SKIP,
; 222  : 
; 223  : 		48,   49,   50,   51,   52,   53,
; 224  : 		54,   55,   56,   57,   58,   59,
; 225  : 		SKIP, SKIP, SKIP, SKIP, SKIP, SKIP,   
; 226  : 		SKIP, SKIP, SKIP, SKIP, SKIP, SKIP,
; 227  : 		72,   73,   74,   75,   76,   77,
; 228  : 		78,   79,   80,   81,   82,   83,
; 229  : 		-1
; 230  : 	};

	xor	ebx, ebx
	mov	rdi, rcx
	lea	rdx, QWORD PTR rewriteTable$[rsp]
	mov	eax, ebx
	npad	5
$LL29@DES_Rewrit:
	mov	DWORD PTR [rdx], eax
	inc	eax
	lea	rdx, QWORD PTR [rdx+4]
	cmp	eax, 12
	jl	SHORT $LL29@DES_Rewrit
	movdqa	xmm0, XMMWORD PTR __xmm@00000100000001000000010000000100
	mov	edx, 12
	mov	DWORD PTR rewriteTable$[rsp+80], 256	; 00000100H
	movdqa	xmm1, xmm0
	mov	DWORD PTR rewriteTable$[rsp+84], 256	; 00000100H
	mov	DWORD PTR rewriteTable$[rsp+88], 256	; 00000100H
	movdqa	XMMWORD PTR rewriteTable$[rsp+64], xmm1
	movdqa	XMMWORD PTR rewriteTable$[rsp+48], xmm0
	mov	eax, 24
	lea	rcx, QWORD PTR rewriteTable$[rsp+92]
	mov	r8d, edx
	npad	1
$LL31@DES_Rewrit:
	mov	DWORD PTR [rcx], eax
	inc	eax
	lea	rcx, QWORD PTR [rcx+4]
	dec	r8
	jne	SHORT $LL31@DES_Rewrit
	movdqa	xmm0, XMMWORD PTR __xmm@00000100000001000000010000000100
	mov	DWORD PTR rewriteTable$[rsp+140], 256	; 00000100H
	mov	DWORD PTR rewriteTable$[rsp+176], 256	; 00000100H
	movdqa	xmm1, xmm0
	mov	DWORD PTR rewriteTable$[rsp+180], 256	; 00000100H
	mov	eax, 48					; 00000030H
	movdqa	XMMWORD PTR rewriteTable$[rsp+160], xmm1
	movdqa	XMMWORD PTR rewriteTable$[rsp+144], xmm0
	lea	rcx, QWORD PTR rewriteTable$[rsp+184]
	mov	r8, rdx
	npad	4
$LL33@DES_Rewrit:
	mov	DWORD PTR [rcx], eax
	inc	eax
	lea	rcx, QWORD PTR [rcx+4]
	dec	r8
	jne	SHORT $LL33@DES_Rewrit
	mov	rax, 1099511628032			; 0000010000000100H
	lea	rcx, QWORD PTR rewriteTable$[rsp+280]
	mov	QWORD PTR rewriteTable$[rsp+232], rax
	mov	QWORD PTR rewriteTable$[rsp+240], rax
	mov	QWORD PTR rewriteTable$[rsp+248], rax
	mov	QWORD PTR rewriteTable$[rsp+256], rax
	mov	QWORD PTR rewriteTable$[rsp+264], rax
	mov	QWORD PTR rewriteTable$[rsp+272], rax
	mov	eax, 72					; 00000048H
	npad	12
$LL37@DES_Rewrit:
	mov	DWORD PTR [rcx], eax
	inc	eax
	lea	rcx, QWORD PTR [rcx+4]
	dec	rdx
	jne	SHORT $LL37@DES_Rewrit

; 231  : 	unsigned char *p = (unsigned char *)(context->crypt25);
; 232  : 	unsigned char instructionBytes[3];
; 233  : 
; 234  : 	// Rewrite "movdqa/vmovdqa/movaps xmm*, [rbx + 0xffffffff]" based on context->ExpansionFunction[].
; 235  : 	for (int32_t i = 0; rewriteTable[i] >= 0; ++i) {

	mov	r11d, DWORD PTR rewriteTable$[rsp]
	mov	r10, QWORD PTR [rdi+14512]
	mov	DWORD PTR rewriteTable$[rsp+328], -1
	test	r11d, r11d
	js	$LN80@DES_Rewrit
	npad	3
$LL20@DES_Rewrit:

; 236  : 		if (context->useAVX) {

	cmp	DWORD PTR [rdi+14520], 0
	je	SHORT $LN17@DES_Rewrit
	npad	7
$LL16@DES_Rewrit:

; 237  : 			// vmovdqa xmm*, [rbx + 0xffffffff]
; 238  : 			for (; 
; 239  : 					*(p + 0) != 0xc5
; 240  : 				 || *(p + 1) != 0xf9
; 241  : 				 || *(p + 2) != 0x6f
; 242  : 				 || (   *(p + 3) != 0x83
; 243  : 					 && *(p + 3) != 0x8b
; 244  : 					 && *(p + 3) != 0x93
; 245  : 					 && *(p + 3) != 0x9b
; 246  : 					 && *(p + 3) != 0xa3
; 247  : 					 && *(p + 3) != 0xab);
; 248  : 				 ++p)

	cmp	BYTE PTR [r10], 197			; 000000c5H
	jne	SHORT $LN15@DES_Rewrit
	cmp	BYTE PTR [r10+1], 249			; 000000f9H
	jne	SHORT $LN15@DES_Rewrit
	cmp	BYTE PTR [r10+2], 111			; 0000006fH
	jne	SHORT $LN15@DES_Rewrit
	movzx	eax, BYTE PTR [r10+3]
	add	al, 125					; 0000007dH
	cmp	al, 40					; 00000028H
	ja	SHORT $LN15@DES_Rewrit
	test	al, 7
	je	SHORT $LN8@DES_Rewrit
$LN15@DES_Rewrit:
	inc	r10
	jmp	SHORT $LL16@DES_Rewrit
$LN17@DES_Rewrit:

; 249  : 				;
; 250  : 			p+= 4;
; 251  : 		} else if (IsCPUBasedOnNehalemMicroarchitecture()) {

	call	?IsCPUBasedOnNehalemMicroarchitecture@@YAHXZ ; IsCPUBasedOnNehalemMicroarchitecture
	test	eax, eax
	je	SHORT $LL78@DES_Rewrit
$LL10@DES_Rewrit:

; 252  : 			// movdqa xmm*, [rbx + 0xffffffff]
; 253  : 			for (; 
; 254  : 					*(p + 0) != 0x66
; 255  : 				 || *(p + 1) != 0x0f
; 256  : 				 || *(p + 2) != 0x6f
; 257  : 				 || (   *(p + 3) != 0x83
; 258  : 					 && *(p + 3) != 0x8b
; 259  : 					 && *(p + 3) != 0x93
; 260  : 					 && *(p + 3) != 0x9b
; 261  : 					 && *(p + 3) != 0xa3
; 262  : 					 && *(p + 3) != 0xab);
; 263  : 				 ++p)

	cmp	BYTE PTR [r10], 102			; 00000066H
	jne	SHORT $LN9@DES_Rewrit
	cmp	BYTE PTR [r10+1], 15
	jne	SHORT $LN9@DES_Rewrit
	cmp	BYTE PTR [r10+2], 111			; 0000006fH
	jne	SHORT $LN9@DES_Rewrit
	movzx	eax, BYTE PTR [r10+3]
	add	al, 125					; 0000007dH
	cmp	al, 40					; 00000028H
	ja	SHORT $LN9@DES_Rewrit
	test	al, 7
	je	SHORT $LN8@DES_Rewrit
$LN9@DES_Rewrit:
	inc	r10
	jmp	SHORT $LL10@DES_Rewrit
$LN8@DES_Rewrit:

; 264  : 				;
; 265  : 			p+= 4;

	add	r10, 4
	jmp	SHORT $LN6@DES_Rewrit
	npad	1
$LL78@DES_Rewrit:

; 266  : 		} else {
; 267  : 			// movaps xmm*, [rbx + 0xffffffff]
; 268  : 			for (; 
; 269  : 					*(p + 0) != 0x0f
; 270  : 				 || *(p + 1) != 0x28
; 271  : 				 || (   *(p + 2) != 0x83
; 272  : 					 && *(p + 2) != 0x8b
; 273  : 					 && *(p + 2) != 0x93
; 274  : 					 && *(p + 2) != 0x9b
; 275  : 					 && *(p + 2) != 0xa3
; 276  : 					 && *(p + 2) != 0xab);
; 277  : 				 ++p)

	cmp	BYTE PTR [r10], 15
	jne	SHORT $LN4@DES_Rewrit
	cmp	BYTE PTR [r10+1], 40			; 00000028H
	jne	SHORT $LN4@DES_Rewrit
	movzx	eax, BYTE PTR [r10+2]
	add	al, 125					; 0000007dH
	cmp	al, 40					; 00000028H
	ja	SHORT $LN4@DES_Rewrit
	test	al, 7
	je	SHORT $LN3@DES_Rewrit
$LN4@DES_Rewrit:
	inc	r10
	jmp	SHORT $LL78@DES_Rewrit
$LN3@DES_Rewrit:

; 278  : 				;
; 279  : 			p += 3;

	add	r10, 3
$LN6@DES_Rewrit:

; 280  : 		}
; 281  : 		// printf("offset = %d\n", (unsigned char *)p - (unsigned char *)(context->crypt25));
; 282  : 		if (rewriteTable[i] != SKIP)

	cmp	r11d, 256				; 00000100H
	je	SHORT $LN1@DES_Rewrit

; 283  : 			*(__int32 *)p = context->expansionFunction[rewriteTable[i]] * 8;

	movsxd	rax, r11d
	movzx	ecx, BYTE PTR [rax+rdi]
	shl	ecx, 3
	mov	DWORD PTR [r10], ecx
$LN1@DES_Rewrit:

; 231  : 	unsigned char *p = (unsigned char *)(context->crypt25);
; 232  : 	unsigned char instructionBytes[3];
; 233  : 
; 234  : 	// Rewrite "movdqa/vmovdqa/movaps xmm*, [rbx + 0xffffffff]" based on context->ExpansionFunction[].
; 235  : 	for (int32_t i = 0; rewriteTable[i] >= 0; ++i) {

	mov	r11d, DWORD PTR rewriteTable$[rsp+rbx*4+4]
	inc	rbx

; 284  : 		p += 4;

	add	r10, 4
	test	r11d, r11d
	jns	$LL20@DES_Rewrit
$LN80@DES_Rewrit:

; 285  : 	}
; 286  : }

	mov	rcx, QWORD PTR __$ArrayPad$[rsp]
	xor	rcx, rsp
	call	__security_check_cookie
	mov	rbx, QWORD PTR [rsp+408]
	add	rsp, 384				; 00000180H
	pop	rdi
	ret	0
?DES_RewriteCrypt25@@YAXPEAUDES_Context@@@Z ENDP	; DES_RewriteCrypt25
_TEXT	ENDS
; Function compile flags: /Ogtpy
; File z:\github\merikens-tripcode-engine\sourcefiles\cpu10.h
;	COMDAT ?DES_RewriteCrypt25_x64_AVX2@@YAXPEAUDES_Context@@@Z
_TEXT	SEGMENT
rewriteTable$ = 0
__$ArrayPad$ = 112
context$ = 144
?DES_RewriteCrypt25_x64_AVX2@@YAXPEAUDES_Context@@@Z PROC ; DES_RewriteCrypt25_x64_AVX2, COMDAT

; 288  : {

	sub	rsp, 136				; 00000088H
	mov	rax, QWORD PTR __security_cookie
	xor	rax, rsp
	mov	QWORD PTR __$ArrayPad$[rsp], rax
	mov	r9, rcx

; 289  : 	// Rewrite the assembly function.
; 290  : #define SKIP 0x100
; 291  : 	int32_t rewriteTable[] = {
; 292  : 		0,    1,    2,    3,    4,    5,
; 293  : 		6,    7,    8,    9,    10,   11,
; 294  : 		24,   25,   26,   27,   28,   29,
; 295  : 		30,   31,   32,   33,   34,   35,
; 296  : 		-1
; 297  : 	};

	xor	eax, eax
	lea	rdx, QWORD PTR rewriteTable$[rsp]
	npad	1
$LL28@DES_Rewrit:
	mov	DWORD PTR [rdx], eax
	inc	eax
	lea	rdx, QWORD PTR [rdx+4]
	cmp	eax, 12
	jl	SHORT $LL28@DES_Rewrit
	mov	eax, 24
	lea	rcx, QWORD PTR rewriteTable$[rsp+48]
	mov	edx, 12
	npad	4
$LL30@DES_Rewrit:
	mov	DWORD PTR [rcx], eax
	add	rcx, 4
	inc	eax
	dec	rdx
	jne	SHORT $LL30@DES_Rewrit

; 298  : 	unsigned char *p = (unsigned char *)(context->crypt25);

	mov	rax, QWORD PTR [r9+14512]
	mov	DWORD PTR rewriteTable$[rsp+96], -1

; 299  : 	unsigned char instructionBytes[3];
; 300  : 
; 301  : 	// Rewrite "vpxor xmm*/ymm*, [rbx + 0xffffffff]" based on context->ExpansionFunction[].
; 302  : 	for (int32_t i = 0; rewriteTable[i] >= 0; ++i) {

	cmp	DWORD PTR rewriteTable$[rsp], edx
	jl	$LN41@DES_Rewrit
	lea	r8, QWORD PTR rewriteTable$[rsp]
	npad	7
$LL22@DES_Rewrit:

; 303  : 		/*
; 304  : 			c5 f9 ef 83 ff ff ff ff 
; 305  : 			c5 f1 ef 8b ff ff ff ff 
; 306  : 			c5 e9 ef 93 ff ff ff ff 
; 307  : 			c5 e1 ef 9b ff ff ff ff 
; 308  : 			c5 d9 ef a3 ff ff ff ff 
; 309  : 			c5 d1 ef ab ff ff ff ff 
; 310  : 
; 311  : 			c5 c9 ef b3 ff ff ff ff 
; 312  : 			c5 c1 ef bb ff ff ff ff 
; 313  : 			c5 39 ef 83 ff ff ff ff 
; 314  : 			c5 31 ef 8b ff ff ff ff 
; 315  : 			c5 29 ef 93 ff ff ff ff xmm10
; 316  : 			c5 21 ef 9b ff ff ff ff 
; 317  : 			c5 19 ef a3 ff ff ff ff 
; 318  : 			c5 11 ef ab ff ff ff ff 
; 319  : 			c5 09 ef b3 ff ff ff ff 
; 320  : 			c5 01 ef bb ff ff ff ff
; 321  : 		*/
; 322  : 		/*
; 323  : 			c5 fd ef 83 ff ff ff ff 
; 324  : 			c5 f5 ef 8b ff ff ff ff 
; 325  : 			c5 ed ef 93 ff ff ff ff 
; 326  : 			c5 e5 ef 9b ff ff ff ff 
; 327  : 			c5 dd ef a3 ff ff ff ff 
; 328  : 			c5 d5 ef ab ff ff ff ff 
; 329  : 
; 330  : 			c5 cd ef b3 ff ff ff ff 
; 331  : 			c5 c5 ef bb ff ff ff ff 
; 332  : 			c5 3d ef 83 ff ff ff ff 
; 333  : 			c5 35 ef 8b ff ff ff ff 
; 334  : 			c5 2d ef 93 ff ff ff ff ymm10
; 335  : 			c5 25 ef 9b ff ff ff ff 
; 336  : 			c5 1d ef a3 ff ff ff ff 
; 337  : 			c5 15 ef ab ff ff ff ff 
; 338  : 			c5 0d ef b3 ff ff ff ff 
; 339  : 			c5 05 ef bb ff ff ff ff 
; 340  : 		*/
; 341  : 		for (; 
; 342  : 				   *(p + 0) != 0xc5
; 343  : 				|| *(p + 2) != 0xef
; 344  : 				|| !(   (*(p + 1) == 0xf9 && *(p + 3) == 0x83)
; 345  : 					 || (*(p + 1) == 0xf1 && *(p + 3) == 0x8b)
; 346  : 					 || (*(p + 1) == 0xe9 && *(p + 3) == 0x93)
; 347  : 					 || (*(p + 1) == 0xe1 && *(p + 3) == 0x9b)
; 348  : 					 || (*(p + 1) == 0xd9 && *(p + 3) == 0xa3)
; 349  : 					 || (*(p + 1) == 0xd1 && *(p + 3) == 0xab)
; 350  : 					 || (*(p + 1) == 0x29 && *(p + 3) == 0x93)
; 351  : 					 
; 352  : 					 || (*(p + 1) == 0xfd && *(p + 3) == 0x83)
; 353  : 					 || (*(p + 1) == 0xf5 && *(p + 3) == 0x8b)
; 354  : 					 || (*(p + 1) == 0xed && *(p + 3) == 0x93)
; 355  : 					 || (*(p + 1) == 0xe5 && *(p + 3) == 0x9b)
; 356  : 					 || (*(p + 1) == 0xdd && *(p + 3) == 0xa3)
; 357  : 					 || (*(p + 1) == 0xd5 && *(p + 3) == 0xab)
; 358  : 					 || (*(p + 1) == 0x2d && *(p + 3) == 0x93));
; 359  : 				++p)

	cmp	BYTE PTR [rax], 197			; 000000c5H
	jne	$LN18@DES_Rewrit
	cmp	BYTE PTR [rax+2], 239			; 000000efH
	jne	$LN18@DES_Rewrit
	movzx	ecx, BYTE PTR [rax+1]
	cmp	cl, 249					; 000000f9H
	jne	SHORT $LN15@DES_Rewrit
	cmp	BYTE PTR [rax+3], 131			; 00000083H
	je	$LN17@DES_Rewrit
$LN15@DES_Rewrit:
	cmp	cl, 241					; 000000f1H
	jne	SHORT $LN14@DES_Rewrit
	cmp	BYTE PTR [rax+3], 139			; 0000008bH
	je	$LN17@DES_Rewrit
$LN14@DES_Rewrit:
	cmp	cl, 233					; 000000e9H
	jne	SHORT $LN13@DES_Rewrit
	cmp	BYTE PTR [rax+3], 147			; 00000093H
	je	SHORT $LN17@DES_Rewrit
$LN13@DES_Rewrit:
	cmp	cl, 225					; 000000e1H
	jne	SHORT $LN12@DES_Rewrit
	cmp	BYTE PTR [rax+3], 155			; 0000009bH
	je	SHORT $LN17@DES_Rewrit
$LN12@DES_Rewrit:
	cmp	cl, 217					; 000000d9H
	jne	SHORT $LN11@DES_Rewrit
	cmp	BYTE PTR [rax+3], 163			; 000000a3H
	je	SHORT $LN17@DES_Rewrit
$LN11@DES_Rewrit:
	cmp	cl, 209					; 000000d1H
	jne	SHORT $LN10@DES_Rewrit
	cmp	BYTE PTR [rax+3], 171			; 000000abH
	je	SHORT $LN17@DES_Rewrit
$LN10@DES_Rewrit:
	cmp	cl, 41					; 00000029H
	jne	SHORT $LN9@DES_Rewrit
	cmp	BYTE PTR [rax+3], 147			; 00000093H
	je	SHORT $LN17@DES_Rewrit
$LN9@DES_Rewrit:
	cmp	cl, 253					; 000000fdH
	jne	SHORT $LN8@DES_Rewrit
	cmp	BYTE PTR [rax+3], 131			; 00000083H
	je	SHORT $LN17@DES_Rewrit
$LN8@DES_Rewrit:
	cmp	cl, 245					; 000000f5H
	jne	SHORT $LN7@DES_Rewrit
	cmp	BYTE PTR [rax+3], 139			; 0000008bH
	je	SHORT $LN17@DES_Rewrit
$LN7@DES_Rewrit:
	cmp	cl, 237					; 000000edH
	jne	SHORT $LN6@DES_Rewrit
	cmp	BYTE PTR [rax+3], 147			; 00000093H
	je	SHORT $LN17@DES_Rewrit
$LN6@DES_Rewrit:
	cmp	cl, 229					; 000000e5H
	jne	SHORT $LN5@DES_Rewrit
	cmp	BYTE PTR [rax+3], 155			; 0000009bH
	je	SHORT $LN17@DES_Rewrit
$LN5@DES_Rewrit:
	cmp	cl, 221					; 000000ddH
	jne	SHORT $LN4@DES_Rewrit
	cmp	BYTE PTR [rax+3], 163			; 000000a3H
	je	SHORT $LN17@DES_Rewrit
$LN4@DES_Rewrit:
	cmp	cl, 213					; 000000d5H
	jne	SHORT $LN3@DES_Rewrit
	cmp	BYTE PTR [rax+3], 171			; 000000abH
	je	SHORT $LN17@DES_Rewrit
$LN3@DES_Rewrit:
	cmp	cl, 45					; 0000002dH
	jne	SHORT $LN18@DES_Rewrit
	cmp	BYTE PTR [rax+3], 147			; 00000093H
	jne	SHORT $LN18@DES_Rewrit
$LN17@DES_Rewrit:
	movsxd	rcx, DWORD PTR [r8]

; 360  : 			;
; 361  : 		p+= 4;
; 362  : 
; 363  : 		if (rewriteTable[i] != SKIP)

	cmp	ecx, 256				; 00000100H
	je	SHORT $LN1@DES_Rewrit

; 364  : 			*(__int32 *)p = context->expansionFunction[rewriteTable[i]] * (VECTOR_SIZE / 2);

	movzx	edx, BYTE PTR [rcx+r9]
	shl	edx, 3
	mov	DWORD PTR [rax+4], edx
$LN1@DES_Rewrit:

; 365  : 		p += 4;

	add	r8, 4
	add	rax, 8
	cmp	DWORD PTR [r8], 0
	jge	$LL22@DES_Rewrit
$LN41@DES_Rewrit:

; 366  : 	}
; 367  : }

	mov	rcx, QWORD PTR __$ArrayPad$[rsp]
	xor	rcx, rsp
	call	__security_check_cookie
	add	rsp, 136				; 00000088H
	ret	0
$LN18@DES_Rewrit:

; 303  : 		/*
; 304  : 			c5 f9 ef 83 ff ff ff ff 
; 305  : 			c5 f1 ef 8b ff ff ff ff 
; 306  : 			c5 e9 ef 93 ff ff ff ff 
; 307  : 			c5 e1 ef 9b ff ff ff ff 
; 308  : 			c5 d9 ef a3 ff ff ff ff 
; 309  : 			c5 d1 ef ab ff ff ff ff 
; 310  : 
; 311  : 			c5 c9 ef b3 ff ff ff ff 
; 312  : 			c5 c1 ef bb ff ff ff ff 
; 313  : 			c5 39 ef 83 ff ff ff ff 
; 314  : 			c5 31 ef 8b ff ff ff ff 
; 315  : 			c5 29 ef 93 ff ff ff ff xmm10
; 316  : 			c5 21 ef 9b ff ff ff ff 
; 317  : 			c5 19 ef a3 ff ff ff ff 
; 318  : 			c5 11 ef ab ff ff ff ff 
; 319  : 			c5 09 ef b3 ff ff ff ff 
; 320  : 			c5 01 ef bb ff ff ff ff
; 321  : 		*/
; 322  : 		/*
; 323  : 			c5 fd ef 83 ff ff ff ff 
; 324  : 			c5 f5 ef 8b ff ff ff ff 
; 325  : 			c5 ed ef 93 ff ff ff ff 
; 326  : 			c5 e5 ef 9b ff ff ff ff 
; 327  : 			c5 dd ef a3 ff ff ff ff 
; 328  : 			c5 d5 ef ab ff ff ff ff 
; 329  : 
; 330  : 			c5 cd ef b3 ff ff ff ff 
; 331  : 			c5 c5 ef bb ff ff ff ff 
; 332  : 			c5 3d ef 83 ff ff ff ff 
; 333  : 			c5 35 ef 8b ff ff ff ff 
; 334  : 			c5 2d ef 93 ff ff ff ff ymm10
; 335  : 			c5 25 ef 9b ff ff ff ff 
; 336  : 			c5 1d ef a3 ff ff ff ff 
; 337  : 			c5 15 ef ab ff ff ff ff 
; 338  : 			c5 0d ef b3 ff ff ff ff 
; 339  : 			c5 05 ef bb ff ff ff ff 
; 340  : 		*/
; 341  : 		for (; 
; 342  : 				   *(p + 0) != 0xc5
; 343  : 				|| *(p + 2) != 0xef
; 344  : 				|| !(   (*(p + 1) == 0xf9 && *(p + 3) == 0x83)
; 345  : 					 || (*(p + 1) == 0xf1 && *(p + 3) == 0x8b)
; 346  : 					 || (*(p + 1) == 0xe9 && *(p + 3) == 0x93)
; 347  : 					 || (*(p + 1) == 0xe1 && *(p + 3) == 0x9b)
; 348  : 					 || (*(p + 1) == 0xd9 && *(p + 3) == 0xa3)
; 349  : 					 || (*(p + 1) == 0xd1 && *(p + 3) == 0xab)
; 350  : 					 || (*(p + 1) == 0x29 && *(p + 3) == 0x93)
; 351  : 					 
; 352  : 					 || (*(p + 1) == 0xfd && *(p + 3) == 0x83)
; 353  : 					 || (*(p + 1) == 0xf5 && *(p + 3) == 0x8b)
; 354  : 					 || (*(p + 1) == 0xed && *(p + 3) == 0x93)
; 355  : 					 || (*(p + 1) == 0xe5 && *(p + 3) == 0x9b)
; 356  : 					 || (*(p + 1) == 0xdd && *(p + 3) == 0xa3)
; 357  : 					 || (*(p + 1) == 0xd5 && *(p + 3) == 0xab)
; 358  : 					 || (*(p + 1) == 0x2d && *(p + 3) == 0x93));
; 359  : 				++p)

	inc	rax
	jmp	$LL22@DES_Rewrit
?DES_RewriteCrypt25_x64_AVX2@@YAXPEAUDES_Context@@@Z ENDP ; DES_RewriteCrypt25_x64_AVX2
_TEXT	ENDS
; Function compile flags: /Ogtpy
; File z:\github\merikens-tripcode-engine\sourcefiles\cpu10.h
;	COMDAT ?DES_SetSalt@@YAXPEAUDES_Context@@H@Z
_TEXT	SEGMENT
context$ = 48
salt$ = 56
?DES_SetSalt@@YAXPEAUDES_Context@@H@Z PROC		; DES_SetSalt, COMDAT

; 370  : {

	mov	QWORD PTR [rsp+8], rbx
	mov	QWORD PTR [rsp+16], rbp
	mov	QWORD PTR [rsp+24], rsi
	push	rdi
	sub	rsp, 32					; 00000020H

; 371  : 	int32_t mask;
; 372  : 	int32_t src, dst;
; 373  : 
; 374  : 	mask = 1;
; 375  : 	for (dst = 0; dst < 48; dst++) {

	mov	r10, -24
	mov	esi, 1
	mov	rbx, rcx
	xor	r9d, r9d
	sub	r10, rcx
	mov	edi, edx
	mov	r11, rcx
	mov	r8d, esi
	mov	rax, rcx
	neg	rbx
	lea	rbp, OFFSET FLAT:?expansionTable@@3QBEB	; expansionTable
	npad	2
$LL10@DES_SetSal:

; 376  : 		if (dst == 24) mask = 1;

	cmp	r9d, 24
	cmove	r8d, esi

; 377  : 
; 378  : 		if (salt & mask) {

	test	r8d, edi
	je	SHORT $LN6@DES_SetSal

; 379  : 			if (dst < 24) src = dst + 24; else src = dst - 24;

	cmp	r9d, 24
	jge	SHORT $LN5@DES_SetSal
	lea	rcx, QWORD PTR [r10+48]
	add	rcx, rax
	jmp	SHORT $LN3@DES_SetSal
$LN5@DES_SetSal:
	lea	rcx, QWORD PTR [r10+rax]
	jmp	SHORT $LN3@DES_SetSal
$LN6@DES_SetSal:

; 380  : 		} else src = dst;

	lea	rcx, QWORD PTR [rbx+rax]
$LN3@DES_SetSal:

; 381  : 
; 382  : 		context->expansionFunction[dst     ] = expansionTable[src];

	movzx	edx, BYTE PTR [rcx+rbp]
	inc	r9d
	inc	rax

; 383  : 		context->expansionFunction[dst + 48] = expansionTable[src] + 32;
; 384  : 
; 385  : #ifdef USE_ASSEMBLY_FUNCTION
; 386  : 		// Multiply the values for the assembly version of DES_Crypt25().
; 387  : 		context->expansionFunction[dst     ] *= 2;

	movzx	ecx, dl

; 388  : 		context->expansionFunction[dst + 48] *= 2;

	add	dl, 32					; 00000020H

; 389  : #endif
; 390  : 
; 391  : 		mask <<= 1;

	add	r8d, r8d
	add	dl, dl
	add	cl, cl
	mov	BYTE PTR [rax+47], dl
	mov	BYTE PTR [rax-1], cl
	cmp	r9d, 48					; 00000030H
	jl	SHORT $LL10@DES_SetSal

; 392  : 	}
; 393  : 
; 394  : #ifdef USE_ASSEMBLY_FUNCTION
; 395  : 	if (context->useAVX2) {

	cmp	DWORD PTR [r11+14524], 0

; 396  : 		DES_RewriteCrypt25_x64_AVX2(context);

	mov	rcx, r11
	je	SHORT $LN2@DES_SetSal
	call	?DES_RewriteCrypt25_x64_AVX2@@YAXPEAUDES_Context@@@Z ; DES_RewriteCrypt25_x64_AVX2

; 397  : 	} else {

	jmp	SHORT $LN1@DES_SetSal
$LN2@DES_SetSal:

; 398  : 		DES_RewriteCrypt25(context);

	call	?DES_RewriteCrypt25@@YAXPEAUDES_Context@@@Z ; DES_RewriteCrypt25
$LN1@DES_SetSal:

; 399  : 	}
; 400  : #endif
; 401  : 
; 402  : }

	mov	rbx, QWORD PTR [rsp+48]
	mov	rbp, QWORD PTR [rsp+56]
	mov	rsi, QWORD PTR [rsp+64]
	add	rsp, 32					; 00000020H
	pop	rdi
	ret	0
?DES_SetSalt@@YAXPEAUDES_Context@@H@Z ENDP		; DES_SetSalt
_TEXT	ENDS
; Function compile flags: /Ogtpy
; File z:\github\merikens-tripcode-engine\sourcefiles\cpu10.h
;	COMDAT ?DES_Crypt@@YAXPEAUDES_Context@@@Z
_TEXT	SEGMENT
context$ = 8
?DES_Crypt@@YAXPEAUDES_Context@@@Z PROC			; DES_Crypt, COMDAT

; 450  : 	if (!context->useAVX2) {

	xor	r9d, r9d
	mov	rdx, rcx
	cmp	DWORD PTR [rcx+14524], r9d
	jne	$LN22@DES_Crypt

; 451  : 		for (int32_t i = 0; i < 0x300; ++i)

	mov	r8d, r9d
	add	rcx, 112				; 00000070H
	lea	r10, OFFSET FLAT:keySchedule+1
$LL9@DES_Crypt:

; 452  : 			context->expandedKeySchedule[i] = context->keys[keySchedule[i]];

	movzx	eax, BYTE PTR [r8+r10-1]
	add	r8, 6
	lea	rcx, QWORD PTR [rcx+96]
	add	rax, 851				; 00000353H
	add	rax, rax
	movdqa	xmm0, XMMWORD PTR [rdx+rax*8]
	movzx	eax, BYTE PTR [r8+r10-6]
	add	rax, 851				; 00000353H
	movdqa	XMMWORD PTR [rcx-112], xmm0
	add	rax, rax
	movdqa	xmm0, XMMWORD PTR [rdx+rax*8]
	movzx	eax, BYTE PTR [r8+r10-5]
	add	rax, 851				; 00000353H
	movdqa	XMMWORD PTR [rcx-96], xmm0
	add	rax, rax
	movdqa	xmm0, XMMWORD PTR [rdx+rax*8]
	movzx	eax, BYTE PTR [r8+r10-4]
	add	rax, 851				; 00000353H
	movdqa	XMMWORD PTR [rcx-80], xmm0
	add	rax, rax
	movdqa	xmm0, XMMWORD PTR [rdx+rax*8]
	movzx	eax, BYTE PTR [r8+r10-3]
	add	rax, 851				; 00000353H
	movdqa	XMMWORD PTR [rcx-64], xmm0
	add	rax, rax
	movdqa	xmm0, XMMWORD PTR [rdx+rax*8]
	movzx	eax, BYTE PTR [r8+r10-2]
	add	rax, 851				; 00000353H
	movdqa	XMMWORD PTR [rcx-48], xmm0
	add	rax, rax
	movdqa	xmm0, XMMWORD PTR [rdx+rax*8]
	movdqa	XMMWORD PTR [rcx-32], xmm0
	cmp	r8, 768					; 00000300H
	jl	$LL9@DES_Crypt
$LN22@DES_Crypt:

; 453  : 	}
; 454  : 
; 455  : 	for (int32_t i = 0; i < NUM_DATA_BLOCKS; ++i) {

	lea	rax, QWORD PTR [rdx+12384]

; 456  : 		for (int32_t j = 0; j < NUM_ELEMENTS_IN_VECTOR; ++j)
; 457  : 			context->dataBlocks[i].VECTOR_ELEMENTS[j] = 0;

	mov	ecx, 16
	npad	8
$LL26@DES_Crypt:
	mov	QWORD PTR [rax], r9
	mov	QWORD PTR [rax+8], r9
	mov	QWORD PTR [rax+16], r9
	lea	rax, QWORD PTR [rax+64]
	mov	QWORD PTR [rax-40], r9
	mov	QWORD PTR [rax-32], r9
	mov	QWORD PTR [rax-24], r9
	mov	QWORD PTR [rax-16], r9
	mov	QWORD PTR [rax-8], r9
	dec	rcx
	jne	SHORT $LL26@DES_Crypt

; 458  : 	}
; 459  : 
; 460  : #ifdef USE_ASSEMBLY_FUNCTION
; 461  :  	(*(context->crypt25))(context);

	mov	rcx, rdx
	rex_jmp	QWORD PTR [rdx+14512]
?DES_Crypt@@YAXPEAUDES_Context@@@Z ENDP			; DES_Crypt
_TEXT	ENDS
; Function compile flags: /Ogtpy
; File z:\github\merikens-tripcode-engine\sourcefiles\cpu10.h
;	COMDAT ?DES_GetTripcodeChunks@@YAXPEAUDES_Context@@HPEAIH@Z
_TEXT	SEGMENT
context$ = 8
tripcodeIndex$ = 16
tripcodeChunkArray$ = 24
searchMode$dead$ = 32
?DES_GetTripcodeChunks@@YAXPEAUDES_Context@@HPEAIH@Z PROC ; DES_GetTripcodeChunks, COMDAT

; 486  : {

	mov	QWORD PTR [rsp+8], rbx
	mov	QWORD PTR [rsp+16], rdi
	mov	eax, DWORD PTR ?searchMode@@3HA		; searchMode
	mov	rbx, rcx

; 487  : 	// Perform the final permutation here.
; 488  : 	if (searchMode == SEARCH_MODE_FORWARD_MATCHING) {
; 489  : 		tripcodeChunkArray[0] =   GET_TRIPCODE_CHAR_INDEX(context->dataBlocks, tripcodeIndex, 63, 31, 38,  6, 46, 14, 4)
; 490  : 								| GET_TRIPCODE_CHAR_INDEX(context->dataBlocks, tripcodeIndex, 54, 22, 62, 30, 37,  5, 3)
; 491  : 								| GET_TRIPCODE_CHAR_INDEX(context->dataBlocks, tripcodeIndex, 45, 13, 53, 21, 61, 29, 2)
; 492  : 								| GET_TRIPCODE_CHAR_INDEX(context->dataBlocks, tripcodeIndex, 36,  4, 44, 12, 52, 20, 1)
; 493  : 								| GET_TRIPCODE_CHAR_INDEX(context->dataBlocks, tripcodeIndex, 60, 28, 35,  3, 43, 11, 0);

	mov	r10d, 1
	mov	ecx, edx
	lea	r11d, QWORD PTR [r10-1]
	mov	rdi, r8
	and	ecx, 31
	shl	r10d, cl
	test	eax, eax
	jne	$LN6@DES_GetTri
	mov	eax, r11d
	mov	ecx, r11d
	movsxd	rdx, edx
	sar	rdx, 5
	test	DWORD PTR [rbx+rdx*4+13392], r10d
	setne	cl
	add	ecx, ecx
	test	DWORD PTR [rbx+rdx*4+12880], r10d
	setne	al
	or	ecx, eax
	mov	eax, r11d
	add	ecx, ecx
	test	DWORD PTR [rbx+rdx*4+12992], r10d
	setne	al
	or	ecx, eax
	mov	eax, r11d
	add	ecx, ecx
	test	DWORD PTR [rbx+rdx*4+12480], r10d
	setne	al
	or	ecx, eax
	mov	eax, r11d
	add	ecx, ecx
	test	DWORD PTR [rbx+rdx*4+13120], r10d
	setne	al
	or	ecx, eax
	mov	eax, r11d
	add	ecx, ecx
	test	DWORD PTR [rbx+rdx*4+12608], r10d
	setne	al
	or	ecx, eax
	mov	eax, r11d
	add	ecx, ecx
	test	DWORD PTR [rbx+rdx*4+13248], r10d
	setne	al
	or	ecx, eax
	mov	eax, r11d
	add	ecx, ecx
	test	DWORD PTR [rbx+rdx*4+12736], r10d
	setne	al
	or	ecx, eax
	mov	eax, r11d
	add	ecx, ecx
	test	DWORD PTR [rbx+rdx*4+13376], r10d
	setne	al
	or	ecx, eax
	mov	eax, r11d
	add	ecx, ecx
	test	DWORD PTR [rbx+rdx*4+12864], r10d
	setne	al
	or	ecx, eax
	mov	eax, r11d
	add	ecx, ecx
	test	DWORD PTR [rbx+rdx*4+12976], r10d
	setne	al
	or	ecx, eax
	mov	eax, r11d
	add	ecx, ecx
	test	DWORD PTR [rbx+rdx*4+12464], r10d
	setne	al
	or	ecx, eax
	mov	eax, r11d
	add	ecx, ecx
	test	DWORD PTR [rbx+rdx*4+13104], r10d
	setne	al
	or	ecx, eax
	mov	eax, r11d
	add	ecx, ecx
	test	DWORD PTR [rbx+rdx*4+12592], r10d
	setne	al
	or	ecx, eax
	mov	eax, r11d
	add	ecx, ecx
	test	DWORD PTR [rbx+rdx*4+13232], r10d
	setne	al
	or	ecx, eax
	mov	eax, r11d
	add	ecx, ecx
	test	DWORD PTR [rbx+rdx*4+12720], r10d
	setne	al
	or	ecx, eax
	add	ecx, ecx
	test	DWORD PTR [rbx+rdx*4+13360], r10d
	mov	eax, r11d
	setne	al
	or	ecx, eax
	mov	eax, r11d
	add	ecx, ecx
	test	DWORD PTR [rbx+rdx*4+12848], r10d
	setne	al
	or	ecx, eax
	mov	eax, r11d
	add	ecx, ecx
	test	DWORD PTR [rbx+rdx*4+12960], r10d
	setne	al
	or	ecx, eax
	mov	eax, r11d
	add	ecx, ecx
	test	DWORD PTR [rbx+rdx*4+12448], r10d
	setne	al
	or	ecx, eax
	mov	eax, r11d
	add	ecx, ecx
	test	DWORD PTR [rbx+rdx*4+13088], r10d
	setne	al
	or	ecx, eax
	mov	eax, r11d
	add	ecx, ecx
	test	DWORD PTR [rbx+rdx*4+12576], r10d
	setne	al
	or	ecx, eax
	mov	eax, r11d
	add	ecx, ecx
	test	DWORD PTR [rbx+rdx*4+13216], r10d
	setne	al
	or	ecx, eax
	mov	eax, r11d
	add	ecx, ecx
	test	DWORD PTR [rbx+rdx*4+12704], r10d
	setne	al
	or	ecx, eax
	mov	eax, r11d
	add	ecx, ecx
	test	DWORD PTR [rbx+rdx*4+13344], r10d
	setne	al
	or	ecx, eax
	mov	eax, r11d
	add	ecx, ecx
	test	DWORD PTR [rbx+rdx*4+12832], r10d
	setne	al
	or	ecx, eax
	mov	eax, r11d
	add	ecx, ecx
	test	DWORD PTR [rbx+rdx*4+12944], r10d
	setne	al
	or	ecx, eax
	mov	eax, r11d
	add	ecx, ecx
	test	DWORD PTR [rbx+rdx*4+12432], r10d
	setne	al
	or	ecx, eax
	mov	eax, r11d
	add	ecx, ecx
	test	DWORD PTR [rbx+rdx*4+13072], r10d
	setne	al
	or	ecx, eax
	add	ecx, ecx
	test	DWORD PTR [rbx+rdx*4+12560], r10d
	setne	r11b
	or	ecx, r11d
	mov	DWORD PTR [r8], ecx

; 522  : 	}
; 523  : }

	mov	rbx, QWORD PTR [rsp+8]
	mov	rdi, QWORD PTR [rsp+16]
	ret	0
$LN6@DES_GetTri:

; 494  : 	} else if (searchMode == SEARCH_MODE_BACKWARD_MATCHING) {

	cmp	eax, 1
	jne	$LN4@DES_GetTri

; 495  : 		tripcodeChunkArray[0] =   GET_TRIPCODE_CHAR_INDEX(context->dataBlocks, tripcodeIndex, 51, 19, 59, 27, 34,  2, 4)
; 496  : 		                        | GET_TRIPCODE_CHAR_INDEX(context->dataBlocks, tripcodeIndex, 42, 10, 50, 18, 58, 26, 3)
; 497  : 		                        | GET_TRIPCODE_CHAR_INDEX(context->dataBlocks, tripcodeIndex, 33,  1, 41,  9, 49, 17, 2)
; 498  : 		                        | GET_TRIPCODE_CHAR_INDEX(context->dataBlocks, tripcodeIndex, 57, 25, 32,  0, 40,  8, 1)
; 499  : 		                        | GET_TRIPCODE_CHAR_INDEX_LAST(context->dataBlocks, tripcodeIndex, 48, 16, 56, 24);

	movsxd	rcx, edx
	mov	eax, r11d
	mov	edx, r11d
	sar	rcx, 5
	test	DWORD PTR [rbx+rcx*4+13200], r10d
	setne	dl
	add	edx, edx
	test	DWORD PTR [rbx+rcx*4+12688], r10d
	setne	al
	or	edx, eax
	mov	eax, r11d
	add	edx, edx
	test	DWORD PTR [rbx+rcx*4+13328], r10d
	setne	al
	or	edx, eax
	mov	eax, r11d
	add	edx, edx
	test	DWORD PTR [rbx+rcx*4+12816], r10d
	setne	al
	or	edx, eax
	mov	eax, r11d
	add	edx, edx
	test	DWORD PTR [rbx+rcx*4+12928], r10d
	setne	al
	or	edx, eax
	mov	eax, r11d
	add	edx, edx
	test	DWORD PTR [rbx+rcx*4+12416], r10d
	setne	al
	or	edx, eax
	mov	eax, r11d
	add	edx, edx
	test	DWORD PTR [rbx+rcx*4+13056], r10d
	setne	al
	or	edx, eax
	mov	eax, r11d
	add	edx, edx
	test	DWORD PTR [rbx+rcx*4+12544], r10d
	setne	al
	or	edx, eax
	mov	eax, r11d
	add	edx, edx
	test	DWORD PTR [rbx+rcx*4+13184], r10d
	setne	al
	or	edx, eax
	mov	eax, r11d
	add	edx, edx
	test	DWORD PTR [rbx+rcx*4+12672], r10d
	setne	al
	or	edx, eax
	mov	eax, r11d
	add	edx, edx
	test	DWORD PTR [rbx+rcx*4+13312], r10d
	setne	al
	or	edx, eax
	mov	eax, r11d
	add	edx, edx
	test	DWORD PTR [rbx+rcx*4+12800], r10d
	setne	al
	or	edx, eax
	mov	eax, r11d
	add	edx, edx
	test	DWORD PTR [rbx+rcx*4+12912], r10d
	setne	al
	or	edx, eax
	mov	eax, r11d
	add	edx, edx
	test	DWORD PTR [rbx+rcx*4+12400], r10d
	setne	al
	or	edx, eax
	mov	eax, r11d
	add	edx, edx
	test	DWORD PTR [rbx+rcx*4+13040], r10d
	setne	al
	or	edx, eax
	mov	eax, r11d
	add	edx, edx
	test	DWORD PTR [rbx+rcx*4+12528], r10d
	setne	al
	or	edx, eax
	add	edx, edx
	test	DWORD PTR [rbx+rcx*4+13168], r10d
	mov	eax, r11d
	setne	al
	or	edx, eax
	mov	eax, r11d
	add	edx, edx
	test	DWORD PTR [rbx+rcx*4+12656], r10d
	setne	al
	or	edx, eax
	mov	eax, r11d
	add	edx, edx
	test	DWORD PTR [rbx+rcx*4+13296], r10d
	setne	al
	or	edx, eax
	mov	eax, r11d
	add	edx, edx
	test	DWORD PTR [rbx+rcx*4+12784], r10d
	setne	al
	or	edx, eax
	mov	eax, r11d
	add	edx, edx
	test	DWORD PTR [rbx+rcx*4+12896], r10d
	setne	al
	or	edx, eax
	mov	eax, r11d
	add	edx, edx
	test	DWORD PTR [rbx+rcx*4+12384], r10d
	setne	al
	or	edx, eax
	mov	eax, r11d
	add	edx, edx
	test	DWORD PTR [rbx+rcx*4+13024], r10d
	setne	al
	or	edx, eax
	mov	eax, r11d
	add	edx, edx
	test	DWORD PTR [rbx+rcx*4+12512], r10d
	setne	al
	or	edx, eax
	mov	eax, r11d
	add	edx, edx
	test	DWORD PTR [rbx+rcx*4+13152], r10d
	setne	al
	or	edx, eax
	mov	eax, r11d
	add	edx, edx
	test	DWORD PTR [rbx+rcx*4+12640], r10d
	setne	al
	or	edx, eax
	mov	eax, r11d
	add	edx, edx
	test	DWORD PTR [rbx+rcx*4+13280], r10d
	setne	al
	or	edx, eax
	add	edx, edx
	test	DWORD PTR [rbx+rcx*4+12768], r10d
	setne	r11b
	or	edx, r11d
	shl	edx, 2
	mov	DWORD PTR [r8], edx

; 522  : 	}
; 523  : }

	mov	rbx, QWORD PTR [rsp+8]
	mov	rdi, QWORD PTR [rsp+16]
	ret	0
$LN4@DES_GetTri:

; 500  : 	} else if (searchMode == SEARCH_MODE_FORWARD_AND_BACKWARD_MATCHING) {

	cmp	eax, 2

; 501  : 		tripcodeChunkArray[0] =   GET_TRIPCODE_CHAR_INDEX(context->dataBlocks, tripcodeIndex, 63, 31, 38,  6, 46, 14, 4)
; 502  : 								| GET_TRIPCODE_CHAR_INDEX(context->dataBlocks, tripcodeIndex, 54, 22, 62, 30, 37,  5, 3)
; 503  : 								| GET_TRIPCODE_CHAR_INDEX(context->dataBlocks, tripcodeIndex, 45, 13, 53, 21, 61, 29, 2)
; 504  : 								| GET_TRIPCODE_CHAR_INDEX(context->dataBlocks, tripcodeIndex, 36,  4, 44, 12, 52, 20, 1)
; 505  : 								| GET_TRIPCODE_CHAR_INDEX(context->dataBlocks, tripcodeIndex, 60, 28, 35,  3, 43, 11, 0);

	mov	ecx, r11d
	mov	eax, r11d
	jne	$LN2@DES_GetTri
	movsxd	rdx, edx
	sar	rdx, 5
	test	DWORD PTR [rbx+rdx*4+13392], r10d
	setne	cl
	add	ecx, ecx
	test	DWORD PTR [rbx+rdx*4+12880], r10d
	setne	al
	or	ecx, eax
	mov	eax, r11d
	add	ecx, ecx
	test	DWORD PTR [rbx+rdx*4+12992], r10d
	setne	al
	or	ecx, eax
	mov	eax, r11d
	add	ecx, ecx
	test	DWORD PTR [rbx+rdx*4+12480], r10d
	setne	al
	or	ecx, eax
	mov	eax, r11d
	add	ecx, ecx
	test	DWORD PTR [rbx+rdx*4+13120], r10d
	setne	al
	or	ecx, eax
	mov	eax, r11d
	add	ecx, ecx
	test	DWORD PTR [rbx+rdx*4+12608], r10d
	setne	al
	or	ecx, eax
	mov	eax, r11d
	add	ecx, ecx
	test	DWORD PTR [rbx+rdx*4+13248], r10d
	setne	al
	or	ecx, eax
	mov	eax, r11d
	add	ecx, ecx
	test	DWORD PTR [rbx+rdx*4+12736], r10d
	setne	al
	or	ecx, eax
	mov	eax, r11d
	add	ecx, ecx
	test	DWORD PTR [rbx+rdx*4+13376], r10d
	setne	al
	or	ecx, eax
	mov	eax, r11d
	add	ecx, ecx
	test	DWORD PTR [rbx+rdx*4+12864], r10d
	setne	al
	or	ecx, eax
	mov	eax, r11d
	add	ecx, ecx
	test	DWORD PTR [rbx+rdx*4+12976], r10d
	setne	al
	or	ecx, eax
	mov	eax, r11d
	add	ecx, ecx
	test	DWORD PTR [rbx+rdx*4+12464], r10d
	setne	al
	or	ecx, eax
	mov	eax, r11d
	add	ecx, ecx
	test	DWORD PTR [rbx+rdx*4+13104], r10d
	setne	al
	or	ecx, eax
	mov	eax, r11d
	add	ecx, ecx
	test	DWORD PTR [rbx+rdx*4+12592], r10d
	setne	al
	or	ecx, eax
	mov	eax, r11d
	add	ecx, ecx
	test	DWORD PTR [rbx+rdx*4+13232], r10d
	setne	al
	or	ecx, eax
	mov	eax, r11d
	add	ecx, ecx
	test	DWORD PTR [rbx+rdx*4+12720], r10d
	setne	al
	or	ecx, eax
	mov	eax, r11d
	add	ecx, ecx
	test	DWORD PTR [rbx+rdx*4+13360], r10d
	setne	al
	or	ecx, eax
	mov	eax, r11d
	add	ecx, ecx
	test	DWORD PTR [rbx+rdx*4+12848], r10d
	setne	al
	or	ecx, eax
	mov	eax, r11d
	add	ecx, ecx
	test	DWORD PTR [rbx+rdx*4+12960], r10d
	setne	al
	or	ecx, eax
	mov	eax, r11d
	add	ecx, ecx
	test	DWORD PTR [rbx+rdx*4+12448], r10d
	setne	al
	or	ecx, eax
	mov	eax, r11d
	add	ecx, ecx
	test	DWORD PTR [rbx+rdx*4+13088], r10d
	setne	al
	or	ecx, eax
	mov	eax, r11d
	add	ecx, ecx
	test	DWORD PTR [rbx+rdx*4+12576], r10d
	setne	al
	or	ecx, eax
	mov	eax, r11d
	add	ecx, ecx
	test	DWORD PTR [rbx+rdx*4+13216], r10d
	setne	al
	or	ecx, eax
	mov	eax, r11d
	add	ecx, ecx
	test	DWORD PTR [rbx+rdx*4+12704], r10d
	setne	al
	or	ecx, eax
	mov	eax, r11d
	add	ecx, ecx
	test	DWORD PTR [rbx+rdx*4+13344], r10d
	setne	al
	or	ecx, eax
	mov	eax, r11d
	add	ecx, ecx
	test	DWORD PTR [rbx+rdx*4+12832], r10d
	setne	al
	or	ecx, eax
	mov	eax, r11d
	add	ecx, ecx
	test	DWORD PTR [rbx+rdx*4+12944], r10d
	setne	al
	or	ecx, eax
	mov	eax, r11d
	add	ecx, ecx
	test	DWORD PTR [rbx+rdx*4+12432], r10d
	setne	al
	or	ecx, eax
	mov	eax, r11d
	add	ecx, ecx
	test	DWORD PTR [rbx+rdx*4+13072], r10d
	setne	al
	or	ecx, eax
	mov	eax, r11d
	add	ecx, ecx
	test	DWORD PTR [rbx+rdx*4+12560], r10d
	setne	al
	or	ecx, eax

; 506  : 		tripcodeChunkArray[1] =   GET_TRIPCODE_CHAR_INDEX(context->dataBlocks, tripcodeIndex, 51, 19, 59, 27, 34,  2, 4)
; 507  : 								| GET_TRIPCODE_CHAR_INDEX(context->dataBlocks, tripcodeIndex, 42, 10, 50, 18, 58, 26, 3)
; 508  : 								| GET_TRIPCODE_CHAR_INDEX(context->dataBlocks, tripcodeIndex, 33,  1, 41,  9, 49, 17, 2)
; 509  : 								| GET_TRIPCODE_CHAR_INDEX(context->dataBlocks, tripcodeIndex, 57, 25, 32,  0, 40,  8, 1)
; 510  : 								| GET_TRIPCODE_CHAR_INDEX_LAST(context->dataBlocks, tripcodeIndex, 48, 16, 56, 24);

	test	DWORD PTR [rbx+rdx*4+13200], r10d
	mov	eax, r11d
	mov	DWORD PTR [r8], ecx
	mov	ecx, r11d
	setne	cl
	add	ecx, ecx
	test	DWORD PTR [rbx+rdx*4+12688], r10d
	setne	al
	or	ecx, eax
	mov	eax, r11d
	add	ecx, ecx
	test	DWORD PTR [rbx+rdx*4+13328], r10d
	setne	al
	or	ecx, eax
	add	ecx, ecx
	test	DWORD PTR [rbx+rdx*4+12816], r10d
	mov	eax, r11d
	setne	al
	or	ecx, eax
	mov	eax, r11d
	add	ecx, ecx
	test	DWORD PTR [rbx+rdx*4+12928], r10d
	setne	al
	or	ecx, eax
	mov	eax, r11d
	add	ecx, ecx
	test	DWORD PTR [rbx+rdx*4+12416], r10d
	setne	al
	or	ecx, eax
	mov	eax, r11d
	add	ecx, ecx
	test	DWORD PTR [rbx+rdx*4+13056], r10d
	setne	al
	or	ecx, eax
	mov	eax, r11d
	add	ecx, ecx
	test	DWORD PTR [rbx+rdx*4+12544], r10d
	setne	al
	or	ecx, eax
	mov	eax, r11d
	add	ecx, ecx
	test	DWORD PTR [rbx+rdx*4+13184], r10d
	setne	al
	or	ecx, eax
	mov	eax, r11d
	add	ecx, ecx
	test	DWORD PTR [rbx+rdx*4+12672], r10d
	setne	al
	or	ecx, eax
	mov	eax, r11d
	add	ecx, ecx
	test	DWORD PTR [rbx+rdx*4+13312], r10d
	setne	al
	or	ecx, eax
	mov	eax, r11d
	add	ecx, ecx
	test	DWORD PTR [rbx+rdx*4+12800], r10d
	setne	al
	or	ecx, eax
	mov	eax, r11d
	add	ecx, ecx
	test	DWORD PTR [rbx+rdx*4+12912], r10d
	setne	al
	or	ecx, eax
	mov	eax, r11d
	add	ecx, ecx
	test	DWORD PTR [rbx+rdx*4+12400], r10d
	setne	al
	or	ecx, eax
	mov	eax, r11d
	add	ecx, ecx
	test	DWORD PTR [rbx+rdx*4+13040], r10d
	setne	al
	or	ecx, eax
	mov	eax, r11d
	add	ecx, ecx
	test	DWORD PTR [rbx+rdx*4+12528], r10d
	setne	al
	or	ecx, eax
	mov	eax, r11d
	add	ecx, ecx
	test	DWORD PTR [rbx+rdx*4+13168], r10d
	setne	al
	or	ecx, eax
	mov	eax, r11d
	add	ecx, ecx
	test	DWORD PTR [rbx+rdx*4+12656], r10d
	setne	al
	or	ecx, eax
	mov	eax, r11d
	add	ecx, ecx
	test	DWORD PTR [rbx+rdx*4+13296], r10d
	setne	al
	or	ecx, eax
	add	ecx, ecx
	test	DWORD PTR [rbx+rdx*4+12784], r10d
	mov	eax, r11d
	setne	al
	or	ecx, eax
	mov	eax, r11d
	add	ecx, ecx
	test	DWORD PTR [rbx+rdx*4+12896], r10d
	setne	al
	or	ecx, eax
	mov	eax, r11d
	add	ecx, ecx
	test	DWORD PTR [rbx+rdx*4+12384], r10d
	setne	al
	or	ecx, eax
	mov	eax, r11d
	add	ecx, ecx
	test	DWORD PTR [rbx+rdx*4+13024], r10d
	setne	al
	or	ecx, eax
	mov	eax, r11d
	add	ecx, ecx
	test	DWORD PTR [rbx+rdx*4+12512], r10d
	setne	al
	or	ecx, eax
	mov	eax, r11d
	add	ecx, ecx
	test	DWORD PTR [rbx+rdx*4+13152], r10d
	setne	al
	or	ecx, eax
	mov	eax, r11d
	add	ecx, ecx
	test	DWORD PTR [rbx+rdx*4+12640], r10d
	setne	al
	or	ecx, eax
	mov	eax, r11d
	add	ecx, ecx
	test	DWORD PTR [rbx+rdx*4+13280], r10d
	setne	al
	or	ecx, eax
	add	ecx, ecx
	test	DWORD PTR [rbx+rdx*4+12768], r10d
	setne	r11b
	or	ecx, r11d
	shl	ecx, 2
	mov	DWORD PTR [r8+4], ecx

; 522  : 	}
; 523  : }

	mov	rbx, QWORD PTR [rsp+8]
	mov	rdi, QWORD PTR [rsp+16]
	ret	0
$LN2@DES_GetTri:

; 511  : 	} else {
; 512  : 		tripcodeChunkArray[0] =   GET_TRIPCODE_CHAR_INDEX(context->dataBlocks, tripcodeIndex, 63, 31, 38,  6, 46, 14, 4)
; 513  : 								| GET_TRIPCODE_CHAR_INDEX(context->dataBlocks, tripcodeIndex, 54, 22, 62, 30, 37,  5, 3)
; 514  : 								| GET_TRIPCODE_CHAR_INDEX(context->dataBlocks, tripcodeIndex, 45, 13, 53, 21, 61, 29, 2)
; 515  : 								| GET_TRIPCODE_CHAR_INDEX(context->dataBlocks, tripcodeIndex, 36,  4, 44, 12, 52, 20, 1)
; 516  : 								| GET_TRIPCODE_CHAR_INDEX(context->dataBlocks, tripcodeIndex, 60, 28, 35,  3, 43, 11, 0);

	movsxd	r9, edx
	sar	r9, 5
	test	DWORD PTR [rbx+r9*4+13392], r10d
	setne	cl
	add	ecx, ecx
	test	DWORD PTR [rbx+r9*4+12880], r10d
	setne	al
	or	ecx, eax
	mov	eax, r11d
	add	ecx, ecx
	test	DWORD PTR [rbx+r9*4+12992], r10d
	setne	al
	or	ecx, eax
	mov	eax, r11d
	add	ecx, ecx
	test	DWORD PTR [rbx+r9*4+12480], r10d
	setne	al
	or	ecx, eax
	mov	eax, r11d
	add	ecx, ecx
	test	DWORD PTR [rbx+r9*4+13120], r10d
	setne	al
	or	ecx, eax
	mov	eax, r11d
	add	ecx, ecx
	test	DWORD PTR [rbx+r9*4+12608], r10d
	setne	al
	or	ecx, eax
	mov	eax, r11d
	add	ecx, ecx
	test	DWORD PTR [rbx+r9*4+13248], r10d
	setne	al
	or	ecx, eax
	mov	eax, r11d
	add	ecx, ecx
	test	DWORD PTR [rbx+r9*4+12736], r10d
	setne	al
	or	ecx, eax
	mov	eax, r11d
	add	ecx, ecx
	test	DWORD PTR [rbx+r9*4+13376], r10d
	setne	al
	or	ecx, eax
	mov	eax, r11d
	add	ecx, ecx
	test	DWORD PTR [rbx+r9*4+12864], r10d
	setne	al
	or	ecx, eax
	mov	eax, r11d
	add	ecx, ecx
	test	DWORD PTR [rbx+r9*4+12976], r10d
	setne	al
	or	ecx, eax
	mov	eax, r11d
	add	ecx, ecx
	test	DWORD PTR [rbx+r9*4+12464], r10d
	setne	al
	or	ecx, eax
	mov	eax, r11d
	add	ecx, ecx
	test	DWORD PTR [rbx+r9*4+13104], r10d
	setne	al
	or	ecx, eax
	mov	eax, r11d
	add	ecx, ecx
	test	DWORD PTR [rbx+r9*4+12592], r10d
	setne	al
	or	ecx, eax
	mov	eax, r11d
	add	ecx, ecx
	test	DWORD PTR [rbx+r9*4+13232], r10d
	setne	al
	or	ecx, eax
	mov	eax, r11d
	add	ecx, ecx
	test	DWORD PTR [rbx+r9*4+12720], r10d
	setne	al
	or	ecx, eax
	mov	eax, r11d
	add	ecx, ecx
	test	DWORD PTR [rbx+r9*4+13360], r10d
	setne	al

; 517  : 		tripcodeChunkArray[1] = ((tripcodeChunkArray[0] << 6) & 0x3fffffff) | GET_TRIPCODE_CHAR_INDEX(context->dataBlocks, tripcodeIndex, 51, 19, 59, 27, 34,  2, 0);

	mov	edx, r11d
	or	ecx, eax
	mov	eax, r11d
	add	ecx, ecx
	test	DWORD PTR [rbx+r9*4+12848], r10d
	setne	al
	or	ecx, eax
	mov	eax, r11d
	add	ecx, ecx
	test	DWORD PTR [rbx+r9*4+12960], r10d
	setne	al
	or	ecx, eax
	mov	eax, r11d
	add	ecx, ecx
	test	DWORD PTR [rbx+r9*4+12448], r10d
	setne	al
	or	ecx, eax
	mov	eax, r11d
	add	ecx, ecx
	test	DWORD PTR [rbx+r9*4+13088], r10d
	setne	al
	or	ecx, eax
	mov	eax, r11d
	add	ecx, ecx
	test	DWORD PTR [rbx+r9*4+12576], r10d
	setne	al
	or	ecx, eax
	mov	eax, r11d
	add	ecx, ecx
	test	DWORD PTR [rbx+r9*4+13216], r10d
	setne	al
	or	ecx, eax
	mov	eax, r11d
	add	ecx, ecx
	test	DWORD PTR [rbx+r9*4+12704], r10d
	setne	al
	or	ecx, eax
	mov	eax, r11d
	add	ecx, ecx
	test	DWORD PTR [rbx+r9*4+13344], r10d
	setne	al
	or	ecx, eax
	mov	eax, r11d
	add	ecx, ecx
	test	DWORD PTR [rbx+r9*4+12832], r10d
	setne	al
	or	ecx, eax
	mov	eax, r11d
	add	ecx, ecx
	test	DWORD PTR [rbx+r9*4+12944], r10d
	setne	al
	or	ecx, eax
	mov	eax, r11d
	add	ecx, ecx
	test	DWORD PTR [rbx+r9*4+12432], r10d
	setne	al
	or	ecx, eax
	mov	eax, r11d
	add	ecx, ecx
	test	DWORD PTR [rbx+r9*4+13072], r10d
	setne	al
	or	ecx, eax
	mov	eax, r11d
	add	ecx, ecx
	test	DWORD PTR [rbx+r9*4+12560], r10d
	setne	al
	or	ecx, eax
	test	DWORD PTR [rbx+r9*4+13200], r10d
	mov	eax, r11d
	setne	dl
	mov	DWORD PTR [r8], ecx
	add	edx, edx
	test	DWORD PTR [rbx+r9*4+12688], r10d
	setne	al
	or	edx, eax
	mov	eax, r11d
	add	edx, edx
	test	DWORD PTR [rbx+r9*4+13328], r10d
	setne	al
	or	edx, eax
	add	edx, edx
	test	DWORD PTR [rbx+r9*4+12816], r10d
	mov	eax, r11d
	setne	al
	or	edx, eax
	mov	eax, r11d
	add	edx, edx
	test	DWORD PTR [rbx+r9*4+12928], r10d
	setne	al
	or	edx, eax
	mov	eax, r11d
	add	edx, edx
	test	DWORD PTR [rbx+r9*4+12416], r10d
	setne	al
	and	ecx, 16777215				; 00ffffffH
	or	edx, eax
	shl	ecx, 6

; 518  : 		tripcodeChunkArray[2] = ((tripcodeChunkArray[1] << 6) & 0x3fffffff) | GET_TRIPCODE_CHAR_INDEX(context->dataBlocks, tripcodeIndex, 42, 10, 50, 18, 58, 26, 0);

	mov	eax, r11d
	or	edx, ecx
	test	DWORD PTR [rbx+r9*4+13056], r10d
	mov	ecx, r11d
	setne	cl
	mov	DWORD PTR [r8+4], edx
	add	ecx, ecx
	test	DWORD PTR [rbx+r9*4+12544], r10d
	setne	al
	or	ecx, eax
	mov	eax, r11d
	add	ecx, ecx
	test	DWORD PTR [rbx+r9*4+13184], r10d
	setne	al
	or	ecx, eax
	mov	eax, r11d
	add	ecx, ecx
	test	DWORD PTR [rbx+r9*4+12672], r10d
	setne	al
	or	ecx, eax
	mov	eax, r11d
	add	ecx, ecx
	test	DWORD PTR [rbx+r9*4+13312], r10d
	setne	al
	or	ecx, eax
	mov	eax, r11d
	add	ecx, ecx
	test	DWORD PTR [rbx+r9*4+12800], r10d
	setne	al
	and	edx, 16777215				; 00ffffffH
	or	ecx, eax
	shl	edx, 6

; 519  : 		tripcodeChunkArray[3] = ((tripcodeChunkArray[2] << 6) & 0x3fffffff) | GET_TRIPCODE_CHAR_INDEX(context->dataBlocks, tripcodeIndex, 33,  1, 41,  9, 49, 17, 0);

	mov	eax, r11d
	or	ecx, edx
	test	DWORD PTR [rbx+r9*4+12912], r10d
	mov	DWORD PTR [r8+8], ecx
	mov	r8d, r11d
	setne	r8b
	add	r8d, r8d
	test	DWORD PTR [rbx+r9*4+12400], r10d
	setne	al
	or	r8d, eax
	mov	eax, r11d
	add	r8d, r8d
	test	DWORD PTR [rbx+r9*4+13040], r10d
	setne	al
	or	r8d, eax
	mov	eax, r11d
	add	r8d, r8d
	test	DWORD PTR [rbx+r9*4+12528], r10d
	setne	al
	or	r8d, eax
	mov	eax, r11d
	add	r8d, r8d
	test	DWORD PTR [rbx+r9*4+13168], r10d
	setne	al
	or	r8d, eax
	mov	eax, r11d
	add	r8d, r8d
	test	DWORD PTR [rbx+r9*4+12656], r10d
	setne	al
	and	ecx, 16777215				; 00ffffffH
	or	r8d, eax
	shl	ecx, 6
	or	r8d, ecx

; 520  : 		tripcodeChunkArray[4] = ((tripcodeChunkArray[3] << 6) & 0x3fffffff) | GET_TRIPCODE_CHAR_INDEX(context->dataBlocks, tripcodeIndex, 57, 25, 32,  0, 40,  8, 0);

	test	DWORD PTR [rbx+r9*4+13296], r10d
	mov	eax, r11d
	mov	edx, r11d
	setne	dl
	mov	DWORD PTR [rdi+12], r8d
	add	edx, edx
	test	DWORD PTR [rbx+r9*4+12784], r10d

; 521  : 		tripcodeChunkArray[5] = ((tripcodeChunkArray[4] << 6) & 0x3fffffff) | GET_TRIPCODE_CHAR_INDEX_LAST(context->dataBlocks, tripcodeIndex, 48, 16, 56, 24);

	mov	ecx, r11d
	setne	al
	or	edx, eax
	mov	eax, r11d
	add	edx, edx
	test	DWORD PTR [rbx+r9*4+12896], r10d
	setne	al
	or	edx, eax
	mov	eax, r11d
	add	edx, edx
	test	DWORD PTR [rbx+r9*4+12384], r10d
	setne	al
	or	edx, eax
	mov	eax, r11d
	add	edx, edx
	test	DWORD PTR [rbx+r9*4+13024], r10d
	setne	al
	or	edx, eax
	mov	eax, r11d
	add	edx, edx
	test	DWORD PTR [rbx+r9*4+12512], r10d
	setne	al
	and	r8d, 16777215				; 00ffffffH
	or	edx, eax
	shl	r8d, 6
	mov	eax, r11d
	or	edx, r8d
	test	DWORD PTR [rbx+r9*4+13152], r10d
	setne	cl
	mov	DWORD PTR [rdi+16], edx
	add	ecx, ecx
	test	DWORD PTR [rbx+r9*4+12640], r10d
	setne	al
	or	ecx, eax
	mov	eax, r11d
	add	ecx, ecx
	test	DWORD PTR [rbx+r9*4+13280], r10d
	setne	al
	or	ecx, eax
	add	ecx, ecx
	test	DWORD PTR [rbx+r9*4+12768], r10d

; 522  : 	}
; 523  : }

	mov	rbx, QWORD PTR [rsp+8]
	setne	r11b
	and	edx, 16777215				; 00ffffffH
	or	ecx, r11d
	shl	edx, 6
	shl	ecx, 2
	or	ecx, edx
	mov	DWORD PTR [rdi+20], ecx
	mov	rdi, QWORD PTR [rsp+16]
	ret	0
?DES_GetTripcodeChunks@@YAXPEAUDES_Context@@HPEAIH@Z ENDP ; DES_GetTripcodeChunks
_TEXT	ENDS
; Function compile flags: /Ogtpy
; File z:\github\merikens-tripcode-engine\sourcefiles\cpu10.h
;	COMDAT ?DES_GetTripcode@@YAPEAEPEAUDES_Context@@HPEAE@Z
_TEXT	SEGMENT
context$ = 8
tripcodeIndex$ = 16
tripcode$ = 24
?DES_GetTripcode@@YAPEAEPEAUDES_Context@@HPEAE@Z PROC	; DES_GetTripcode, COMDAT

; 526  : {

	mov	QWORD PTR [rsp+8], rbx
	mov	r11, rcx

; 527  : 	// Perform the final permutation as necessary.
; 528  :   	tripcode[0] = DES_indexToCharTable[GET_TRIPCODE_CHAR_INDEX(context->dataBlocks, tripcodeIndex, 63, 31, 38,  6, 46, 14, 0)];

	mov	ecx, edx
	movsxd	r9, edx
	and	ecx, 31
	sar	r9, 5
	mov	rbx, r8
	mov	r8d, 0
	mov	r10d, 1
	shl	r10d, cl
	mov	eax, r8d
	mov	edx, r8d
	test	DWORD PTR [r11+r9*4+13392], r10d
	setne	dl
	add	edx, edx
	test	DWORD PTR [r11+r9*4+12880], r10d
	setne	al
	or	edx, eax
	mov	eax, r8d
	add	edx, edx
	test	DWORD PTR [r11+r9*4+12992], r10d
	setne	al
	or	edx, eax
	mov	eax, r8d
	add	edx, edx
	test	DWORD PTR [r11+r9*4+12480], r10d
	setne	al
	or	edx, eax
	mov	eax, r8d
	add	edx, edx
	test	DWORD PTR [r11+r9*4+13120], r10d
	setne	al
	or	edx, eax
	mov	eax, r8d
	add	edx, edx
	test	DWORD PTR [r11+r9*4+12608], r10d
	setne	al
	movsxd	rcx, edx
	lea	rdx, OFFSET FLAT:DES_indexToCharTable
	or	rcx, rax
	movzx	eax, BYTE PTR [rcx+rdx]

; 529  :   	tripcode[1] = DES_indexToCharTable[GET_TRIPCODE_CHAR_INDEX(context->dataBlocks, tripcodeIndex, 54, 22, 62, 30, 37,  5, 0)];

	mov	ecx, r8d
	mov	BYTE PTR [rbx], al
	test	DWORD PTR [r11+r9*4+13248], r10d
	mov	eax, r8d
	setne	cl
	add	ecx, ecx
	test	DWORD PTR [r11+r9*4+12736], r10d
	setne	al
	or	ecx, eax
	mov	eax, r8d
	add	ecx, ecx
	test	DWORD PTR [r11+r9*4+13376], r10d
	setne	al
	or	ecx, eax
	mov	eax, r8d
	add	ecx, ecx
	test	DWORD PTR [r11+r9*4+12864], r10d
	setne	al
	or	ecx, eax
	mov	eax, r8d
	add	ecx, ecx
	test	DWORD PTR [r11+r9*4+12976], r10d
	setne	al
	or	ecx, eax
	mov	eax, r8d
	add	ecx, ecx
	test	DWORD PTR [r11+r9*4+12464], r10d
	setne	al
	movsxd	rcx, ecx
	or	rcx, rax
	movzx	eax, BYTE PTR [rcx+rdx]

; 530  :   	tripcode[2] = DES_indexToCharTable[GET_TRIPCODE_CHAR_INDEX(context->dataBlocks, tripcodeIndex, 45, 13, 53, 21, 61, 29, 0)];

	mov	ecx, r8d
	mov	BYTE PTR [rbx+1], al
	test	DWORD PTR [r11+r9*4+13104], r10d
	mov	eax, r8d
	setne	cl
	add	ecx, ecx
	test	DWORD PTR [r11+r9*4+12592], r10d
	setne	al
	or	ecx, eax
	add	ecx, ecx
	test	DWORD PTR [r11+r9*4+13232], r10d
	mov	eax, r8d
	setne	al
	or	ecx, eax
	mov	eax, r8d
	add	ecx, ecx
	test	DWORD PTR [r11+r9*4+12720], r10d
	setne	al
	or	ecx, eax
	mov	eax, r8d
	add	ecx, ecx
	test	DWORD PTR [r11+r9*4+13360], r10d
	setne	al
	or	ecx, eax
	mov	eax, r8d
	add	ecx, ecx
	test	DWORD PTR [r11+r9*4+12848], r10d
	setne	al
	movsxd	rcx, ecx
	or	rcx, rax
	movzx	eax, BYTE PTR [rcx+rdx]

; 531  :   	tripcode[3] = DES_indexToCharTable[GET_TRIPCODE_CHAR_INDEX(context->dataBlocks, tripcodeIndex, 36,  4, 44, 12, 52, 20, 0)];

	mov	ecx, r8d
	mov	BYTE PTR [rbx+2], al
	test	DWORD PTR [r11+r9*4+12960], r10d
	mov	eax, r8d
	setne	cl
	add	ecx, ecx
	test	DWORD PTR [r11+r9*4+12448], r10d
	setne	al
	or	ecx, eax
	mov	eax, r8d
	add	ecx, ecx
	test	DWORD PTR [r11+r9*4+13088], r10d
	setne	al
	or	ecx, eax
	mov	eax, r8d
	add	ecx, ecx
	test	DWORD PTR [r11+r9*4+12576], r10d
	setne	al
	or	ecx, eax
	mov	eax, r8d
	add	ecx, ecx
	test	DWORD PTR [r11+r9*4+13216], r10d
	setne	al
	or	ecx, eax
	mov	eax, r8d
	add	ecx, ecx
	test	DWORD PTR [r11+r9*4+12704], r10d
	setne	al
	movsxd	rcx, ecx
	or	rcx, rax
	movzx	eax, BYTE PTR [rcx+rdx]

; 532  :   	tripcode[4] = DES_indexToCharTable[GET_TRIPCODE_CHAR_INDEX(context->dataBlocks, tripcodeIndex, 60, 28, 35,  3, 43, 11, 0)];

	mov	ecx, r8d
	mov	BYTE PTR [rbx+3], al
	test	DWORD PTR [r11+r9*4+13344], r10d
	mov	eax, r8d
	setne	cl
	add	ecx, ecx
	test	DWORD PTR [r11+r9*4+12832], r10d
	setne	al
	or	ecx, eax
	mov	eax, r8d
	add	ecx, ecx
	test	DWORD PTR [r11+r9*4+12944], r10d
	setne	al
	or	ecx, eax
	mov	eax, r8d
	add	ecx, ecx
	test	DWORD PTR [r11+r9*4+12432], r10d
	setne	al
	or	ecx, eax
	mov	eax, r8d
	add	ecx, ecx
	test	DWORD PTR [r11+r9*4+13072], r10d
	setne	al
	or	ecx, eax
	mov	eax, r8d
	add	ecx, ecx
	test	DWORD PTR [r11+r9*4+12560], r10d
	setne	al
	movsxd	rcx, ecx
	or	rcx, rax
	movzx	eax, BYTE PTR [rcx+rdx]

; 533  :   	tripcode[5] = DES_indexToCharTable[GET_TRIPCODE_CHAR_INDEX(context->dataBlocks, tripcodeIndex, 51, 19, 59, 27, 34,  2, 0)];

	mov	ecx, r8d
	mov	BYTE PTR [rbx+4], al
	test	DWORD PTR [r11+r9*4+13200], r10d
	mov	eax, r8d
	setne	cl
	add	ecx, ecx
	test	DWORD PTR [r11+r9*4+12688], r10d
	setne	al
	or	ecx, eax
	mov	eax, r8d
	add	ecx, ecx
	test	DWORD PTR [r11+r9*4+13328], r10d
	setne	al
	or	ecx, eax
	mov	eax, r8d
	add	ecx, ecx
	test	DWORD PTR [r11+r9*4+12816], r10d
	setne	al
	or	ecx, eax
	mov	eax, r8d
	add	ecx, ecx
	test	DWORD PTR [r11+r9*4+12928], r10d
	setne	al
	or	ecx, eax
	mov	eax, r8d
	add	ecx, ecx
	test	DWORD PTR [r11+r9*4+12416], r10d
	setne	al
	movsxd	rcx, ecx
	or	rcx, rax
	movzx	eax, BYTE PTR [rcx+rdx]

; 534  :   	tripcode[6] = DES_indexToCharTable[GET_TRIPCODE_CHAR_INDEX(context->dataBlocks, tripcodeIndex, 42, 10, 50, 18, 58, 26, 0)];

	mov	ecx, r8d
	mov	BYTE PTR [rbx+5], al
	test	DWORD PTR [r11+r9*4+13056], r10d
	mov	eax, r8d
	setne	cl
	add	ecx, ecx
	test	DWORD PTR [r11+r9*4+12544], r10d
	setne	al
	or	ecx, eax
	mov	eax, r8d
	add	ecx, ecx
	test	DWORD PTR [r11+r9*4+13184], r10d
	setne	al
	or	ecx, eax
	mov	eax, r8d
	add	ecx, ecx
	test	DWORD PTR [r11+r9*4+12672], r10d
	setne	al
	or	ecx, eax
	mov	eax, r8d
	add	ecx, ecx
	test	DWORD PTR [r11+r9*4+13312], r10d
	setne	al
	or	ecx, eax
	mov	eax, r8d
	add	ecx, ecx
	test	DWORD PTR [r11+r9*4+12800], r10d
	setne	al
	movsxd	rcx, ecx
	or	rcx, rax
	movzx	eax, BYTE PTR [rcx+rdx]

; 535  :   	tripcode[7] = DES_indexToCharTable[GET_TRIPCODE_CHAR_INDEX(context->dataBlocks, tripcodeIndex, 33,  1, 41,  9, 49, 17, 0)];

	mov	ecx, r8d
	mov	BYTE PTR [rbx+6], al
	test	DWORD PTR [r11+r9*4+12912], r10d
	mov	eax, r8d
	setne	cl
	add	ecx, ecx
	test	DWORD PTR [r11+r9*4+12400], r10d
	setne	al
	or	ecx, eax
	mov	eax, r8d
	add	ecx, ecx
	test	DWORD PTR [r11+r9*4+13040], r10d
	setne	al
	or	ecx, eax
	mov	eax, r8d
	add	ecx, ecx
	test	DWORD PTR [r11+r9*4+12528], r10d
	setne	al
	or	ecx, eax
	mov	eax, r8d
	add	ecx, ecx
	test	DWORD PTR [r11+r9*4+13168], r10d
	setne	al
	or	ecx, eax
	mov	eax, r8d
	add	ecx, ecx
	test	DWORD PTR [r11+r9*4+12656], r10d
	setne	al
	movsxd	rcx, ecx
	or	rcx, rax
	movzx	eax, BYTE PTR [rcx+rdx]

; 536  :   	tripcode[8] = DES_indexToCharTable[GET_TRIPCODE_CHAR_INDEX(context->dataBlocks, tripcodeIndex, 57, 25, 32,  0, 40,  8, 0)];

	mov	ecx, r8d
	mov	BYTE PTR [rbx+7], al
	test	DWORD PTR [r11+r9*4+13296], r10d
	mov	eax, r8d
	setne	cl
	add	ecx, ecx
	test	DWORD PTR [r11+r9*4+12784], r10d
	setne	al
	or	ecx, eax
	mov	eax, r8d
	add	ecx, ecx
	test	DWORD PTR [r11+r9*4+12896], r10d
	setne	al
	or	ecx, eax
	mov	eax, r8d
	add	ecx, ecx
	test	DWORD PTR [r11+r9*4+12384], r10d
	setne	al
	or	ecx, eax
	mov	eax, r8d
	add	ecx, ecx
	test	DWORD PTR [r11+r9*4+13024], r10d
	setne	al
	or	ecx, eax
	mov	eax, r8d
	add	ecx, ecx
	test	DWORD PTR [r11+r9*4+12512], r10d
	setne	al
	movsxd	rcx, ecx
	or	rcx, rax
	movzx	eax, BYTE PTR [rcx+rdx]

; 537  : 	tripcode[9] = DES_indexToCharTable[GET_TRIPCODE_CHAR_INDEX_LAST(context->dataBlocks, tripcodeIndex, 48, 16, 56, 24)];

	mov	ecx, r8d
	mov	BYTE PTR [rbx+8], al
	test	DWORD PTR [r11+r9*4+13152], r10d
	mov	eax, r8d
	setne	cl
	add	ecx, ecx
	test	DWORD PTR [r11+r9*4+12640], r10d
	setne	al
	or	ecx, eax
	mov	eax, r8d
	add	ecx, ecx
	test	DWORD PTR [r11+r9*4+13280], r10d
	setne	al
	or	ecx, eax
	test	DWORD PTR [r11+r9*4+12768], r10d

; 538  :  	tripcode[10] = '\0';

	mov	BYTE PTR [rbx+10], 0
	lea	eax, DWORD PTR [rcx+rcx]
	setne	r8b
	or	eax, r8d
	shl	eax, 2
	cdqe
	movzx	eax, BYTE PTR [rax+rdx]
	mov	BYTE PTR [rbx+9], al

; 539  : 
; 540  : 	return tripcode;

	mov	rax, rbx

; 541  : }

	mov	rbx, QWORD PTR [rsp+8]
	ret	0
?DES_GetTripcode@@YAPEAEPEAUDES_Context@@HPEAE@Z ENDP	; DES_GetTripcode
_TEXT	ENDS
; Function compile flags: /Ogtpy
; File z:\github\merikens-tripcode-engine\sourcefiles\cpu10.h
; File z:\github\merikens-tripcode-engine\sourcefiles\main.cpp
; File z:\github\merikens-tripcode-engine\sourcefiles\cpu10.h
; File z:\github\merikens-tripcode-engine\sourcefiles\main.cpp
; File z:\github\merikens-tripcode-engine\sourcefiles\cpu10.h
; File z:\github\merikens-tripcode-engine\sourcefiles\main.cpp
; File z:\github\merikens-tripcode-engine\sourcefiles\cpu10.h
; File z:\github\merikens-tripcode-engine\sourcefiles\main.cpp
; File z:\github\merikens-tripcode-engine\sourcefiles\cpu10.h
;	COMDAT ?SearchForTripcodes@@YAIPEAUDES_Context@@@Z
_TEXT	SEGMENT
randomValue$1 = 32
tv11237 = 40
randomValue$2 = 48
tripcodeIndex$1$ = 52
numGeneratedTripcodes$1$ = 56
randomValue$3 = 60
indexKey4$1$ = 64
indexKey5$1$ = 68
randomValue$4 = 72
tableForKey6$1$ = 80
tableForKey4$1$ = 88
$T5 = 96
tv11220 = 104
tableForKey5$1$ = 112
$T6 = 120
tv11223 = 128
tv11238 = 136
generatedTripcodeChunkArray$ = 144
key$ = 176
tripcode$ = 192
__$ArrayPad$ = 208
context$ = 272
?SearchForTripcodes@@YAIPEAUDES_Context@@@Z PROC	; SearchForTripcodes, COMDAT

; 582  : {

	mov	r11, rsp
	push	rbp
	push	rbx
	push	r13
	lea	rbp, QWORD PTR [r11-95]
	sub	rsp, 240				; 000000f0H
	mov	rax, QWORD PTR __security_cookie
	xor	rax, rsp
	mov	QWORD PTR __$ArrayPad$[rbp-169], rax

; 591  : 	tripcode[lenTripcode] = '\0';

	movsxd	rax, DWORD PTR ?lenTripcode@@3HA	; lenTripcode
	xor	ebx, ebx
	mov	r13, rcx
	cmp	rax, 13
	jae	$LN786@SearchForT
	mov	QWORD PTR [r11+16], rsi
	mov	QWORD PTR [r11+24], rdi
	mov	QWORD PTR [r11+32], r12
	mov	QWORD PTR [r11-32], r14
; File z:\github\merikens-tripcode-engine\sourcefiles\main.cpp

; 229  : 	rand_s(&randomValue);

	lea	rcx, QWORD PTR randomValue$2[rbp-169]
; File z:\github\merikens-tripcode-engine\sourcefiles\cpu10.h

; 591  : 	tripcode[lenTripcode] = '\0';

	mov	BYTE PTR tripcode$[rbp+rax-169], bl
	mov	QWORD PTR [r11-40], r15

; 592  : 	key     [lenTripcode] = '\0';

	mov	BYTE PTR key$[rbp+rax-169], bl
; File z:\github\merikens-tripcode-engine\sourcefiles\main.cpp

; 229  : 	rand_s(&randomValue);

	call	rand_s
	lea	rcx, QWORD PTR randomValue$3[rbp-169]
	call	rand_s
	lea	rcx, QWORD PTR randomValue$4[rbp-169]
	call	rand_s
	lea	rcx, QWORD PTR randomValue$1[rsp]
	call	rand_s
	npad	9
$LL393@SearchForT:
; File z:\github\merikens-tripcode-engine\sourcefiles\cpu10.h

; 600  : 		SetCharactersInTripcodeKey(key, 4);

	lea	rcx, QWORD PTR key$[rbp-169]
	mov	edx, 4
	call	?SetCharactersInTripcodeKey@@YAXPEAEH@Z	; SetCharactersInTripcodeKey

; 601  : 		for (int32_t i = 4; i < lenTripcode; ++i)

	mov	eax, DWORD PTR ?lenTripcode@@3HA	; lenTripcode
	cmp	eax, 4
	jle	SHORT $LN392@SearchForT

; 602  : 			key[i] = 'A';

	add	eax, -4
	lea	rdi, QWORD PTR key$[rbp-165]
	movsxd	rcx, eax
	mov	eax, 65					; 00000041H
	rep stosb
$LN392@SearchForT:

; 603  : 	} while (!IsValidKey(key));

	lea	rcx, QWORD PTR key$[rbp-169]
	call	?IsValidKey@@YAHPEAE@Z			; IsValidKey
	test	eax, eax
	je	SHORT $LL393@SearchForT

; 604  : 
; 605  : 	DES_SetSalt(context,
; 606  : 		            DES_charToIndexTable[CONVERT_CHAR_FOR_SALT(key[1])]
; 607  : 		        | (DES_charToIndexTable[CONVERT_CHAR_FOR_SALT(key[2])] << 6));	

	movzx	eax, BYTE PTR key$[rbp-167]
	lea	rdi, OFFSET FLAT:__ImageBase
	movzx	eax, BYTE PTR ?charTableForSeed@@3PAEA[rax+rdi]
	movsx	edx, BYTE PTR DES_charToIndexTable[rax+rdi]
	movzx	eax, BYTE PTR key$[rbp-168]
	movzx	ecx, BYTE PTR ?charTableForSeed@@3PAEA[rax+rdi]
	shl	edx, 6
	movsx	eax, BYTE PTR DES_charToIndexTable[rcx+rdi]
	mov	rcx, r13
	or	edx, eax
	call	?DES_SetSalt@@YAXPEAUDES_Context@@H@Z	; DES_SetSalt

; 608  : 
; 609  : 	CLEAR_KEYS(0);

	xor	eax, eax
	lea	rdi, QWORD PTR [r13+13616]
	mov	ecx, 28
	rep stosd

; 610  : 	SET_ALL_BITS_FOR_KEY( 0, 0, 0);

	movzx	eax, BYTE PTR key$[rbp-169]
	test	al, 1
	je	SHORT $LN380@SearchForT
	mov	QWORD PTR [r13+13616], -1
	mov	QWORD PTR [r13+13624], -1
$LN380@SearchForT:

; 611  : 	SET_ALL_BITS_FOR_KEY( 1, 0, 1);

	test	al, 2
	je	SHORT $LN376@SearchForT
	mov	QWORD PTR [r13+13632], -1
	mov	QWORD PTR [r13+13640], -1
$LN376@SearchForT:

; 612  : 	SET_ALL_BITS_FOR_KEY( 2, 0, 2);

	test	al, 4
	je	SHORT $LN372@SearchForT
	mov	QWORD PTR [r13+13648], -1
	mov	QWORD PTR [r13+13656], -1
$LN372@SearchForT:

; 613  : 	SET_ALL_BITS_FOR_KEY( 3, 0, 3);

	test	al, 8
	je	SHORT $LN368@SearchForT
	mov	QWORD PTR [r13+13664], -1
	mov	QWORD PTR [r13+13672], -1
$LN368@SearchForT:

; 614  : 	SET_ALL_BITS_FOR_KEY( 4, 0, 4);

	test	al, 16
	je	SHORT $LN364@SearchForT
	mov	QWORD PTR [r13+13680], -1
	mov	QWORD PTR [r13+13688], -1
$LN364@SearchForT:

; 615  : 	SET_ALL_BITS_FOR_KEY( 5, 0, 5);

	test	al, 32					; 00000020H
	je	SHORT $LN360@SearchForT
	mov	QWORD PTR [r13+13696], -1
	mov	QWORD PTR [r13+13704], -1
$LN360@SearchForT:

; 616  : 	SET_ALL_BITS_FOR_KEY( 6, 0, 6);

	test	al, 64					; 00000040H
	je	SHORT $LN356@SearchForT
	mov	QWORD PTR [r13+13712], -1
	mov	QWORD PTR [r13+13720], -1
$LN356@SearchForT:

; 617  : 
; 618  : 	CLEAR_KEYS(1);

	xor	eax, eax
	lea	rdi, QWORD PTR [r13+13728]
	mov	ecx, 28
	rep stosd

; 619  : 	SET_ALL_BITS_FOR_KEY( 7, 1, 0);

	movzx	eax, BYTE PTR key$[rbp-168]
	test	al, 1
	je	SHORT $LN346@SearchForT
	mov	QWORD PTR [r13+13728], -1
	mov	QWORD PTR [r13+13736], -1
$LN346@SearchForT:

; 620  : 	SET_ALL_BITS_FOR_KEY( 8, 1, 1);

	test	al, 2
	je	SHORT $LN342@SearchForT
	mov	QWORD PTR [r13+13744], -1
	mov	QWORD PTR [r13+13752], -1
$LN342@SearchForT:

; 621  : 	SET_ALL_BITS_FOR_KEY( 9, 1, 2);

	test	al, 4
	je	SHORT $LN338@SearchForT
	mov	QWORD PTR [r13+13760], -1
	mov	QWORD PTR [r13+13768], -1
$LN338@SearchForT:

; 622  : 	SET_ALL_BITS_FOR_KEY(10, 1, 3);

	test	al, 8
	je	SHORT $LN334@SearchForT
	mov	QWORD PTR [r13+13776], -1
	mov	QWORD PTR [r13+13784], -1
$LN334@SearchForT:

; 623  : 	SET_ALL_BITS_FOR_KEY(11, 1, 4);

	test	al, 16
	je	SHORT $LN330@SearchForT
	mov	QWORD PTR [r13+13792], -1
	mov	QWORD PTR [r13+13800], -1
$LN330@SearchForT:

; 624  : 	SET_ALL_BITS_FOR_KEY(12, 1, 5);

	test	al, 32					; 00000020H
	je	SHORT $LN326@SearchForT
	mov	QWORD PTR [r13+13808], -1
	mov	QWORD PTR [r13+13816], -1
$LN326@SearchForT:

; 625  : 	SET_ALL_BITS_FOR_KEY(13, 1, 6);

	test	al, 64					; 00000040H
	je	SHORT $LN322@SearchForT
	mov	QWORD PTR [r13+13824], -1
	mov	QWORD PTR [r13+13832], -1
$LN322@SearchForT:

; 626  : 
; 627  : 	CLEAR_KEYS(2);

	xor	eax, eax
	lea	rdi, QWORD PTR [r13+13840]
	mov	ecx, 28
	rep stosd

; 628  : 	SET_ALL_BITS_FOR_KEY(14, 2, 0);

	movzx	eax, BYTE PTR key$[rbp-167]
	test	al, 1
	je	SHORT $LN312@SearchForT
	mov	QWORD PTR [r13+13840], -1
	mov	QWORD PTR [r13+13848], -1
$LN312@SearchForT:

; 629  : 	SET_ALL_BITS_FOR_KEY(15, 2, 1);

	test	al, 2
	je	SHORT $LN308@SearchForT
	mov	QWORD PTR [r13+13856], -1
	mov	QWORD PTR [r13+13864], -1
$LN308@SearchForT:

; 630  : 	SET_ALL_BITS_FOR_KEY(16, 2, 2);

	test	al, 4
	je	SHORT $LN304@SearchForT
	mov	QWORD PTR [r13+13872], -1
	mov	QWORD PTR [r13+13880], -1
$LN304@SearchForT:

; 631  : 	SET_ALL_BITS_FOR_KEY(17, 2, 3);

	test	al, 8
	je	SHORT $LN300@SearchForT
	mov	QWORD PTR [r13+13888], -1
	mov	QWORD PTR [r13+13896], -1
$LN300@SearchForT:

; 632  : 	SET_ALL_BITS_FOR_KEY(18, 2, 4);

	test	al, 16
	je	SHORT $LN296@SearchForT
	mov	QWORD PTR [r13+13904], -1
	mov	QWORD PTR [r13+13912], -1
$LN296@SearchForT:

; 633  : 	SET_ALL_BITS_FOR_KEY(19, 2, 5);

	test	al, 32					; 00000020H
	je	SHORT $LN292@SearchForT
	mov	QWORD PTR [r13+13920], -1
	mov	QWORD PTR [r13+13928], -1
$LN292@SearchForT:

; 634  : 	SET_ALL_BITS_FOR_KEY(20, 2, 6);

	test	al, 64					; 00000040H
	je	SHORT $LN288@SearchForT
	mov	QWORD PTR [r13+13936], -1
	mov	QWORD PTR [r13+13944], -1
$LN288@SearchForT:

; 635  : 
; 636  : 	CLEAR_KEYS(3);

	xor	eax, eax
	lea	rdi, QWORD PTR [r13+13952]
	mov	ecx, 28
	rep stosd

; 637  : 	SET_ALL_BITS_FOR_KEY(21, 3, 0);

	movzx	eax, BYTE PTR key$[rbp-166]
	test	al, 1
	je	SHORT $LN278@SearchForT
	mov	QWORD PTR [r13+13952], -1
	mov	QWORD PTR [r13+13960], -1
$LN278@SearchForT:

; 638  : 	SET_ALL_BITS_FOR_KEY(22, 3, 1);

	test	al, 2
	je	SHORT $LN274@SearchForT
	mov	QWORD PTR [r13+13968], -1
	mov	QWORD PTR [r13+13976], -1
$LN274@SearchForT:

; 639  : 	SET_ALL_BITS_FOR_KEY(23, 3, 2);

	test	al, 4
	je	SHORT $LN270@SearchForT
	mov	QWORD PTR [r13+13984], -1
	mov	QWORD PTR [r13+13992], -1
$LN270@SearchForT:

; 640  : 	SET_ALL_BITS_FOR_KEY(24, 3, 3);

	test	al, 8
	je	SHORT $LN266@SearchForT
	mov	QWORD PTR [r13+14000], -1
	mov	QWORD PTR [r13+14008], -1
$LN266@SearchForT:

; 641  : 	SET_ALL_BITS_FOR_KEY(25, 3, 4);

	test	al, 16
	je	SHORT $LN262@SearchForT
	mov	QWORD PTR [r13+14016], -1
	mov	QWORD PTR [r13+14024], -1
$LN262@SearchForT:

; 642  : 	SET_ALL_BITS_FOR_KEY(26, 3, 5);

	test	al, 32					; 00000020H
	je	SHORT $LN258@SearchForT
	mov	QWORD PTR [r13+14032], -1
	mov	QWORD PTR [r13+14040], -1
$LN258@SearchForT:

; 643  : 	SET_ALL_BITS_FOR_KEY(27, 3, 6);

	test	al, 64					; 00000040H
	je	SHORT $LN254@SearchForT
	mov	QWORD PTR [r13+14048], -1
	mov	QWORD PTR [r13+14056], -1
$LN254@SearchForT:

; 644  : 
; 645  : 	BOOL isSecondByte = FALSE;

	xor	eax, eax

; 646  : 	for (int32_t i = 0; i < 4; ++i) {

	mov	edi, 2147483535				; 7fffff8fH
	xor	edx, edx
$LL251@SearchForT:

; 647  : 		if (!isSecondByte) {

	test	eax, eax
	jne	SHORT $LN248@SearchForT

; 648  : 			isSecondByte = IS_FIRST_BYTE_SJIS_FULL(key[i]);

	movzx	ecx, BYTE PTR key$[rbp+rdx-169]
	lea	eax, DWORD PTR [rcx+127]
	cmp	al, 30
	ja	SHORT $LN753@SearchForT
	bt	edi, eax
	jb	SHORT $LN402@SearchForT
$LN753@SearchForT:
	add	cl, 32					; 00000020H
	cmp	cl, 10
	ja	SHORT $LN248@SearchForT
$LN402@SearchForT:
	mov	eax, 1
	jmp	SHORT $LN250@SearchForT
$LN248@SearchForT:

; 649  : 		} else {
; 650  : 			isSecondByte = FALSE;

	xor	eax, eax
$LN250@SearchForT:

; 646  : 	for (int32_t i = 0; i < 4; ++i) {

	inc	rdx
	cmp	rdx, 4
	jl	SHORT $LL251@SearchForT

; 651  : 		}
; 652  : 	}
; 653  : 	BOOL isKey4SecondByte = isSecondByte;
; 654  : 	tableForKey4 = (isKey4SecondByte) ? context->keyCharTable_SecondByte : context->keyCharTable_FirstByte;	

	lea	rdx, QWORD PTR [r13+15040]
	test	eax, eax
	jne	SHORT $LN774@SearchForT
	lea	rdx, QWORD PTR [r13+14528]
$LN774@SearchForT:
	movzx	r11d, BYTE PTR randomValue$3[rbp-169]
	movzx	r15d, BYTE PTR randomValue$2[rbp-169]

; 666  : 
; 667  : 		BOOL isKey5SecondByte = !isKey4SecondByte && IS_FIRST_BYTE_SJIS_FULL(key[4]);

	mov	r14d, DWORD PTR randomValue$1[rsp]
	xor	ecx, ecx
	cdqe
	mov	QWORD PTR tv11220[rbp-169], r11
	mov	QWORD PTR tableForKey4$1$[rbp-169], rdx
	mov	DWORD PTR indexKey4$1$[rbp-169], ebx
	lea	r9, QWORD PTR [r13+14064]
	mov	QWORD PTR $T5[rbp-169], rcx
	mov	QWORD PTR tv11223[rbp-169], rax
	lea	r8, QWORD PTR [r13+14176]
	lea	rsi, QWORD PTR [r13+14288]
	lea	r12, QWORD PTR [r13+14400]
	lea	r10, QWORD PTR [r13+14304]
	npad	2
$LL246@SearchForT:

; 657  : 		key[4] = tableForKey4[indexKey4];
; 658  : 		CLEAR_KEYS(4);

	movzx	edx, BYTE PTR [rdx+rcx]
	xor	eax, eax
	mov	rdi, r9
	mov	ecx, 28
	mov	BYTE PTR key$[rbp-165], dl
	rep stosd

; 659  : 		SET_ALL_BITS_FOR_KEY(28, 4, 0);

	test	dl, 1
	je	SHORT $LN236@SearchForT
	mov	QWORD PTR [r9], -1
	mov	QWORD PTR [r9+8], -1
$LN236@SearchForT:

; 660  : 		SET_ALL_BITS_FOR_KEY(29, 4, 1);

	test	dl, 2
	je	SHORT $LN232@SearchForT
	mov	QWORD PTR [r13+14080], -1
	mov	QWORD PTR [r13+14088], -1
$LN232@SearchForT:

; 661  : 		SET_ALL_BITS_FOR_KEY(30, 4, 2);

	test	dl, 4
	je	SHORT $LN228@SearchForT
	mov	QWORD PTR [r13+14096], -1
	mov	QWORD PTR [r13+14104], -1
$LN228@SearchForT:

; 662  : 		SET_ALL_BITS_FOR_KEY(31, 4, 3);

	test	dl, 8
	je	SHORT $LN224@SearchForT
	mov	QWORD PTR [r13+14112], -1
	mov	QWORD PTR [r13+14120], -1
$LN224@SearchForT:

; 663  : 		SET_ALL_BITS_FOR_KEY(32, 4, 4);

	test	dl, 16
	je	SHORT $LN220@SearchForT
	mov	QWORD PTR [r13+14128], -1
	mov	QWORD PTR [r13+14136], -1
$LN220@SearchForT:

; 664  : 		SET_ALL_BITS_FOR_KEY(33, 4, 5);

	test	dl, 32					; 00000020H
	je	SHORT $LN216@SearchForT
	mov	QWORD PTR [r13+14144], -1
	mov	QWORD PTR [r13+14152], -1
$LN216@SearchForT:

; 665  : 		SET_ALL_BITS_FOR_KEY(34, 4, 6);

	test	dl, 64					; 00000040H
	je	SHORT $LN212@SearchForT
	mov	QWORD PTR [r13+14160], -1
	mov	QWORD PTR [r13+14168], -1
$LN212@SearchForT:

; 666  : 
; 667  : 		BOOL isKey5SecondByte = !isKey4SecondByte && IS_FIRST_BYTE_SJIS_FULL(key[4]);

	cmp	QWORD PTR tv11223[rbp-169], rax
	jne	SHORT $LN411@SearchForT
	lea	eax, DWORD PTR [rdx+127]
	cmp	al, 3
	jbe	SHORT $LN409@SearchForT
	lea	eax, DWORD PTR [rdx+120]
	cmp	al, 23
	jbe	SHORT $LN409@SearchForT
	add	dl, 32					; 00000020H
	cmp	dl, 10
	ja	SHORT $LN411@SearchForT
$LN409@SearchForT:
	mov	eax, 1

; 668  : 		tableForKey5 = (isKey5SecondByte) ? context->keyCharTable_SecondByte : context->keyCharTable_FirstByte;	

	lea	rdx, QWORD PTR [r13+15040]
	jmp	SHORT $LN775@SearchForT
$LN411@SearchForT:

; 666  : 
; 667  : 		BOOL isKey5SecondByte = !isKey4SecondByte && IS_FIRST_BYTE_SJIS_FULL(key[4]);

	xor	eax, eax

; 668  : 		tableForKey5 = (isKey5SecondByte) ? context->keyCharTable_SecondByte : context->keyCharTable_FirstByte;	

	lea	rdx, QWORD PTR [r13+14528]
$LN775@SearchForT:

; 669  : 
; 670  : 		for (indexKey5 = 0; indexKey5 <= CPU_DES_MAX_INDEX_FOR_KEYS; ++indexKey5) {

	xor	ecx, ecx

; 682  : 
; 683  : 			isKey6SecondByte = !isKey5SecondByte && IS_FIRST_BYTE_SJIS_FULL(key[5]);

	movsxd	r9, eax
	mov	QWORD PTR tableForKey5$1$[rbp-169], rdx
	mov	QWORD PTR $T6[rbp-169], rcx
	mov	QWORD PTR tv11238[rbp-169], r9
	mov	DWORD PTR indexKey5$1$[rbp-169], 0
	npad	12
$LL209@SearchForT:

; 671  : 			BOOL isKey6SecondByte;
; 672  : #if TRUE
; 673  : 			key[5] = tableForKey5[indexKey5];
; 674  : 			CLEAR_KEYS(5);

	movzx	edx, BYTE PTR [rdx+rcx]
	xor	eax, eax
	mov	rdi, r8
	mov	ecx, 28
	mov	BYTE PTR key$[rbp-164], dl
	rep stosd

; 675  : 			SET_ALL_BITS_FOR_KEY(35, 5, 0);

	test	dl, 1
	je	SHORT $LN199@SearchForT
	mov	QWORD PTR [r8], -1
	mov	QWORD PTR [r8+8], -1
$LN199@SearchForT:

; 676  : 			SET_ALL_BITS_FOR_KEY(36, 5, 1);

	test	dl, 2
	je	SHORT $LN195@SearchForT
	mov	QWORD PTR [r13+14192], -1
	mov	QWORD PTR [r13+14200], -1
$LN195@SearchForT:

; 677  : 			SET_ALL_BITS_FOR_KEY(37, 5, 2);

	test	dl, 4
	je	SHORT $LN191@SearchForT
	mov	QWORD PTR [r13+14208], -1
	mov	QWORD PTR [r13+14216], -1
$LN191@SearchForT:

; 678  : 			SET_ALL_BITS_FOR_KEY(38, 5, 3);

	test	dl, 8
	je	SHORT $LN187@SearchForT
	mov	QWORD PTR [r13+14224], -1
	mov	QWORD PTR [r13+14232], -1
$LN187@SearchForT:

; 679  : 			SET_ALL_BITS_FOR_KEY(39, 5, 4);

	test	dl, 16
	je	SHORT $LN183@SearchForT
	mov	QWORD PTR [r13+14240], -1
	mov	QWORD PTR [r13+14248], -1
$LN183@SearchForT:

; 680  : 			SET_ALL_BITS_FOR_KEY(40, 5, 5);

	test	dl, 32					; 00000020H
	je	SHORT $LN179@SearchForT
	mov	QWORD PTR [r13+14256], -1
	mov	QWORD PTR [r13+14264], -1
$LN179@SearchForT:

; 681  : 			SET_ALL_BITS_FOR_KEY(41, 5, 6);

	test	dl, 64					; 00000040H
	je	SHORT $LN175@SearchForT
	mov	QWORD PTR [r13+14272], -1
	mov	QWORD PTR [r13+14280], -1
$LN175@SearchForT:

; 682  : 
; 683  : 			isKey6SecondByte = !isKey5SecondByte && IS_FIRST_BYTE_SJIS_FULL(key[5]);

	test	r9, r9
	jne	SHORT $LN419@SearchForT
	lea	eax, DWORD PTR [rdx+127]
	cmp	al, 3
	jbe	SHORT $LN417@SearchForT
	lea	eax, DWORD PTR [rdx+120]
	cmp	al, 23
	jbe	SHORT $LN417@SearchForT
	add	dl, 32					; 00000020H
	cmp	dl, 10
	ja	SHORT $LN419@SearchForT
$LN417@SearchForT:
	mov	edx, 1

; 684  : 			tableForKey6 = (isKey6SecondByte) ? context->keyCharTable_SecondByte : context->keyCharTable_FirstByte;	

	lea	r8, QWORD PTR [r13+15040]
	jmp	SHORT $LN776@SearchForT
$LN419@SearchForT:

; 682  : 
; 683  : 			isKey6SecondByte = !isKey5SecondByte && IS_FIRST_BYTE_SJIS_FULL(key[5]);

	xor	edx, edx

; 684  : 			tableForKey6 = (isKey6SecondByte) ? context->keyCharTable_SecondByte : context->keyCharTable_FirstByte;	

	lea	r8, QWORD PTR [r13+14528]
$LN776@SearchForT:

; 685  : 
; 686  : 			CLEAR_KEYS(6);

	xor	eax, eax
	mov	rdi, rsi
	mov	ecx, 28
	rep stosd

; 687  : 			CLEAR_KEYS(7);

	mov	rdi, r12
	mov	ecx, 28

; 713  : 				tableForKey7 = (!isKey6SecondByte && IS_FIRST_BYTE_SJIS_FULL(key[6])) ? (context->keyCharTable_SecondByte) : (context->keyCharTable_FirstByte);	

	movsxd	rsi, edx
	rep stosd
	mov	rcx, r10

; 714  : 				if (key[6] & ((0x1 << 0))) context->keys[42].VECTOR_ELEMENTS[tripcodeIndexUpper] = 0xffffffff;

	lea	r10, QWORD PTR [r15+r8]
	mov	QWORD PTR tableForKey6$1$[rbp-169], r8
	xor	r9d, r9d
	mov	QWORD PTR tv11237[rsp], rsi
	npad	9
$LL160@SearchForT:

; 712  : 				key[6] = tableForKey6[(int32_t)randomByteKey6 + tripcodeIndexUpper];

	movzx	edx, BYTE PTR [r10+r9]
	mov	BYTE PTR key$[rbp-163], dl

; 713  : 				tableForKey7 = (!isKey6SecondByte && IS_FIRST_BYTE_SJIS_FULL(key[6])) ? (context->keyCharTable_SecondByte) : (context->keyCharTable_FirstByte);	

	test	rsi, rsi
	jne	SHORT $LN427@SearchForT
	lea	eax, DWORD PTR [rdx+127]
	cmp	al, 3
	jbe	SHORT $LN425@SearchForT
	lea	eax, DWORD PTR [rdx+120]
	cmp	al, 23
	jbe	SHORT $LN425@SearchForT
	lea	eax, DWORD PTR [rdx+32]
	cmp	al, 10
	ja	SHORT $LN427@SearchForT
$LN425@SearchForT:
	lea	rdi, QWORD PTR [r13+15040]
	jmp	SHORT $LN428@SearchForT
$LN427@SearchForT:
	lea	rdi, QWORD PTR [r13+14528]
$LN428@SearchForT:

; 714  : 				if (key[6] & ((0x1 << 0))) context->keys[42].VECTOR_ELEMENTS[tripcodeIndexUpper] = 0xffffffff;

	test	dl, 1
	je	SHORT $LN157@SearchForT
	mov	DWORD PTR [rcx-16], -1
$LN157@SearchForT:

; 715  : 				if (key[6] & ((0x1 << 1))) context->keys[43].VECTOR_ELEMENTS[tripcodeIndexUpper] = 0xffffffff;

	test	dl, 2
	je	SHORT $LN156@SearchForT
	mov	DWORD PTR [rcx], -1
$LN156@SearchForT:

; 716  : 				if (key[6] & ((0x1 << 2))) context->keys[44].VECTOR_ELEMENTS[tripcodeIndexUpper] = 0xffffffff;

	test	dl, 4
	je	SHORT $LN155@SearchForT
	mov	DWORD PTR [rcx+16], -1
$LN155@SearchForT:

; 717  : 				if (key[6] & ((0x1 << 3))) context->keys[45].VECTOR_ELEMENTS[tripcodeIndexUpper] = 0xffffffff;

	test	dl, 8
	je	SHORT $LN154@SearchForT
	mov	DWORD PTR [rcx+32], -1
$LN154@SearchForT:

; 718  : 				if (key[6] & ((0x1 << 4))) context->keys[46].VECTOR_ELEMENTS[tripcodeIndexUpper] = 0xffffffff;

	test	dl, 16
	je	SHORT $LN153@SearchForT
	mov	DWORD PTR [rcx+48], -1
$LN153@SearchForT:

; 719  : 				if (key[6] & ((0x1 << 5))) context->keys[47].VECTOR_ELEMENTS[tripcodeIndexUpper] = 0xffffffff;

	test	dl, 32					; 00000020H
	je	SHORT $LN152@SearchForT
	mov	DWORD PTR [rcx+64], -1
$LN152@SearchForT:

; 720  : 				if (key[6] & ((0x1 << 6))) context->keys[48].VECTOR_ELEMENTS[tripcodeIndexUpper] = 0xffffffff;

	test	dl, 64					; 00000040H
	je	SHORT $LN151@SearchForT
	mov	DWORD PTR [rcx+80], -1
$LN151@SearchForT:

; 721  : 
; 722  : #pragma unroll
; 723  : 				for (int32_t tripcodeIndexLower = 0; tripcodeIndexLower < 32; ++tripcodeIndexLower) {

	mov	eax, 1
	add	rdi, r11
	lea	r8d, QWORD PTR [rax+31]
$LL150@SearchForT:

; 724  : 					key[7] = tableForKey7[(int32_t)randomByteKey7 + tripcodeIndexLower];

	movzx	edx, BYTE PTR [rdi]
	mov	BYTE PTR key$[rbp-162], dl

; 725  : 					if (key[7] & ((0x1 << 0))) context->keys[49].VECTOR_ELEMENTS[tripcodeIndexUpper] |= (0x1 << tripcodeIndexLower);

	test	dl, 1
	je	SHORT $LN147@SearchForT
	or	DWORD PTR [rcx+96], eax
$LN147@SearchForT:

; 726  : 					if (key[7] & ((0x1 << 1))) context->keys[50].VECTOR_ELEMENTS[tripcodeIndexUpper] |= (0x1 << tripcodeIndexLower);

	test	dl, 2
	je	SHORT $LN146@SearchForT
	or	DWORD PTR [rcx+112], eax
$LN146@SearchForT:

; 727  : 					if (key[7] & ((0x1 << 2))) context->keys[51].VECTOR_ELEMENTS[tripcodeIndexUpper] |= (0x1 << tripcodeIndexLower);

	test	dl, 4
	je	SHORT $LN145@SearchForT
	or	DWORD PTR [rcx+128], eax
$LN145@SearchForT:

; 728  : 					if (key[7] & ((0x1 << 3))) context->keys[52].VECTOR_ELEMENTS[tripcodeIndexUpper] |= (0x1 << tripcodeIndexLower);

	test	dl, 8
	je	SHORT $LN144@SearchForT
	or	DWORD PTR [rcx+144], eax
$LN144@SearchForT:

; 729  : 					if (key[7] & ((0x1 << 4))) context->keys[53].VECTOR_ELEMENTS[tripcodeIndexUpper] |= (0x1 << tripcodeIndexLower);

	test	dl, 16
	je	SHORT $LN143@SearchForT
	or	DWORD PTR [rcx+160], eax
$LN143@SearchForT:

; 730  : 					if (key[7] & ((0x1 << 5))) context->keys[54].VECTOR_ELEMENTS[tripcodeIndexUpper] |= (0x1 << tripcodeIndexLower);

	test	dl, 32					; 00000020H
	je	SHORT $LN142@SearchForT
	or	DWORD PTR [rcx+176], eax
$LN142@SearchForT:

; 731  : 					if (key[7] & ((0x1 << 6))) context->keys[55].VECTOR_ELEMENTS[tripcodeIndexUpper] |= (0x1 << tripcodeIndexLower);

	test	dl, 64					; 00000040H
	je	SHORT $LN149@SearchForT
	or	DWORD PTR [rcx+192], eax
$LN149@SearchForT:

; 721  : 
; 722  : #pragma unroll
; 723  : 				for (int32_t tripcodeIndexLower = 0; tripcodeIndexLower < 32; ++tripcodeIndexLower) {

	rol	eax, 1
	inc	rdi
	dec	r8
	jne	SHORT $LL150@SearchForT

; 688  : 
; 689  : #if FALSE
; 690  : 			for (tripcodeIndex = 0; tripcodeIndex < BITSLICE_DES_DEPTH; ++tripcodeIndex) {
; 691  : 				key[6] = tableForKey6[(int32_t)randomByteKey6 + (tripcodeIndex >> 5)];
; 692  : 				tableForKey7 = (!isKey6SecondByte && IS_FIRST_BYTE_SJIS_FULL(key[6])) ? (context->keyCharTable_SecondByte) : (context->keyCharTable_FirstByte);	
; 693  : 				SET_BIT_FOR_KEY(42, 6, 0);
; 694  : 				SET_BIT_FOR_KEY(43, 6, 1);
; 695  : 				SET_BIT_FOR_KEY(44, 6, 2);
; 696  : 				SET_BIT_FOR_KEY(45, 6, 3);
; 697  : 				SET_BIT_FOR_KEY(46, 6, 4);
; 698  : 				SET_BIT_FOR_KEY(47, 6, 5);
; 699  : 				SET_BIT_FOR_KEY(48, 6, 6);
; 700  : 
; 701  : 				key[7] = tableForKey7[(int32_t)randomByteKey7 + (tripcodeIndex & 0x1f)];
; 702  : 				SET_BIT_FOR_KEY(49, 7, 0);
; 703  : 				SET_BIT_FOR_KEY(50, 7, 1);
; 704  : 				SET_BIT_FOR_KEY(51, 7, 2);
; 705  : 				SET_BIT_FOR_KEY(52, 7, 3);
; 706  : 				SET_BIT_FOR_KEY(53, 7, 4);
; 707  : 				SET_BIT_FOR_KEY(54, 7, 5);
; 708  : 				SET_BIT_FOR_KEY(55, 7, 6);
; 709  : 			}
; 710  : #else
; 711  : 			for (int32_t tripcodeIndexUpper = 0; tripcodeIndexUpper < (BITSLICE_DES_DEPTH >> 5); ++tripcodeIndexUpper) {

	inc	r9
	add	rcx, 4
	cmp	r9, 4
	jl	$LL160@SearchForT

; 732  : 				}
; 733  : 			}
; 734  : #endif
; 735  : #endif
; 736  : 
; 737  : 		 	DES_Crypt(context);

	mov	rcx, r13
	call	?DES_Crypt@@YAXPEAUDES_Context@@@Z	; DES_Crypt

; 738  : 			numGeneratedTripcodes += BITSLICE_DES_DEPTH;
; 739  : 
; 740  : 			// continue;
; 741  : 
; 742  : 			for (tripcodeIndex = 0; tripcodeIndex < BITSLICE_DES_DEPTH; ++tripcodeIndex) {

	mov	r15, QWORD PTR ?tripcodeChunkArray@@3PEAIEA ; tripcodeChunkArray
	sub	ebx, -128				; ffffffffffffff80H
	xor	eax, eax
	mov	DWORD PTR numGeneratedTripcodes$1$[rbp-169], ebx
	lea	r12d, QWORD PTR [rax+1]
	mov	DWORD PTR tripcodeIndex$1$[rbp-169], eax
	npad	9
$LL140@SearchForT:

; 743  : 				// if (tripcodeIndex == 0) printf("tripcode[] = \"%s\"\n", DES_GetTripcode(context, tripcodeIndex, tripcode));
; 744  : 
; 745  : 				// printf("[0x%08x, 0x%08x]\n", tripcodeChunkArray[0], generatedTripcodeChunkArray[0]);
; 746  : 				
; 747  : 				BOOL found = FALSE;

	xor	ebx, ebx

; 748  : 				if (searchMode == SEARCH_MODE_FORWARD_MATCHING && numTripcodeChunk == 1) {

	cmp	DWORD PTR ?searchMode@@3HA, ebx		; searchMode
	jne	$LN137@SearchForT
	cmp	DWORD PTR ?numTripcodeChunk@@3IA, 1	; numTripcodeChunk
	jne	$LN747@SearchForT

; 749  : 					if (GET_TRIPCODE_CHAR_INDEX(context->dataBlocks, tripcodeIndex, 63, 31, 38,  6, 46, 14, 0) != ((tripcodeChunkArray[0] >> (6 * 4)) & 0x3f))

	mov	edi, DWORD PTR [r15]
	mov	edx, eax
	mov	eax, ebx
	shr	rdx, 5
	mov	ecx, ebx
	test	DWORD PTR [r13+rdx*4+13392], r12d
	setne	cl
	add	ecx, ecx
	test	DWORD PTR [r13+rdx*4+12880], r12d
	setne	al
	or	ecx, eax
	mov	eax, ebx
	add	ecx, ecx
	test	DWORD PTR [r13+rdx*4+12992], r12d
	setne	al
	or	ecx, eax
	mov	eax, ebx
	add	ecx, ecx
	test	DWORD PTR [r13+rdx*4+12480], r12d
	setne	al
	or	ecx, eax
	mov	eax, ebx
	add	ecx, ecx
	test	DWORD PTR [r13+rdx*4+13120], r12d
	setne	al
	or	ecx, eax
	mov	eax, ebx
	add	ecx, ecx
	test	DWORD PTR [r13+rdx*4+12608], r12d
	setne	al
	or	ecx, eax
	mov	eax, edi
	shr	eax, 24
	and	eax, 63					; 0000003fH
	cmp	ecx, eax
	jne	$LN748@SearchForT

; 750  : 						goto skip_final_permutation;
; 751  : 					if (GET_TRIPCODE_CHAR_INDEX(context->dataBlocks, tripcodeIndex, 54, 22, 62, 30, 37,  5, 0) != ((tripcodeChunkArray[0] >> (6 * 3)) & 0x3f))

	test	DWORD PTR [r13+rdx*4+13248], r12d
	mov	eax, ebx
	mov	ecx, ebx
	setne	cl
	add	ecx, ecx
	test	DWORD PTR [r13+rdx*4+12736], r12d
	setne	al
	or	ecx, eax
	mov	eax, ebx
	add	ecx, ecx
	test	DWORD PTR [r13+rdx*4+13376], r12d
	setne	al
	or	ecx, eax
	mov	eax, ebx
	add	ecx, ecx
	test	DWORD PTR [r13+rdx*4+12864], r12d
	setne	al
	or	ecx, eax
	mov	eax, ebx
	add	ecx, ecx
	test	DWORD PTR [r13+rdx*4+12976], r12d
	setne	al
	or	ecx, eax
	mov	eax, ebx
	add	ecx, ecx
	test	DWORD PTR [r13+rdx*4+12464], r12d
	setne	al
	or	ecx, eax
	mov	eax, edi
	shr	eax, 18
	and	eax, 63					; 0000003fH
	cmp	ecx, eax
	jne	$LN748@SearchForT

; 752  : 						goto skip_final_permutation;
; 753  : 					if (GET_TRIPCODE_CHAR_INDEX(context->dataBlocks, tripcodeIndex, 45, 13, 53, 21, 61, 29, 0) != ((tripcodeChunkArray[0] >> (6 * 2)) & 0x3f))

	test	DWORD PTR [r13+rdx*4+13104], r12d
	mov	eax, ebx
	mov	ecx, ebx
	setne	cl
	add	ecx, ecx
	test	DWORD PTR [r13+rdx*4+12592], r12d
	setne	al
	or	ecx, eax
	mov	eax, ebx
	add	ecx, ecx
	test	DWORD PTR [r13+rdx*4+13232], r12d
	setne	al
	or	ecx, eax
	mov	eax, ebx
	add	ecx, ecx
	test	DWORD PTR [r13+rdx*4+12720], r12d
	setne	al
	or	ecx, eax
	mov	eax, ebx
	add	ecx, ecx
	test	DWORD PTR [r13+rdx*4+13360], r12d
	setne	al
	or	ecx, eax
	mov	eax, ebx
	add	ecx, ecx
	test	DWORD PTR [r13+rdx*4+12848], r12d
	setne	al
	or	ecx, eax
	mov	eax, edi
	shr	eax, 12
	and	eax, 63					; 0000003fH
	cmp	ecx, eax
	jne	$LN748@SearchForT

; 754  : 						goto skip_final_permutation;
; 755  : 					if (GET_TRIPCODE_CHAR_INDEX(context->dataBlocks, tripcodeIndex, 36,  4, 44, 12, 52, 20, 0) != ((tripcodeChunkArray[0] >> (6 * 1)) & 0x3f))

	test	DWORD PTR [r13+rdx*4+12960], r12d
	mov	eax, ebx
	mov	ecx, ebx
	setne	cl
	add	ecx, ecx
	test	DWORD PTR [r13+rdx*4+12448], r12d
	setne	al
	or	ecx, eax
	mov	eax, ebx
	add	ecx, ecx
	test	DWORD PTR [r13+rdx*4+13088], r12d
	setne	al
	or	ecx, eax
	mov	eax, ebx
	add	ecx, ecx
	test	DWORD PTR [r13+rdx*4+12576], r12d
	setne	al
	or	ecx, eax
	mov	eax, ebx
	add	ecx, ecx
	test	DWORD PTR [r13+rdx*4+13216], r12d
	setne	al
	or	ecx, eax
	mov	eax, ebx
	add	ecx, ecx
	test	DWORD PTR [r13+rdx*4+12704], r12d
	setne	al
	or	ecx, eax
	mov	eax, edi
	shr	eax, 6
	and	eax, 63					; 0000003fH
	cmp	ecx, eax
	jne	$LN748@SearchForT

; 756  : 						goto skip_final_permutation;
; 757  : 					if (GET_TRIPCODE_CHAR_INDEX(context->dataBlocks, tripcodeIndex, 60, 28, 35,  3, 43, 11, 0) != ((tripcodeChunkArray[0] >> (6 * 0)) & 0x3f))

	test	DWORD PTR [r13+rdx*4+13344], r12d
	mov	eax, ebx
	mov	ecx, ebx
	setne	cl
	add	ecx, ecx
	test	DWORD PTR [r13+rdx*4+12832], r12d
	setne	al
	or	ecx, eax
	mov	eax, ebx
	add	ecx, ecx
	test	DWORD PTR [r13+rdx*4+12944], r12d
	setne	al
	or	ecx, eax
	mov	eax, ebx
	add	ecx, ecx
	test	DWORD PTR [r13+rdx*4+12432], r12d
	setne	al
	or	ecx, eax
	mov	eax, ebx
	add	ecx, ecx
	test	DWORD PTR [r13+rdx*4+13072], r12d
	setne	al
	or	ecx, eax
	mov	eax, ebx
	add	ecx, ecx
	test	DWORD PTR [r13+rdx*4+12560], r12d
	setne	al
	or	ecx, eax
$LN783@SearchForT:
	and	edi, 63					; 0000003fH
	cmp	ecx, edi
	jne	$LN748@SearchForT
$LN97@SearchForT:

; 758  : 						goto skip_final_permutation;
; 759  : 					found = TRUE;

	mov	ebx, 1
	jmp	$LN28@SearchForT
$LN747@SearchForT:

; 773  : 
; 774  : 				} else if (searchMode == SEARCH_MODE_FORWARD_MATCHING) {
; 775  : 					generatedTripcodeChunkArray[0] = 0x00000000;
; 776  : 
; 777  : 					uint32_t tripcodeCharIndex = GET_TRIPCODE_CHAR_INDEX(context->dataBlocks, tripcodeIndex, 63, 31, 38,  6, 46, 14, 0);

	mov	ecx, eax
	mov	edx, ebx
	mov	eax, ebx
	shr	rcx, 5
	mov	DWORD PTR generatedTripcodeChunkArray$[rbp-169], ebx
	test	DWORD PTR [r13+rcx*4+13392], r12d
	setne	dl
	add	edx, edx
	test	DWORD PTR [r13+rcx*4+12880], r12d
	setne	al
	or	edx, eax
	mov	eax, ebx
	add	edx, edx
	test	DWORD PTR [r13+rcx*4+12992], r12d
	setne	al
	or	edx, eax
	mov	eax, ebx
	add	edx, edx
	test	DWORD PTR [r13+rcx*4+12480], r12d
	setne	al
	or	edx, eax
	mov	eax, ebx
	add	edx, edx
	test	DWORD PTR [r13+rcx*4+13120], r12d
	setne	al
	or	edx, eax
	mov	eax, ebx
	add	edx, edx
	test	DWORD PTR [r13+rcx*4+12608], r12d
	setne	al
	or	edx, eax

; 778  : 					if (!context->tripcodeChunkBitmap[4][tripcodeCharIndex])

	cmp	BYTE PTR [rdx+r13+15808], bl
	je	$LN748@SearchForT

; 779  : 						goto skip_final_permutation;
; 780  : 					generatedTripcodeChunkArray[0] |= tripcodeCharIndex << (6 * 4);

	shl	edx, 24

; 781  : 
; 782  : 					tripcodeCharIndex = GET_TRIPCODE_CHAR_INDEX(context->dataBlocks, tripcodeIndex, 54, 22, 62, 30, 37,  5, 0);

	test	DWORD PTR [r13+rcx*4+13248], r12d
	mov	edi, ebx
	setne	dil
	mov	eax, ebx
	mov	DWORD PTR generatedTripcodeChunkArray$[rbp-169], edx
	add	edi, edi
	test	DWORD PTR [r13+rcx*4+12736], r12d
	setne	al
	or	edi, eax
	mov	eax, ebx
	add	edi, edi
	test	DWORD PTR [r13+rcx*4+13376], r12d
	setne	al
	or	edi, eax
	mov	eax, ebx
	add	edi, edi
	test	DWORD PTR [r13+rcx*4+12864], r12d
	setne	al
	or	edi, eax
	mov	eax, ebx
	add	edi, edi
	test	DWORD PTR [r13+rcx*4+12976], r12d
	setne	al
	or	edi, eax
	mov	eax, ebx
	add	edi, edi
	test	DWORD PTR [r13+rcx*4+12464], r12d
	setne	al
	or	edi, eax

; 783  : 					if (!context->tripcodeChunkBitmap[3][tripcodeCharIndex])

	cmp	BYTE PTR [rdi+r13+15744], bl
	je	$LN748@SearchForT

; 784  : 						goto skip_final_permutation;
; 785  : 					generatedTripcodeChunkArray[0] |= tripcodeCharIndex << (6 * 3);

	shl	edi, 18

; 786  : 
; 787  : 					tripcodeCharIndex = GET_TRIPCODE_CHAR_INDEX(context->dataBlocks, tripcodeIndex, 45, 13, 53, 21, 61, 29, 0);

	mov	eax, ebx
	or	edx, edi
	test	DWORD PTR [r13+rcx*4+13104], r12d
	mov	edi, ebx
	setne	dil
	mov	DWORD PTR generatedTripcodeChunkArray$[rbp-169], edx
	add	edi, edi
	test	DWORD PTR [r13+rcx*4+12592], r12d
	setne	al
	or	edi, eax
	mov	eax, ebx
	add	edi, edi
	test	DWORD PTR [r13+rcx*4+13232], r12d
	setne	al
	or	edi, eax
	mov	eax, ebx
	add	edi, edi
	test	DWORD PTR [r13+rcx*4+12720], r12d
	setne	al
	or	edi, eax
	mov	eax, ebx
	add	edi, edi
	test	DWORD PTR [r13+rcx*4+13360], r12d
	setne	al
	or	edi, eax
	mov	eax, ebx
	add	edi, edi
	test	DWORD PTR [r13+rcx*4+12848], r12d
	setne	al
	or	edi, eax

; 788  : 					if (!context->tripcodeChunkBitmap[2][tripcodeCharIndex])

	cmp	BYTE PTR [rdi+r13+15680], bl
	je	$LN748@SearchForT

; 789  : 						goto skip_final_permutation;
; 790  : 					generatedTripcodeChunkArray[0] |= tripcodeCharIndex << (6 * 2);

	shl	edi, 12

; 791  : 
; 792  : 					tripcodeCharIndex = GET_TRIPCODE_CHAR_INDEX(context->dataBlocks, tripcodeIndex, 36,  4, 44, 12, 52, 20, 0);

	mov	eax, ebx
	or	edx, edi
	test	DWORD PTR [r13+rcx*4+12960], r12d
	mov	edi, ebx
	setne	dil
	mov	DWORD PTR generatedTripcodeChunkArray$[rbp-169], edx
	add	edi, edi
	test	DWORD PTR [r13+rcx*4+12448], r12d
	setne	al
	or	edi, eax
	mov	eax, ebx
	add	edi, edi
	test	DWORD PTR [r13+rcx*4+13088], r12d
	setne	al
	or	edi, eax
	mov	eax, ebx
	add	edi, edi
	test	DWORD PTR [r13+rcx*4+12576], r12d
	setne	al
	or	edi, eax
	mov	eax, ebx
	add	edi, edi
	test	DWORD PTR [r13+rcx*4+13216], r12d
	setne	al
	or	edi, eax
	mov	eax, ebx
	add	edi, edi
	test	DWORD PTR [r13+rcx*4+12704], r12d
	setne	al
	or	edi, eax

; 793  : 					if (!context->tripcodeChunkBitmap[1][tripcodeCharIndex])

	cmp	BYTE PTR [rdi+r13+15616], bl
	je	$LN748@SearchForT

; 794  : 						goto skip_final_permutation;
; 795  : 					generatedTripcodeChunkArray[0] |= tripcodeCharIndex << (6 * 1);

	shl	edi, 6

; 796  : 
; 797  : 					tripcodeCharIndex = GET_TRIPCODE_CHAR_INDEX(context->dataBlocks, tripcodeIndex, 60, 28, 35,  3, 43, 11, 0);

	mov	eax, ebx
	or	edx, edi
	test	DWORD PTR [r13+rcx*4+13344], r12d
	mov	edi, ebx
	setne	dil
	mov	DWORD PTR generatedTripcodeChunkArray$[rbp-169], edx
	add	edi, edi
	test	DWORD PTR [r13+rcx*4+12832], r12d
	setne	al
	or	edi, eax
	mov	eax, ebx
	add	edi, edi
	test	DWORD PTR [r13+rcx*4+12944], r12d
	setne	al
	or	edi, eax
	mov	eax, ebx
	add	edi, edi
	test	DWORD PTR [r13+rcx*4+12432], r12d
	setne	al
	or	edi, eax
	mov	eax, ebx
	add	edi, edi
	test	DWORD PTR [r13+rcx*4+13072], r12d
	setne	al
	or	edi, eax
	mov	eax, ebx
	add	edi, edi
	test	DWORD PTR [r13+rcx*4+12560], r12d
	setne	al
	or	edi, eax

; 798  : 					if (!context->tripcodeChunkBitmap[0][tripcodeCharIndex])

	cmp	BYTE PTR [rdi+r13+15552], bl
	je	$LN748@SearchForT

; 799  : 						goto skip_final_permutation;
; 800  : 					generatedTripcodeChunkArray[0] |= tripcodeCharIndex << (6 * 0);

	or	edx, edi

; 801  : 
; 802  : 					QUICK_SEARCH_FOR_TRIPCODE_CHUNK(0)

	lea	rdi, OFFSET FLAT:__ImageBase
	mov	eax, edx
	mov	DWORD PTR generatedTripcodeChunkArray$[rbp-169], edx
	shr	rax, 18
	cmp	BYTE PTR ?smallChunkBitmap@@3PAEA[rax+rdi], bl
	jne	$LN748@SearchForT
	mov	edi, DWORD PTR ?numTripcodeChunk@@3IA	; numTripcodeChunk
	xor	r8d, r8d
	dec	edi
	js	$LN748@SearchForT
	npad	2
$LL101@SearchForT:
	lea	ecx, DWORD PTR [rdi+r8]
	sar	ecx, 1
	movsxd	rax, ecx
	mov	r9d, DWORD PTR [r15+rax*4]
	cmp	edx, r9d
	jbe	SHORT $LN777@SearchForT
	lea	r8d, DWORD PTR [rcx+1]
	jmp	SHORT $LN96@SearchForT
$LN777@SearchForT:
	jae	$LN97@SearchForT
	lea	edi, DWORD PTR [rcx-1]
$LN96@SearchForT:
	cmp	r8d, edi
	jle	SHORT $LL101@SearchForT

; 601  : 		for (int32_t i = 4; i < lenTripcode; ++i)

	jmp	$LN748@SearchForT
$LN137@SearchForT:

; 760  : 					
; 761  : 				} else if (searchMode == SEARCH_MODE_BACKWARD_MATCHING && numTripcodeChunk == 1) {

	cmp	DWORD PTR ?searchMode@@3HA, 1		; searchMode
	jne	$LN94@SearchForT
	cmp	DWORD PTR ?numTripcodeChunk@@3IA, 1	; numTripcodeChunk
	jne	$LN749@SearchForT

; 762  : 					if (GET_TRIPCODE_CHAR_INDEX     (context->dataBlocks, tripcodeIndex, 51, 19, 59, 27, 34,  2, 0) != ((tripcodeChunkArray[0] >> (6 * 4)) & 0x3f))

	mov	edi, DWORD PTR [r15]
	mov	edx, eax
	mov	eax, ebx
	shr	rdx, 5
	mov	ecx, ebx
	test	DWORD PTR [r13+rdx*4+13200], r12d
	setne	cl
	add	ecx, ecx
	test	DWORD PTR [r13+rdx*4+12688], r12d
	setne	al
	or	ecx, eax
	mov	eax, ebx
	add	ecx, ecx
	test	DWORD PTR [r13+rdx*4+13328], r12d
	setne	al
	or	ecx, eax
	mov	eax, ebx
	add	ecx, ecx
	test	DWORD PTR [r13+rdx*4+12816], r12d
	setne	al
	or	ecx, eax
	mov	eax, ebx
	add	ecx, ecx
	test	DWORD PTR [r13+rdx*4+12928], r12d
	setne	al
	or	ecx, eax
	mov	eax, ebx
	add	ecx, ecx
	test	DWORD PTR [r13+rdx*4+12416], r12d
	setne	al
	or	ecx, eax
	mov	eax, edi
	shr	eax, 24
	and	eax, 63					; 0000003fH
	cmp	ecx, eax
	jne	$LN748@SearchForT

; 763  : 						goto skip_final_permutation;
; 764  : 					if (GET_TRIPCODE_CHAR_INDEX     (context->dataBlocks, tripcodeIndex, 42, 10, 50, 18, 58, 26, 0) != ((tripcodeChunkArray[0] >> (6 * 3)) & 0x3f))

	test	DWORD PTR [r13+rdx*4+13056], r12d
	mov	eax, ebx
	mov	ecx, ebx
	setne	cl
	add	ecx, ecx
	test	DWORD PTR [r13+rdx*4+12544], r12d
	setne	al
	or	ecx, eax
	mov	eax, ebx
	add	ecx, ecx
	test	DWORD PTR [r13+rdx*4+13184], r12d
	setne	al
	or	ecx, eax
	mov	eax, ebx
	add	ecx, ecx
	test	DWORD PTR [r13+rdx*4+12672], r12d
	setne	al
	or	ecx, eax
	mov	eax, ebx
	add	ecx, ecx
	test	DWORD PTR [r13+rdx*4+13312], r12d
	setne	al
	or	ecx, eax
	mov	eax, ebx
	add	ecx, ecx
	test	DWORD PTR [r13+rdx*4+12800], r12d
	setne	al
	or	ecx, eax
	mov	eax, edi
	shr	eax, 18
	and	eax, 63					; 0000003fH
	cmp	ecx, eax
	jne	$LN748@SearchForT

; 765  : 						goto skip_final_permutation;
; 766  : 					if (GET_TRIPCODE_CHAR_INDEX     (context->dataBlocks, tripcodeIndex, 33,  1, 41,  9, 49, 17, 0) != ((tripcodeChunkArray[0] >> (6 * 2)) & 0x3f))

	test	DWORD PTR [r13+rdx*4+12912], r12d
	mov	eax, ebx
	mov	ecx, ebx
	setne	cl
	add	ecx, ecx
	test	DWORD PTR [r13+rdx*4+12400], r12d
	setne	al
	or	ecx, eax
	mov	eax, ebx
	add	ecx, ecx
	test	DWORD PTR [r13+rdx*4+13040], r12d
	setne	al
	or	ecx, eax
	mov	eax, ebx
	add	ecx, ecx
	test	DWORD PTR [r13+rdx*4+12528], r12d
	setne	al
	or	ecx, eax
	mov	eax, ebx
	add	ecx, ecx
	test	DWORD PTR [r13+rdx*4+13168], r12d
	setne	al
	or	ecx, eax
	mov	eax, ebx
	add	ecx, ecx
	test	DWORD PTR [r13+rdx*4+12656], r12d
	setne	al
	or	ecx, eax
	mov	eax, edi
	shr	eax, 12
	and	eax, 63					; 0000003fH
	cmp	ecx, eax
	jne	$LN748@SearchForT

; 767  : 						goto skip_final_permutation;
; 768  : 					if (GET_TRIPCODE_CHAR_INDEX     (context->dataBlocks, tripcodeIndex, 57, 25, 32,  0, 40,  8, 0) != ((tripcodeChunkArray[0] >> (6 * 1)) & 0x3f))

	test	DWORD PTR [r13+rdx*4+13296], r12d
	mov	eax, ebx
	mov	ecx, ebx
	setne	cl
	add	ecx, ecx
	test	DWORD PTR [r13+rdx*4+12784], r12d
	setne	al
	or	ecx, eax
	mov	eax, ebx
	add	ecx, ecx
	test	DWORD PTR [r13+rdx*4+12896], r12d
	setne	al
	or	ecx, eax
	mov	eax, ebx
	add	ecx, ecx
	test	DWORD PTR [r13+rdx*4+12384], r12d
	setne	al
	or	ecx, eax
	mov	eax, ebx
	add	ecx, ecx
	test	DWORD PTR [r13+rdx*4+13024], r12d
	setne	al
	or	ecx, eax
	mov	eax, ebx
	add	ecx, ecx
	test	DWORD PTR [r13+rdx*4+12512], r12d
	setne	al
	or	ecx, eax
	mov	eax, edi
	shr	eax, 6
	and	eax, 63					; 0000003fH
	cmp	ecx, eax
	jne	$LN748@SearchForT

; 769  : 						goto skip_final_permutation;
; 770  : 					if (GET_TRIPCODE_CHAR_INDEX_LAST(context->dataBlocks, tripcodeIndex, 48, 16, 56, 24) != ((tripcodeChunkArray[0] >> (6 * 0)) & 0x3f))

	test	DWORD PTR [r13+rdx*4+13152], r12d
	mov	eax, ebx
	mov	ecx, ebx
	setne	cl
	add	ecx, ecx
	test	DWORD PTR [r13+rdx*4+12640], r12d
	setne	al
	or	ecx, eax
	mov	eax, ebx
	add	ecx, ecx
	test	DWORD PTR [r13+rdx*4+13280], r12d
	setne	al
	or	ecx, eax
	mov	eax, ebx
	add	ecx, ecx
	test	DWORD PTR [r13+rdx*4+12768], r12d
	setne	al
	or	ecx, eax
	shl	ecx, 2

; 771  : 						goto skip_final_permutation;
; 772  : 					found = TRUE;

	jmp	$LN783@SearchForT
$LN749@SearchForT:

; 803  : 
; 804  : 				} else if (searchMode == SEARCH_MODE_BACKWARD_MATCHING) {
; 805  : 					generatedTripcodeChunkArray[0] = 0x00000000;
; 806  : 
; 807  : 					uint32_t tripcodeCharIndex = GET_TRIPCODE_CHAR_INDEX(context->dataBlocks, tripcodeIndex, 51, 19, 59, 27, 34,  2, 0);

	mov	edi, eax
	mov	edx, ebx
	mov	eax, ebx
	shr	rdi, 5
	mov	DWORD PTR generatedTripcodeChunkArray$[rbp-169], ebx
	test	DWORD PTR [r13+rdi*4+13200], r12d
	setne	dl
	add	edx, edx
	test	DWORD PTR [r13+rdi*4+12688], r12d
	setne	al
	or	edx, eax
	mov	eax, ebx
	add	edx, edx
	test	DWORD PTR [r13+rdi*4+13328], r12d
	setne	al
	or	edx, eax
	mov	eax, ebx
	add	edx, edx
	test	DWORD PTR [r13+rdi*4+12816], r12d
	setne	al
	or	edx, eax
	mov	eax, ebx
	add	edx, edx
	test	DWORD PTR [r13+rdi*4+12928], r12d
	setne	al
	or	edx, eax
	mov	eax, ebx
	add	edx, edx
	test	DWORD PTR [r13+rdi*4+12416], r12d
	setne	al
	or	edx, eax

; 808  : 					if (!context->tripcodeChunkBitmap[4][tripcodeCharIndex])

	cmp	BYTE PTR [rdx+r13+15808], bl
	je	$LN748@SearchForT

; 809  : 						goto skip_final_permutation;
; 810  : 					generatedTripcodeChunkArray[0] |= tripcodeCharIndex << (6 * 4);

	shl	edx, 24

; 811  : 
; 812  : 					tripcodeCharIndex = GET_TRIPCODE_CHAR_INDEX(context->dataBlocks, tripcodeIndex, 42, 10, 50, 18, 58, 26, 0);

	test	DWORD PTR [r13+rdi*4+13056], r12d
	mov	ecx, ebx
	setne	cl
	mov	eax, ebx
	mov	DWORD PTR generatedTripcodeChunkArray$[rbp-169], edx
	add	ecx, ecx
	test	DWORD PTR [r13+rdi*4+12544], r12d
	setne	al
	or	ecx, eax
	mov	eax, ebx
	add	ecx, ecx
	test	DWORD PTR [r13+rdi*4+13184], r12d
	setne	al
	or	ecx, eax
	mov	eax, ebx
	add	ecx, ecx
	test	DWORD PTR [r13+rdi*4+12672], r12d
	setne	al
	or	ecx, eax
	mov	eax, ebx
	add	ecx, ecx
	test	DWORD PTR [r13+rdi*4+13312], r12d
	setne	al
	or	ecx, eax
	mov	eax, ebx
	add	ecx, ecx
	test	DWORD PTR [r13+rdi*4+12800], r12d
	setne	al
	or	ecx, eax

; 813  : 					if (!context->tripcodeChunkBitmap[3][tripcodeCharIndex])

	cmp	BYTE PTR [rcx+r13+15744], bl
	je	$LN748@SearchForT

; 814  : 						goto skip_final_permutation;
; 815  : 					generatedTripcodeChunkArray[0] |= tripcodeCharIndex << (6 * 3);

	shl	ecx, 18

; 816  : 
; 817  : 					tripcodeCharIndex = GET_TRIPCODE_CHAR_INDEX(context->dataBlocks, tripcodeIndex, 33,  1, 41,  9, 49, 17, 0);

	mov	eax, ebx
	or	edx, ecx
	test	DWORD PTR [r13+rdi*4+12912], r12d
	mov	ecx, ebx
	setne	cl
	mov	DWORD PTR generatedTripcodeChunkArray$[rbp-169], edx
	add	ecx, ecx
	test	DWORD PTR [r13+rdi*4+12400], r12d
	setne	al
	or	ecx, eax
	mov	eax, ebx
	add	ecx, ecx
	test	DWORD PTR [r13+rdi*4+13040], r12d
	setne	al
	or	ecx, eax
	mov	eax, ebx
	add	ecx, ecx
	test	DWORD PTR [r13+rdi*4+12528], r12d
	setne	al
	or	ecx, eax
	mov	eax, ebx
	add	ecx, ecx
	test	DWORD PTR [r13+rdi*4+13168], r12d
	setne	al
	or	ecx, eax
	mov	eax, ebx
	add	ecx, ecx
	test	DWORD PTR [r13+rdi*4+12656], r12d
	setne	al
	or	ecx, eax

; 818  : 					if (!context->tripcodeChunkBitmap[2][tripcodeCharIndex])

	cmp	BYTE PTR [rcx+r13+15680], bl
	je	$LN748@SearchForT

; 819  : 						goto skip_final_permutation;
; 820  : 					generatedTripcodeChunkArray[0] |= tripcodeCharIndex << (6 * 2);

	shl	ecx, 12

; 821  : 
; 822  : 					tripcodeCharIndex = GET_TRIPCODE_CHAR_INDEX(context->dataBlocks, tripcodeIndex, 57, 25, 32,  0, 40,  8, 0);

	mov	eax, ebx
	or	edx, ecx
	test	DWORD PTR [r13+rdi*4+13296], r12d
	mov	ecx, ebx
	setne	cl
	mov	DWORD PTR generatedTripcodeChunkArray$[rbp-169], edx
	add	ecx, ecx
	test	DWORD PTR [r13+rdi*4+12784], r12d
	setne	al
	or	ecx, eax
	mov	eax, ebx
	add	ecx, ecx
	test	DWORD PTR [r13+rdi*4+12896], r12d
	setne	al
	or	ecx, eax
	mov	eax, ebx
	add	ecx, ecx
	test	DWORD PTR [r13+rdi*4+12384], r12d
	setne	al
	or	ecx, eax
	mov	eax, ebx
	add	ecx, ecx
	test	DWORD PTR [r13+rdi*4+13024], r12d
	setne	al
	or	ecx, eax
	mov	eax, ebx
	add	ecx, ecx
	test	DWORD PTR [r13+rdi*4+12512], r12d
	setne	al
	or	ecx, eax

; 823  : 					if (!context->tripcodeChunkBitmap[1][tripcodeCharIndex])

	cmp	BYTE PTR [rcx+r13+15616], bl
	je	$LN748@SearchForT

; 824  : 						goto skip_final_permutation;
; 825  : 					generatedTripcodeChunkArray[0] |= tripcodeCharIndex << (6 * 1);

	shl	ecx, 6

; 826  : 
; 827  : 					tripcodeCharIndex = GET_TRIPCODE_CHAR_INDEX_LAST(context->dataBlocks, tripcodeIndex, 48, 16, 56, 24);

	mov	eax, ebx
	or	edx, ecx
	test	DWORD PTR [r13+rdi*4+13152], r12d
	mov	ecx, ebx
	setne	cl
	mov	DWORD PTR generatedTripcodeChunkArray$[rbp-169], edx
	add	ecx, ecx
	test	DWORD PTR [r13+rdi*4+12640], r12d
	setne	al
	or	ecx, eax
	mov	eax, ebx
	add	ecx, ecx
	test	DWORD PTR [r13+rdi*4+13280], r12d
	setne	al
	or	ecx, eax
	mov	eax, ebx
	add	ecx, ecx
	test	DWORD PTR [r13+rdi*4+12768], r12d
	setne	al
	or	ecx, eax
	shl	ecx, 2

; 828  : 					if (!context->tripcodeChunkBitmap[0][tripcodeCharIndex])

	cmp	BYTE PTR [rcx+r13+15552], bl
	je	$LN748@SearchForT

; 829  : 						goto skip_final_permutation;
; 830  : 					generatedTripcodeChunkArray[0] |= tripcodeCharIndex << (6 * 0);

	or	edx, ecx

; 831  : 
; 832  : 					QUICK_SEARCH_FOR_TRIPCODE_CHUNK(0)

	lea	rcx, OFFSET FLAT:__ImageBase
	mov	eax, edx
	mov	DWORD PTR generatedTripcodeChunkArray$[rbp-169], edx
	shr	rax, 18
	cmp	BYTE PTR ?smallChunkBitmap@@3PAEA[rax+rcx], bl
	jne	$LN748@SearchForT
	mov	edi, DWORD PTR ?numTripcodeChunk@@3IA	; numTripcodeChunk
	xor	r8d, r8d
	dec	edi
	js	$LN748@SearchForT
	npad	10
