; Listing generated by Microsoft (R) Optimizing Compiler Version 18.00.40629.0 

include listing.inc

INCLUDELIB OLDNAMES

PUBLIC	?patternFilePathArray@@3PAY0EAB@DA		; patternFilePathArray
PUBLIC	?applicationPath@@3PADA				; applicationPath
PUBLIC	?numPatternFiles@@3HA				; numPatternFiles
PUBLIC	?nameEventForTerminating@@3PADA			; nameEventForTerminating
PUBLIC	?nameMutexForPausing@@3PADA			; nameMutexForPausing
PUBLIC	?prevLineCount@@3HA				; prevLineCount
PUBLIC	?base64CharTable@@3PADA				; base64CharTable
PUBLIC	?lenTripcodeKey@@3HA				; lenTripcodeKey
PUBLIC	?applicationDirectory@@3PADA			; applicationDirectory
PUBLIC	?keyCharTable_SecondByteAndOneByte@@3PAEA	; keyCharTable_SecondByteAndOneByte
PUBLIC	?tripcodeFilePath@@3PADA			; tripcodeFilePath
PUBLIC	?openCLDeviceSearchThreadInfoArray@@3PEAUOpenCLDeviceSearchThreadInfo@@EA ; openCLDeviceSearchThreadInfoArray
PUBLIC	??_R0?AV?$_LaunchPad@V?$_Bind@$00XQ6AXPEAUCUDADeviceSearchThreadInfo@@@ZPEAU1@@std@@@std@@@8 ; std::_LaunchPad<std::_Bind<1,void,void (__cdecl*const)(CUDADeviceSearchThreadInfo * __ptr64),CUDADeviceSearchThreadInfo * __ptr64> > `RTTI Type Descriptor'
PUBLIC	??_R1A@?0A@EA@?$_LaunchPad@V?$_Bind@$00XQ6AXXZ$$$V@std@@@std@@8 ; std::_LaunchPad<std::_Bind<1,void,void (__cdecl*const)(void)> >::`RTTI Base Class Descriptor at (0,-1,0,64)'
PUBLIC	?wasSearchAbortedWithError@@3HA			; wasSearchAbortedWithError
PUBLIC	??_7?$_LaunchPad@V?$_Bind@$00XQ6AXPEAUCUDADeviceSearchThreadInfo@@@ZPEAU1@@std@@@std@@6B@ ; std::_LaunchPad<std::_Bind<1,void,void (__cdecl*const)(CUDADeviceSearchThreadInfo * __ptr64),CUDADeviceSearchThreadInfo * __ptr64> >::`vftable'
PUBLIC	?prevTotalNumGeneratedTripcodes_GPU@@3NA	; prevTotalNumGeneratedTripcodes_GPU
PUBLIC	?CUDADeviceCount@@3HA				; CUDADeviceCount
PUBLIC	??_R1A@?0A@EA@?$_LaunchPad@V?$_Bind@$00XQ6AXPEAUOpenCLDeviceSearchThreadInfo@@@ZPEAU1@@std@@@std@@8 ; std::_LaunchPad<std::_Bind<1,void,void (__cdecl*const)(OpenCLDeviceSearchThreadInfo * __ptr64),OpenCLDeviceSearchThreadInfo * __ptr64> >::`RTTI Base Class Descriptor at (0,-1,0,64)'
PUBLIC	?openCLDeviceCount@@3HA				; openCLDeviceCount
PUBLIC	??_R0?AV?$_LaunchPad@V?$_Bind@$00XQ6AXPEAUOpenCLDeviceSearchThreadInfo@@@ZPEAU1@@std@@@std@@@8 ; std::_LaunchPad<std::_Bind<1,void,void (__cdecl*const)(OpenCLDeviceSearchThreadInfo * __ptr64),OpenCLDeviceSearchThreadInfo * __ptr64> > `RTTI Type Descriptor'
PUBLIC	??_R0?AV_Pad@std@@@8				; std::_Pad `RTTI Type Descriptor'
PUBLIC	??_R4?$_LaunchPad@V?$_Bind@$00XQ6AXXZ$$$V@std@@@std@@6B@ ; std::_LaunchPad<std::_Bind<1,void,void (__cdecl*const)(void)> >::`RTTI Complete Object Locator'
PUBLIC	?openCLRunChildProcesses@@3HA			; openCLRunChildProcesses
PUBLIC	??_R3_Pad@std@@8				; std::_Pad::`RTTI Class Hierarchy Descriptor'
PUBLIC	?totalNumGeneratedTripcodes_CPU@@3NA		; totalNumGeneratedTripcodes_CPU
PUBLIC	?numOneByte@@3HA				; numOneByte
PUBLIC	?prevNumValidTripcodes@@3IA			; prevNumValidTripcodes
PUBLIC	?eventForTerminating@@3PEAXEA			; eventForTerminating
PUBLIC	?numOpenCLDeviceSearchThreads@@3HA		; numOpenCLDeviceSearchThreads
PUBLIC	??_R1A@?0A@EA@_Pad@std@@8			; std::_Pad::`RTTI Base Class Descriptor at (0,-1,0,64)'
PUBLIC	?numGeneratedTripcodes_GPU@@3IA			; numGeneratedTripcodes_GPU
PUBLIC	??_R3?$_LaunchPad@V?$_Bind@$00XQ6AXPEAUCUDADeviceSearchThreadInfo@@@ZPEAU1@@std@@@std@@8 ; std::_LaunchPad<std::_Bind<1,void,void (__cdecl*const)(CUDADeviceSearchThreadInfo * __ptr64),CUDADeviceSearchThreadInfo * __ptr64> >::`RTTI Class Hierarchy Descriptor'
PUBLIC	?numGeneratedTripcodesByGPUInMillions@@3IA	; numGeneratedTripcodesByGPUInMillions
PUBLIC	?currentSpeed_CPU@@3NA				; currentSpeed_CPU
PUBLIC	??_R2_Pad@std@@8				; std::_Pad::`RTTI Base Class Array'
PUBLIC	?opencl_device_search_threads@@3PEAPEAVthread@std@@EA ; opencl_device_search_threads
PUBLIC	??_R2?$_LaunchPad@V?$_Bind@$00XQ6AXPEAUCUDADeviceSearchThreadInfo@@@ZPEAU1@@std@@@std@@8 ; std::_LaunchPad<std::_Bind<1,void,void (__cdecl*const)(CUDADeviceSearchThreadInfo * __ptr64),CUDADeviceSearchThreadInfo * __ptr64> >::`RTTI Base Class Array'
PUBLIC	?numFirstByte@@3HA				; numFirstByte
PUBLIC	?cpu_search_threads@@3PEAPEAVthread@std@@EA	; cpu_search_threads
PUBLIC	?numGeneratedTripcodes_CPU@@3IA			; numGeneratedTripcodes_CPU
PUBLIC	?totalTime@@3NA					; totalTime
PUBLIC	??_7?$_LaunchPad@V?$_Bind@$00XQ6AXPEAUOpenCLDeviceSearchThreadInfo@@@ZPEAU1@@std@@@std@@6B@ ; std::_LaunchPad<std::_Bind<1,void,void (__cdecl*const)(OpenCLDeviceSearchThreadInfo * __ptr64),OpenCLDeviceSearchThreadInfo * __ptr64> >::`vftable'
PUBLIC	?currentSpeed_thisProcess@@3NA			; currentSpeed_thisProcess
PUBLIC	??_R4?$_LaunchPad@V?$_Bind@$00XQ6AXPEAUOpenCLDeviceSearchThreadInfo@@@ZPEAU1@@std@@@std@@6B@ ; std::_LaunchPad<std::_Bind<1,void,void (__cdecl*const)(OpenCLDeviceSearchThreadInfo * __ptr64),OpenCLDeviceSearchThreadInfo * __ptr64> >::`RTTI Complete Object Locator'
PUBLIC	??_R2?$_LaunchPad@V?$_Bind@$00XQ6AXPEAUOpenCLDeviceSearchThreadInfo@@@ZPEAU1@@std@@@std@@8 ; std::_LaunchPad<std::_Bind<1,void,void (__cdecl*const)(OpenCLDeviceSearchThreadInfo * __ptr64),OpenCLDeviceSearchThreadInfo * __ptr64> >::`RTTI Base Class Array'
PUBLIC	?prevTotalNumGeneratedTripcodes@@3NA		; prevTotalNumGeneratedTripcodes
PUBLIC	?prevNumDiscardedTripcodes@@3IA			; prevNumDiscardedTripcodes
PUBLIC	?numValidTripcodes@@3IA				; numValidTripcodes
PUBLIC	??_R2?$_LaunchPad@V?$_Bind@$00XQ6AXXZ$$$V@std@@@std@@8 ; std::_LaunchPad<std::_Bind<1,void,void (__cdecl*const)(void)> >::`RTTI Base Class Array'
PUBLIC	?isSearchPaused@@3HA				; isSearchPaused
PUBLIC	??_7?$_LaunchPad@V?$_Bind@$00XQ6AXXZ$$$V@std@@@std@@6B@ ; std::_LaunchPad<std::_Bind<1,void,void (__cdecl*const)(void)> >::`vftable'
PUBLIC	?cuda_device_search_threads@@3PEAPEAVthread@std@@EA ; cuda_device_search_threads
PUBLIC	?tripcodeFile@@3PEAU_iobuf@@EA			; tripcodeFile
PUBLIC	?numCUDADeviceSearchThreads@@3HA		; numCUDADeviceSearchThreads
PUBLIC	?wasSearchTerminated@@3HA			; wasSearchTerminated
PUBLIC	?numSecondByte@@3HA				; numSecondByte
PUBLIC	?CUDADeviceSearchThreadInfoArray@@3PEAUCUDADeviceSearchThreadInfo@@EA ; CUDADeviceSearchThreadInfoArray
PUBLIC	?numGeneratedTripcodesByCPUInMillions@@3IA	; numGeneratedTripcodesByCPUInMillions
PUBLIC	?openCLDeviceIDArray@@3PEAPEAU_cl_device_id@@EA	; openCLDeviceIDArray
PUBLIC	?currentSpeed_thisProcess_GPU@@3NA		; currentSpeed_thisProcess_GPU
PUBLIC	??_R3?$_LaunchPad@V?$_Bind@$00XQ6AXXZ$$$V@std@@@std@@8 ; std::_LaunchPad<std::_Bind<1,void,void (__cdecl*const)(void)> >::`RTTI Class Hierarchy Descriptor'
PUBLIC	?totalNumGeneratedTripcodes_GPU@@3NA		; totalNumGeneratedTripcodes_GPU
PUBLIC	?totalNumGeneratedTripcodes@@3NA		; totalNumGeneratedTripcodes
PUBLIC	??_R1A@?0A@EA@?$_LaunchPad@V?$_Bind@$00XQ6AXPEAUCUDADeviceSearchThreadInfo@@@ZPEAU1@@std@@@std@@8 ; std::_LaunchPad<std::_Bind<1,void,void (__cdecl*const)(CUDADeviceSearchThreadInfo * __ptr64),CUDADeviceSearchThreadInfo * __ptr64> >::`RTTI Base Class Descriptor at (0,-1,0,64)'
PUBLIC	?maximumSpeed@@3NA				; maximumSpeed
PUBLIC	??_R3?$_LaunchPad@V?$_Bind@$00XQ6AXPEAUOpenCLDeviceSearchThreadInfo@@@ZPEAU1@@std@@@std@@8 ; std::_LaunchPad<std::_Bind<1,void,void (__cdecl*const)(OpenCLDeviceSearchThreadInfo * __ptr64),OpenCLDeviceSearchThreadInfo * __ptr64> >::`RTTI Class Hierarchy Descriptor'
PUBLIC	?numCPUSearchThreads@@3HA			; numCPUSearchThreads
PUBLIC	?numDiscardedTripcodes@@3IA			; numDiscardedTripcodes
PUBLIC	??_R4?$_LaunchPad@V?$_Bind@$00XQ6AXPEAUCUDADeviceSearchThreadInfo@@@ZPEAU1@@std@@@std@@6B@ ; std::_LaunchPad<std::_Bind<1,void,void (__cdecl*const)(CUDADeviceSearchThreadInfo * __ptr64),CUDADeviceSearchThreadInfo * __ptr64> >::`RTTI Complete Object Locator'
PUBLIC	??_R0?AV?$_LaunchPad@V?$_Bind@$00XQ6AXXZ$$$V@std@@@std@@@8 ; std::_LaunchPad<std::_Bind<1,void,void (__cdecl*const)(void)> > `RTTI Type Descriptor'
PUBLIC	?prevTotalNumGeneratedTripcodes_CPU@@3NA	; prevTotalNumGeneratedTripcodes_CPU
PUBLIC	?keyCharTable_OneByte@@3PAEA			; keyCharTable_OneByte
PUBLIC	?options@@3UOptions@@A				; options
PUBLIC	?keyCharTable_SecondByte@@3PAEA			; keyCharTable_SecondByte
PUBLIC	?lenTripcode@@3HA				; lenTripcode
PUBLIC	?keyCharTable_FirstByte@@3PAEA			; keyCharTable_FirstByte
PUBLIC	?searchMode@@3HA				; searchMode
PUBLIC	?matchingProb@@3NA				; matchingProb
PUBLIC	?searchDevice@@3HA				; searchDevice
PUBLIC	?numAverageTrialsForOneMatch@@3NA		; numAverageTrialsForOneMatch
EXTRN	getchar:PROC
EXTRN	??2@YAPEAX_KAEBUnothrow_t@std@@@Z:PROC		; operator new
EXTRN	exit:PROC
EXTRN	__imp_GetCurrentProcessId:PROC
EXTRN	__imp_ReleaseMutex:PROC
EXTRN	__imp_OpenEventW:PROC
EXTRN	__imp_CreateToolhelp32Snapshot:PROC
EXTRN	__imp_cudaGetErrorString:PROC
EXTRN	__imp_SetConsoleCursorInfo:PROC
EXTRN	__imp_Process32NextW:PROC
EXTRN	?Thread_SearchForDESTripcodesOnCUDADevice@@YAXPEAUCUDADeviceSearchThreadInfo@@@Z:PROC ; Thread_SearchForDESTripcodesOnCUDADevice
EXTRN	?terminate@@YAXXZ:PROC				; terminate
EXTRN	__imp_GetSystemInfo:PROC
EXTRN	__imp_SetConsoleCtrlHandler:PROC
EXTRN	__imp_GetConsoleScreenBufferInfo:PROC
EXTRN	_fullpath:PROC
EXTRN	__imp_Process32FirstW:PROC
EXTRN	rand_s:PROC
EXTRN	?Thread_SearchForSHA1TripcodesOnCUDADevice@@YAXPEAUCUDADeviceSearchThreadInfo@@@Z:PROC ; Thread_SearchForSHA1TripcodesOnCUDADevice
EXTRN	?Thread_SearchForDESTripcodesOnCUDADevice_Registers@@YAXPEAUCUDADeviceSearchThreadInfo@@@Z:PROC ; Thread_SearchForDESTripcodesOnCUDADevice_Registers
EXTRN	??3@YAXPEAXAEBUnothrow_t@std@@@Z:PROC		; operator delete
EXTRN	__imp_OpenMutexW:PROC
EXTRN	__imp_GetStdHandle:PROC
EXTRN	__imp_MultiByteToWideChar:PROC
EXTRN	__imp_clGetDeviceIDs:PROC
EXTRN	__imp_cudaGetDeviceProperties:PROC
EXTRN	__imp_SetConsoleCursorPosition:PROC
EXTRN	__imp_clGetPlatformInfo:PROC
EXTRN	__imp_TerminateThread:PROC
EXTRN	__imp_OpenProcess:PROC
EXTRN	?TestNewCode@@YAXXZ:PROC			; TestNewCode
EXTRN	__imp_clGetPlatformIDs:PROC
EXTRN	atoi:PROC
EXTRN	__imp_cudaGetDeviceCount:PROC
EXTRN	_Thrd_detach:PROC
EXTRN	__imp_WaitForSingleObject:PROC
EXTRN	??_U@YAPEAX_KAEBUnothrow_t@std@@@Z:PROC		; operator new[]
EXTRN	??1_Pad@std@@QEAA@XZ:PROC			; std::_Pad::~_Pad
EXTRN	??0_Pad@std@@QEAA@XZ:PROC			; std::_Pad::_Pad
EXTRN	?_Release@_Pad@std@@QEAAXXZ:PROC		; std::_Pad::_Release
EXTRN	?_Launch@_Pad@std@@QEAAXPEAU_Thrd_imp_t@@@Z:PROC ; std::_Pad::_Launch
EXTRN	?nothrow@std@@3Unothrow_t@1@B:BYTE		; std::nothrow
EXTRN	?_Throw_C_error@std@@YAXH@Z:PROC		; std::_Throw_C_error
EXTRN	?_Throw_Cpp_error@std@@YAXH@Z:PROC		; std::_Throw_Cpp_error
?patternFilePathArray@@3PAY0EAB@DA DB 040100H DUP (?)	; patternFilePathArray
?applicationPath@@3PADA DB 0401H DUP (?)		; applicationPath
	ALIGN	4

?numPatternFiles@@3HA DD 01H DUP (?)			; numPatternFiles
?nameEventForTerminating@@3PADA DB 0101H DUP (?)	; nameEventForTerminating
	ALIGN	4

?nameMutexForPausing@@3PADA DB 0101H DUP (?)		; nameMutexForPausing
	ALIGN	4

?prevLineCount@@3HA DD 01H DUP (?)			; prevLineCount
?applicationDirectory@@3PADA DB 0401H DUP (?)		; applicationDirectory
	ALIGN	4

?keyCharTable_SecondByteAndOneByte@@3PAEA DB 0200H DUP (?) ; keyCharTable_SecondByteAndOneByte
?tripcodeFilePath@@3PADA DB 0401H DUP (?)		; tripcodeFilePath
	ALIGN	8

?openCLDeviceSearchThreadInfoArray@@3PEAUOpenCLDeviceSearchThreadInfo@@EA DQ 01H DUP (?) ; openCLDeviceSearchThreadInfoArray
?wasSearchAbortedWithError@@3HA DD 01H DUP (?)		; wasSearchAbortedWithError
	ALIGN	8

?prevTotalNumGeneratedTripcodes_GPU@@3NA DQ 01H DUP (?)	; prevTotalNumGeneratedTripcodes_GPU
?CUDADeviceCount@@3HA DD 01H DUP (?)			; CUDADeviceCount
?openCLDeviceCount@@3HA DD 01H DUP (?)			; openCLDeviceCount
?openCLRunChildProcesses@@3HA DD 01H DUP (?)		; openCLRunChildProcesses
	ALIGN	8

?totalNumGeneratedTripcodes_CPU@@3NA DQ 01H DUP (?)	; totalNumGeneratedTripcodes_CPU
?numOneByte@@3HA DD 01H DUP (?)				; numOneByte
?prevNumValidTripcodes@@3IA DD 01H DUP (?)		; prevNumValidTripcodes
?eventForTerminating@@3PEAXEA DQ 01H DUP (?)		; eventForTerminating
?numOpenCLDeviceSearchThreads@@3HA DD 01H DUP (?)	; numOpenCLDeviceSearchThreads
?numGeneratedTripcodes_GPU@@3IA DD 01H DUP (?)		; numGeneratedTripcodes_GPU
?numGeneratedTripcodesByGPUInMillions@@3IA DD 01H DUP (?) ; numGeneratedTripcodesByGPUInMillions
	ALIGN	8

?currentSpeed_CPU@@3NA DQ 01H DUP (?)			; currentSpeed_CPU
?opencl_device_search_threads@@3PEAPEAVthread@std@@EA DQ 01H DUP (?) ; opencl_device_search_threads
?numFirstByte@@3HA DD 01H DUP (?)			; numFirstByte
	ALIGN	8

?cpu_search_threads@@3PEAPEAVthread@std@@EA DQ 01H DUP (?) ; cpu_search_threads
?numGeneratedTripcodes_CPU@@3IA DD 01H DUP (?)		; numGeneratedTripcodes_CPU
	ALIGN	8

?totalTime@@3NA DQ 01H DUP (?)				; totalTime
?currentSpeed_thisProcess@@3NA DQ 01H DUP (?)		; currentSpeed_thisProcess
?prevTotalNumGeneratedTripcodes@@3NA DQ 01H DUP (?)	; prevTotalNumGeneratedTripcodes
?prevNumDiscardedTripcodes@@3IA DD 01H DUP (?)		; prevNumDiscardedTripcodes
?numValidTripcodes@@3IA DD 01H DUP (?)			; numValidTripcodes
?isSearchPaused@@3HA DD 01H DUP (?)			; isSearchPaused
	ALIGN	8

?cuda_device_search_threads@@3PEAPEAVthread@std@@EA DQ 01H DUP (?) ; cuda_device_search_threads
?tripcodeFile@@3PEAU_iobuf@@EA DQ 01H DUP (?)		; tripcodeFile
?numCUDADeviceSearchThreads@@3HA DD 01H DUP (?)		; numCUDADeviceSearchThreads
?wasSearchTerminated@@3HA DD 01H DUP (?)		; wasSearchTerminated
?numSecondByte@@3HA DD 01H DUP (?)			; numSecondByte
	ALIGN	8

?CUDADeviceSearchThreadInfoArray@@3PEAUCUDADeviceSearchThreadInfo@@EA DQ 01H DUP (?) ; CUDADeviceSearchThreadInfoArray
?numGeneratedTripcodesByCPUInMillions@@3IA DD 01H DUP (?) ; numGeneratedTripcodesByCPUInMillions
nameEventForTerminatingWC DW 0101H DUP (?)
	ALIGN	8

?openCLDeviceIDArray@@3PEAPEAU_cl_device_id@@EA DQ 01H DUP (?) ; openCLDeviceIDArray
?currentSpeed_thisProcess_GPU@@3NA DQ 01H DUP (?)	; currentSpeed_thisProcess_GPU
?totalNumGeneratedTripcodes_GPU@@3NA DQ 01H DUP (?)	; totalNumGeneratedTripcodes_GPU
?totalNumGeneratedTripcodes@@3NA DQ 01H DUP (?)		; totalNumGeneratedTripcodes
?maximumSpeed@@3NA DQ 01H DUP (?)			; maximumSpeed
nameMutexForPausingWC DW 0101H DUP (?)
	ALIGN	4

?numCPUSearchThreads@@3HA DD 01H DUP (?)		; numCPUSearchThreads
?numDiscardedTripcodes@@3IA DD 01H DUP (?)		; numDiscardedTripcodes
	ALIGN	8

?prevTotalNumGeneratedTripcodes_CPU@@3NA DQ 01H DUP (?)	; prevTotalNumGeneratedTripcodes_CPU
?keyCharTable_OneByte@@3PAEA DB 0200H DUP (?)		; keyCharTable_OneByte
?keyCharTable_SecondByte@@3PAEA DB 0200H DUP (?)	; keyCharTable_SecondByte
?keyCharTable_FirstByte@@3PAEA DB 0200H DUP (?)		; keyCharTable_FirstByte
?matchingProb@@3NA DQ 01H DUP (?)			; matchingProb
?searchDevice@@3HA DD 01H DUP (?)			; searchDevice
	ALIGN	8

?numAverageTrialsForOneMatch@@3NA DQ 01H DUP (?)	; numAverageTrialsForOneMatch
_BSS	ENDS
;	COMDAT ??_R0?AV?$_LaunchPad@V?$_Bind@$00XQ6AXXZ$$$V@std@@@std@@@8
data$r	SEGMENT
??_R0?AV?$_LaunchPad@V?$_Bind@$00XQ6AXXZ$$$V@std@@@std@@@8 DQ FLAT:??_7type_info@@6B@ ; std::_LaunchPad<std::_Bind<1,void,void (__cdecl*const)(void)> > `RTTI Type Descriptor'
	DQ	0000000000000000H
	DB	'.?AV?$_LaunchPad@V?$_Bind@$00XQ6AXXZ$$$V@std@@@std@@', 00H
data$r	ENDS
;	COMDAT ??_R4?$_LaunchPad@V?$_Bind@$00XQ6AXPEAUCUDADeviceSearchThreadInfo@@@ZPEAU1@@std@@@std@@6B@
rdata$r	SEGMENT
??_R4?$_LaunchPad@V?$_Bind@$00XQ6AXPEAUCUDADeviceSearchThreadInfo@@@ZPEAU1@@std@@@std@@6B@ DD 01H ; std::_LaunchPad<std::_Bind<1,void,void (__cdecl*const)(CUDADeviceSearchThreadInfo * __ptr64),CUDADeviceSearchThreadInfo * __ptr64> >::`RTTI Complete Object Locator'
	DD	00H
	DD	00H
	DD	imagerel ??_R0?AV?$_LaunchPad@V?$_Bind@$00XQ6AXPEAUCUDADeviceSearchThreadInfo@@@ZPEAU1@@std@@@std@@@8
	DD	imagerel ??_R3?$_LaunchPad@V?$_Bind@$00XQ6AXPEAUCUDADeviceSearchThreadInfo@@@ZPEAU1@@std@@@std@@8
	DD	imagerel ??_R4?$_LaunchPad@V?$_Bind@$00XQ6AXPEAUCUDADeviceSearchThreadInfo@@@ZPEAU1@@std@@@std@@6B@
rdata$r	ENDS
;	COMDAT ??_R3?$_LaunchPad@V?$_Bind@$00XQ6AXPEAUOpenCLDeviceSearchThreadInfo@@@ZPEAU1@@std@@@std@@8
rdata$r	SEGMENT
??_R3?$_LaunchPad@V?$_Bind@$00XQ6AXPEAUOpenCLDeviceSearchThreadInfo@@@ZPEAU1@@std@@@std@@8 DD 00H ; std::_LaunchPad<std::_Bind<1,void,void (__cdecl*const)(OpenCLDeviceSearchThreadInfo * __ptr64),OpenCLDeviceSearchThreadInfo * __ptr64> >::`RTTI Class Hierarchy Descriptor'
	DD	00H
	DD	02H
	DD	imagerel ??_R2?$_LaunchPad@V?$_Bind@$00XQ6AXPEAUOpenCLDeviceSearchThreadInfo@@@ZPEAU1@@std@@@std@@8
rdata$r	ENDS
;	COMDAT ??_R1A@?0A@EA@?$_LaunchPad@V?$_Bind@$00XQ6AXPEAUCUDADeviceSearchThreadInfo@@@ZPEAU1@@std@@@std@@8
rdata$r	SEGMENT
??_R1A@?0A@EA@?$_LaunchPad@V?$_Bind@$00XQ6AXPEAUCUDADeviceSearchThreadInfo@@@ZPEAU1@@std@@@std@@8 DD imagerel ??_R0?AV?$_LaunchPad@V?$_Bind@$00XQ6AXPEAUCUDADeviceSearchThreadInfo@@@ZPEAU1@@std@@@std@@@8 ; std::_LaunchPad<std::_Bind<1,void,void (__cdecl*const)(CUDADeviceSearchThreadInfo * __ptr64),CUDADeviceSearchThreadInfo * __ptr64> >::`RTTI Base Class Descriptor at (0,-1,0,64)'
	DD	01H
	DD	00H
	DD	0ffffffffH
	DD	00H
	DD	040H
	DD	imagerel ??_R3?$_LaunchPad@V?$_Bind@$00XQ6AXPEAUCUDADeviceSearchThreadInfo@@@ZPEAU1@@std@@@std@@8
rdata$r	ENDS
;	COMDAT ??_R3?$_LaunchPad@V?$_Bind@$00XQ6AXXZ$$$V@std@@@std@@8
rdata$r	SEGMENT
??_R3?$_LaunchPad@V?$_Bind@$00XQ6AXXZ$$$V@std@@@std@@8 DD 00H ; std::_LaunchPad<std::_Bind<1,void,void (__cdecl*const)(void)> >::`RTTI Class Hierarchy Descriptor'
	DD	00H
	DD	02H
	DD	imagerel ??_R2?$_LaunchPad@V?$_Bind@$00XQ6AXXZ$$$V@std@@@std@@8
rdata$r	ENDS
;	COMDAT ??_7?$_LaunchPad@V?$_Bind@$00XQ6AXXZ$$$V@std@@@std@@6B@
CONST	SEGMENT
??_7?$_LaunchPad@V?$_Bind@$00XQ6AXXZ$$$V@std@@@std@@6B@ DQ FLAT:??_R4?$_LaunchPad@V?$_Bind@$00XQ6AXXZ$$$V@std@@@std@@6B@ ; std::_LaunchPad<std::_Bind<1,void,void (__cdecl*const)(void)> >::`vftable'
	DQ	FLAT:?_Go@?$_LaunchPad@V?$_Bind@$00XQ6AXXZ$$$V@std@@@std@@UEAAIXZ
CONST	ENDS
;	COMDAT ??_R2?$_LaunchPad@V?$_Bind@$00XQ6AXXZ$$$V@std@@@std@@8
rdata$r	SEGMENT
??_R2?$_LaunchPad@V?$_Bind@$00XQ6AXXZ$$$V@std@@@std@@8 DD imagerel ??_R1A@?0A@EA@?$_LaunchPad@V?$_Bind@$00XQ6AXXZ$$$V@std@@@std@@8 ; std::_LaunchPad<std::_Bind<1,void,void (__cdecl*const)(void)> >::`RTTI Base Class Array'
	DD	imagerel ??_R1A@?0A@EA@_Pad@std@@8
	ORG $+3
rdata$r	ENDS
;	COMDAT ??_R2?$_LaunchPad@V?$_Bind@$00XQ6AXPEAUOpenCLDeviceSearchThreadInfo@@@ZPEAU1@@std@@@std@@8
rdata$r	SEGMENT
??_R2?$_LaunchPad@V?$_Bind@$00XQ6AXPEAUOpenCLDeviceSearchThreadInfo@@@ZPEAU1@@std@@@std@@8 DD imagerel ??_R1A@?0A@EA@?$_LaunchPad@V?$_Bind@$00XQ6AXPEAUOpenCLDeviceSearchThreadInfo@@@ZPEAU1@@std@@@std@@8 ; std::_LaunchPad<std::_Bind<1,void,void (__cdecl*const)(OpenCLDeviceSearchThreadInfo * __ptr64),OpenCLDeviceSearchThreadInfo * __ptr64> >::`RTTI Base Class Array'
	DD	imagerel ??_R1A@?0A@EA@_Pad@std@@8
	ORG $+3
rdata$r	ENDS
;	COMDAT ??_R4?$_LaunchPad@V?$_Bind@$00XQ6AXPEAUOpenCLDeviceSearchThreadInfo@@@ZPEAU1@@std@@@std@@6B@
rdata$r	SEGMENT
??_R4?$_LaunchPad@V?$_Bind@$00XQ6AXPEAUOpenCLDeviceSearchThreadInfo@@@ZPEAU1@@std@@@std@@6B@ DD 01H ; std::_LaunchPad<std::_Bind<1,void,void (__cdecl*const)(OpenCLDeviceSearchThreadInfo * __ptr64),OpenCLDeviceSearchThreadInfo * __ptr64> >::`RTTI Complete Object Locator'
	DD	00H
	DD	00H
	DD	imagerel ??_R0?AV?$_LaunchPad@V?$_Bind@$00XQ6AXPEAUOpenCLDeviceSearchThreadInfo@@@ZPEAU1@@std@@@std@@@8
	DD	imagerel ??_R3?$_LaunchPad@V?$_Bind@$00XQ6AXPEAUOpenCLDeviceSearchThreadInfo@@@ZPEAU1@@std@@@std@@8
	DD	imagerel ??_R4?$_LaunchPad@V?$_Bind@$00XQ6AXPEAUOpenCLDeviceSearchThreadInfo@@@ZPEAU1@@std@@@std@@6B@
rdata$r	ENDS
;	COMDAT ??_7?$_LaunchPad@V?$_Bind@$00XQ6AXPEAUOpenCLDeviceSearchThreadInfo@@@ZPEAU1@@std@@@std@@6B@
CONST	SEGMENT
??_7?$_LaunchPad@V?$_Bind@$00XQ6AXPEAUOpenCLDeviceSearchThreadInfo@@@ZPEAU1@@std@@@std@@6B@ DQ FLAT:??_R4?$_LaunchPad@V?$_Bind@$00XQ6AXPEAUOpenCLDeviceSearchThreadInfo@@@ZPEAU1@@std@@@std@@6B@ ; std::_LaunchPad<std::_Bind<1,void,void (__cdecl*const)(OpenCLDeviceSearchThreadInfo * __ptr64),OpenCLDeviceSearchThreadInfo * __ptr64> >::`vftable'
	DQ	FLAT:?_Go@?$_LaunchPad@V?$_Bind@$00XQ6AXPEAUOpenCLDeviceSearchThreadInfo@@@ZPEAU1@@std@@@std@@UEAAIXZ
CONST	ENDS
;	COMDAT ??_R2?$_LaunchPad@V?$_Bind@$00XQ6AXPEAUCUDADeviceSearchThreadInfo@@@ZPEAU1@@std@@@std@@8
rdata$r	SEGMENT
??_R2?$_LaunchPad@V?$_Bind@$00XQ6AXPEAUCUDADeviceSearchThreadInfo@@@ZPEAU1@@std@@@std@@8 DD imagerel ??_R1A@?0A@EA@?$_LaunchPad@V?$_Bind@$00XQ6AXPEAUCUDADeviceSearchThreadInfo@@@ZPEAU1@@std@@@std@@8 ; std::_LaunchPad<std::_Bind<1,void,void (__cdecl*const)(CUDADeviceSearchThreadInfo * __ptr64),CUDADeviceSearchThreadInfo * __ptr64> >::`RTTI Base Class Array'
	DD	imagerel ??_R1A@?0A@EA@_Pad@std@@8
	ORG $+3
rdata$r	ENDS
;	COMDAT ??_R2_Pad@std@@8
rdata$r	SEGMENT
??_R2_Pad@std@@8 DD imagerel ??_R1A@?0A@EA@_Pad@std@@8	; std::_Pad::`RTTI Base Class Array'
	ORG $+3
rdata$r	ENDS
;	COMDAT ??_R3?$_LaunchPad@V?$_Bind@$00XQ6AXPEAUCUDADeviceSearchThreadInfo@@@ZPEAU1@@std@@@std@@8
rdata$r	SEGMENT
??_R3?$_LaunchPad@V?$_Bind@$00XQ6AXPEAUCUDADeviceSearchThreadInfo@@@ZPEAU1@@std@@@std@@8 DD 00H ; std::_LaunchPad<std::_Bind<1,void,void (__cdecl*const)(CUDADeviceSearchThreadInfo * __ptr64),CUDADeviceSearchThreadInfo * __ptr64> >::`RTTI Class Hierarchy Descriptor'
	DD	00H
	DD	02H
	DD	imagerel ??_R2?$_LaunchPad@V?$_Bind@$00XQ6AXPEAUCUDADeviceSearchThreadInfo@@@ZPEAU1@@std@@@std@@8
rdata$r	ENDS
;	COMDAT ??_R1A@?0A@EA@_Pad@std@@8
rdata$r	SEGMENT
??_R1A@?0A@EA@_Pad@std@@8 DD imagerel ??_R0?AV_Pad@std@@@8 ; std::_Pad::`RTTI Base Class Descriptor at (0,-1,0,64)'
	DD	00H
	DD	00H
	DD	0ffffffffH
	DD	00H
	DD	040H
	DD	imagerel ??_R3_Pad@std@@8
rdata$r	ENDS
;	COMDAT ??_R3_Pad@std@@8
rdata$r	SEGMENT
??_R3_Pad@std@@8 DD 00H					; std::_Pad::`RTTI Class Hierarchy Descriptor'
	DD	00H
	DD	01H
	DD	imagerel ??_R2_Pad@std@@8
rdata$r	ENDS
;	COMDAT ??_R4?$_LaunchPad@V?$_Bind@$00XQ6AXXZ$$$V@std@@@std@@6B@
rdata$r	SEGMENT
??_R4?$_LaunchPad@V?$_Bind@$00XQ6AXXZ$$$V@std@@@std@@6B@ DD 01H ; std::_LaunchPad<std::_Bind<1,void,void (__cdecl*const)(void)> >::`RTTI Complete Object Locator'
	DD	00H
	DD	00H
	DD	imagerel ??_R0?AV?$_LaunchPad@V?$_Bind@$00XQ6AXXZ$$$V@std@@@std@@@8
	DD	imagerel ??_R3?$_LaunchPad@V?$_Bind@$00XQ6AXXZ$$$V@std@@@std@@8
	DD	imagerel ??_R4?$_LaunchPad@V?$_Bind@$00XQ6AXXZ$$$V@std@@@std@@6B@
rdata$r	ENDS
;	COMDAT ??_R0?AV_Pad@std@@@8
data$r	SEGMENT
??_R0?AV_Pad@std@@@8 DQ FLAT:??_7type_info@@6B@		; std::_Pad `RTTI Type Descriptor'
	DQ	0000000000000000H
	DB	'.?AV_Pad@std@@', 00H
data$r	ENDS
;	COMDAT ??_R0?AV?$_LaunchPad@V?$_Bind@$00XQ6AXPEAUOpenCLDeviceSearchThreadInfo@@@ZPEAU1@@std@@@std@@@8
data$r	SEGMENT
??_R0?AV?$_LaunchPad@V?$_Bind@$00XQ6AXPEAUOpenCLDeviceSearchThreadInfo@@@ZPEAU1@@std@@@std@@@8 DQ FLAT:??_7type_info@@6B@ ; std::_LaunchPad<std::_Bind<1,void,void (__cdecl*const)(OpenCLDeviceSearchThreadInfo * __ptr64),OpenCLDeviceSearchThreadInfo * __ptr64> > `RTTI Type Descriptor'
	DQ	0000000000000000H
	DB	'.?AV?$_LaunchPad@V?$_Bind@$00XQ6AXPEAUOpenCLDeviceSearch'
	DB	'ThreadInfo@@@ZPEAU1@@std@@@std@@', 00H
data$r	ENDS
;	COMDAT ??_R1A@?0A@EA@?$_LaunchPad@V?$_Bind@$00XQ6AXPEAUOpenCLDeviceSearchThreadInfo@@@ZPEAU1@@std@@@std@@8
rdata$r	SEGMENT
??_R1A@?0A@EA@?$_LaunchPad@V?$_Bind@$00XQ6AXPEAUOpenCLDeviceSearchThreadInfo@@@ZPEAU1@@std@@@std@@8 DD imagerel ??_R0?AV?$_LaunchPad@V?$_Bind@$00XQ6AXPEAUOpenCLDeviceSearchThreadInfo@@@ZPEAU1@@std@@@std@@@8 ; std::_LaunchPad<std::_Bind<1,void,void (__cdecl*const)(OpenCLDeviceSearchThreadInfo * __ptr64),OpenCLDeviceSearchThreadInfo * __ptr64> >::`RTTI Base Class Descriptor at (0,-1,0,64)'
	DD	01H
	DD	00H
	DD	0ffffffffH
	DD	00H
	DD	040H
	DD	imagerel ??_R3?$_LaunchPad@V?$_Bind@$00XQ6AXPEAUOpenCLDeviceSearchThreadInfo@@@ZPEAU1@@std@@@std@@8
rdata$r	ENDS
;	COMDAT ??_7?$_LaunchPad@V?$_Bind@$00XQ6AXPEAUCUDADeviceSearchThreadInfo@@@ZPEAU1@@std@@@std@@6B@
CONST	SEGMENT
??_7?$_LaunchPad@V?$_Bind@$00XQ6AXPEAUCUDADeviceSearchThreadInfo@@@ZPEAU1@@std@@@std@@6B@ DQ FLAT:??_R4?$_LaunchPad@V?$_Bind@$00XQ6AXPEAUCUDADeviceSearchThreadInfo@@@ZPEAU1@@std@@@std@@6B@ ; std::_LaunchPad<std::_Bind<1,void,void (__cdecl*const)(CUDADeviceSearchThreadInfo * __ptr64),CUDADeviceSearchThreadInfo * __ptr64> >::`vftable'
	DQ	FLAT:?_Go@?$_LaunchPad@V?$_Bind@$00XQ6AXPEAUCUDADeviceSearchThreadInfo@@@ZPEAU1@@std@@@std@@UEAAIXZ
CONST	ENDS
;	COMDAT ??_R1A@?0A@EA@?$_LaunchPad@V?$_Bind@$00XQ6AXXZ$$$V@std@@@std@@8
rdata$r	SEGMENT
??_R1A@?0A@EA@?$_LaunchPad@V?$_Bind@$00XQ6AXXZ$$$V@std@@@std@@8 DD imagerel ??_R0?AV?$_LaunchPad@V?$_Bind@$00XQ6AXXZ$$$V@std@@@std@@@8 ; std::_LaunchPad<std::_Bind<1,void,void (__cdecl*const)(void)> >::`RTTI Base Class Descriptor at (0,-1,0,64)'
	DD	01H
	DD	00H
	DD	0ffffffffH
	DD	00H
	DD	040H
	DD	imagerel ??_R3?$_LaunchPad@V?$_Bind@$00XQ6AXXZ$$$V@std@@@std@@8
rdata$r	ENDS
;	COMDAT ??_R0?AV?$_LaunchPad@V?$_Bind@$00XQ6AXPEAUCUDADeviceSearchThreadInfo@@@ZPEAU1@@std@@@std@@@8
data$r	SEGMENT
??_R0?AV?$_LaunchPad@V?$_Bind@$00XQ6AXPEAUCUDADeviceSearchThreadInfo@@@ZPEAU1@@std@@@std@@@8 DQ FLAT:??_7type_info@@6B@ ; std::_LaunchPad<std::_Bind<1,void,void (__cdecl*const)(CUDADeviceSearchThreadInfo * __ptr64),CUDADeviceSearchThreadInfo * __ptr64> > `RTTI Type Descriptor'
	DQ	0000000000000000H
	DB	'.?AV?$_LaunchPad@V?$_Bind@$00XQ6AXPEAUCUDADeviceSearchTh'
	DB	'readInfo@@@ZPEAU1@@std@@@std@@', 00H
	ORG $+5
?base64CharTable@@3PADA DB 041H				; base64CharTable
	DB	042H
	DB	043H
	DB	044H
	DB	045H
	DB	046H
	DB	047H
	DB	048H
	DB	049H
	DB	04aH
	DB	04bH
	DB	04cH
	DB	04dH
	DB	04eH
	DB	04fH
	DB	050H
	DB	051H
	DB	052H
	DB	053H
	DB	054H
	DB	055H
	DB	056H
	DB	057H
	DB	058H
	DB	059H
	DB	05aH
	DB	061H
	DB	062H
	DB	063H
	DB	064H
	DB	065H
	DB	066H
	DB	067H
	DB	068H
	DB	069H
	DB	06aH
	DB	06bH
	DB	06cH
	DB	06dH
	DB	06eH
	DB	06fH
	DB	070H
	DB	071H
	DB	072H
	DB	073H
	DB	074H
	DB	075H
	DB	076H
	DB	077H
	DB	078H
	DB	079H
	DB	07aH
	DB	030H
	DB	031H
	DB	032H
	DB	033H
	DB	034H
	DB	035H
	DB	036H
	DB	037H
	DB	038H
	DB	039H
	DB	02eH
	DB	02fH
?lenTripcodeKey@@3HA DD 0aH				; lenTripcodeKey
?lenTripcode@@3HA DD 0aH				; lenTripcode
?searchMode@@3HA DD 0ffffffffH				; searchMode
	ORG $+4
?options@@3UOptions@@A DD 0ffffffffH			; options
	DD	080H
	DD	00H
	DD	00H
	DD	00H
	DD	00H
	DD	00H
	DD	0ffffffffH
	DD	00H
	DD	00H
	DD	00H
	DD	02H
	DD	01H
	DD	00H
	DD	00H
	DD	00H
	DD	00H
	DD	00H
	DD	00H
	DD	00H
	DD	01H
	DD	01H
	DD	00H
	DD	01H
	DD	01H
	DD	02H
	DD	01H
	DD	01H
$SG4294856977 DB 00H
$SG4294856961 DB 00H
$SG4294856959 DB 00H
$SG4294856954 DB 00H
$SG4294856952 DB 00H
$SG4294856944 DB 00H
$SG4294856929 DB 00H
$SG4294856927 DB 00H
$SG4294856918 DB 00H
$SG4294857012 DB '%d', 0aH, 00H
	ORG $+1
$SG4294857008 DB '%d', 0aH, 00H
	ORG $+1
$SG4294857004 DB '%d', 0aH, 00H
$SG4294856992 DB 0aH, 00H
$SG4294856991 DB '%d', 0aH, 00H
	ORG $+1
$SG4294856987 DB '%d', 0aH, 00H
$SG4294856982 DB '%d', 0aH, 00H
	ORG $+1
$SG4294856971 DB 'CPU', 00H
$SG4294856962 DB ':', 00H
	ORG $+1
$SG4294856963 DB '.', 00H
$SG4294856960 DB 's', 00H
	ORG $+1
$SG4294856958 DB 's', 00H
$SG4294856956 DB '.', 00H
	ORG $+1
$SG4294856955 DB ':', 00H
	ORG $+1
$SG4294856953 DB 's', 00H
$SG4294856951 DB 's', 00H
$SG4294856926 DB 'es', 00H
	ORG $+1
$SG4294856919 DB '+', 00H
	ORG $+1
$SG4294856914 DB '%d', 0aH, 00H
$SG4294856911 DB '%d', 0aH, 00H
$SG4294856905 DB '%d', 0aH, 00H
	ORG $+1
$SG4294856902 DB '%d', 0aH, 00H
$SG4294856898 DB '%d', 0aH, 00H
	ORG $+1
$SG4294856895 DB '%d', 0aH, 00H
$SG4294856891 DB '%d', 0aH, 00H
	ORG $+1
$SG4294856887 DB '%d', 0aH, 00H
	ORG $+1
$SG4294856878 DB '%s ', 00H
$SG4294856876 DB '%s', 00H
	ORG $+1
$SG4294856877 DB '%s', 00H
	ORG $+1
$SG4294856874 DB '%d', 0aH, 00H
$SG4294856870 DB '%d', 0aH, 00H
	ORG $+1
$SG4294856850 DB 0aH, 00H
	ORG $+1
$SG4294856844 DB '%d', 0aH, 00H
$SG4294856840 DB '%d', 0aH, 00H
	ORG $+1
$SG4294856836 DB '%d', 0aH, 00H
	ORG $+1
$SG4294856832 DB '%d', 0aH, 00H
$SG4294856828 DB '%d', 0aH, 00H
	ORG $+1
$SG4294856824 DB '%d', 0aH, 00H
	ORG $+1
$SG4294856820 DB '%d', 0aH, 00H
$SG4294856816 DB '%d', 0aH, 00H
	ORG $+1
$SG4294856803 DB 0aH, 00H
	ORG $+1
$SG4294856796 DB 0aH, 00H
$SG4294856794 DB '-o', 00H
	ORG $+1
$SG4294856788 DB '-f', 00H
	ORG $+1
$SG4294856782 DB '%d', 0aH, 00H
$SG4294856778 DB '-d', 00H
	ORG $+1
$SG4294856777 DB '-x', 00H
	ORG $+1
$SG4294856766 DB '-y', 00H
$SG4294856755 DB '-z', 00H
	ORG $+1
$SG4294856744 DB '%d', 0aH, 00H
	ORG $+1
$SG4294856740 DB '-a', 00H
$SG4294856729 DB '-b', 00H
	ORG $+1
$SG4294856718 DB '-l', 00H
	ORG $+1
$SG4294856717 DB '%d', 0aH, 00H
$SG4294856712 DB '-i', 00H
	ORG $+1
$SG4294856713 DB '-b', 00H
	ORG $+1
$SG4294856710 DB '-n', 00H
$SG4294856711 DB '-w', 00H
	ORG $+1
$SG4294856708 DB '-g', 00H
	ORG $+1
$SG4294856709 DB '-c', 00H
$SG4294856706 DB '%d', 0aH, 00H
	ORG $+1
$SG4294856707 DB '-t', 00H
	ORG $+1
$SG4294856700 DB '-E', 00H
$SG4294856701 DB '-e', 00H
	ORG $+1
$SG4294856680 DB '%d', 0aH, 00H
	ORG $+1
$SG4294856675 DB '%d', 0aH, 00H
$SG4294856671 DB '%d', 0aH, 00H
	ORG $+1
$SG4294856666 DB '%c', 00H
	ORG $+1
$SG4294856667 DB '!', 00H
$SG4294856664 DB '%c', 00H
	ORG $+1
$SG4294856665 DB ' #', 00H
	ORG $+1
$SG4294856663 DB ' (', 00H
$SG4294856660 DB ')', 0aH, 00H
	ORG $+1
$SG4294856661 DB ' ', 00H
	ORG $+1
$SG4294856658 DB '%c', 00H
$SG4294856659 DB '  !', 00H
	ORG $+1
$SG4294856656 DB '%c', 00H
	ORG $+2
$SG4294856975 DB 'STATUS', 00H
	ORG $+1
$SG4294856657 DB ' #', 00H
$SG4294856655 DB ' (', 00H
	ORG $+2
$SG4294856973 DB '======', 00H
	ORG $+1
$SG4294856652 DB ')', 00H
	ORG $+2
$SG4294856970 DB 'GPU(s)', 00H
	ORG $+1
$SG4294856653 DB ' ', 00H
$SG4294856650 DB 0aH, 00H
	ORG $+2
$SG4294856920 DB '%-79s', 0aH, 00H
	ORG $+1
$SG4294856651 DB ' ', 00H
	ORG $+3
$SG4294856976 DB '%-79s', 00H
	ORG $+2
$SG4294856793 DB '%d,%s', 0aH, 00H
	ORG $+1
$SG4294856648 DB '%c', 00H
$SG4294856646 DB '%c', 00H
	ORG $+3
$SG4294856974 DB '%-79s', 00H
	ORG $+2
$SG4294856787 DB '%d,%s', 0aH, 00H
	ORG $+1
$SG4294856647 DB ',#', 00H
	ORG $+2
$SG4294856776 DB '%d,%s', 0aH, 00H
	ORG $+1
$SG4294856645 DB ',(', 00H
$SG4294856642 DB ')', 0aH, 00H
	ORG $+2
$SG4294856771 DB '%d,%s', 0aH, 00H
	ORG $+1
$SG4294856643 DB ' ', 00H
	ORG $+3
$SG4294856972 DB '%-79s', 00H
	ORG $+2
$SG4294856765 DB '%d,%s', 0aH, 00H
	ORG $+1
$SG4294856640 DB '!', 00H
$SG4294856641 DB 07H, 00H
	ORG $+3
$SG4294856760 DB '%d,%s', 0aH, 00H
	ORG $+1
$SG4294856638 DB '  ', 00H
	ORG $+2
$SG4294856754 DB '%d,%s', 0aH, 00H
	ORG $+1
$SG4294856639 DB '%c', 00H
$SG4294856636 DB ' (', 00H
	ORG $+2
$SG4294856749 DB '%d,%s', 0aH, 00H
	ORG $+1
$SG4294856637 DB ' ', 00H
	ORG $+3
$SG4294856739 DB '%d,%s', 0aH, 00H
	ORG $+1
$SG4294856634 DB ' ', 00H
	ORG $+2
$SG4294856734 DB '%d,%s', 0aH, 00H
	ORG $+1
$SG4294856632 DB '  !', 00H
	ORG $+2
$SG4294856728 DB '%d,%s', 0aH, 00H
	ORG $+1
$SG4294856633 DB ')', 0aH, 00H
	ORG $+3
$SG4294856723 DB '%d,%s', 0aH, 00H
	ORG $+1
$SG4294856630 DB '  ', 00H
	ORG $+3
$SG4294856631 DB '%c', 00H
	ORG $+2
$SG4294856628 DB ' (', 00H
	ORG $+2
$SG4294856629 DB ' ', 00H
	ORG $+2
$SG4294856626 DB ' ', 00H
	ORG $+2
$SG4294856624 DB ' ', 00H
$SG4294856625 DB ')', 00H
	ORG $+3
$SG4294856622 DB 'a', 00H
	ORG $+2
$SG4294856623 DB 0aH, 00H
$SG4294856621 DB '%d', 0aH, 00H
	ORG $+2
$SG4294856617 DB '%d', 0aH, 00H
	ORG $+3
$SG4294856613 DB '%d', 0aH, 00H
$SG4294856609 DB '%d', 0aH, 00H
	ORG $+3
$SG4294856606 DB '%d', 0aH, 00H
	ORG $+2
$SG4294856603 DB '%d', 0aH, 00H
$SG4294856599 DB '%d', 0aH, 00H
	ORG $+2
$SG4294856595 DB '%d', 0aH, 00H
	ORG $+3
$SG4294856591 DB '%d', 0aH, 00H
$SG4294856587 DB '%d', 0aH, 00H
	ORG $+3
$SG4294856583 DB '%d', 0aH, 00H
	ORG $+2
$SG4294856579 DB '%d', 0aH, 00H
$SG4294856575 DB '%d', 0aH, 00H
	ORG $+2
$SG4294856571 DB '%d', 0aH, 00H
	ORG $+3
$SG4294856568 DB '%d', 0aH, 00H
$SG4294856565 DB '%d', 0aH, 00H
	ORG $+3
$SG4294856561 DB '%d', 0aH, 00H
	ORG $+2
$SG4294856557 DB '%d', 0aH, 00H
$SG4294856553 DB '%d', 0aH, 00H
	ORG $+2
$SG4294856549 DB '%d', 0aH, 00H
	ORG $+3
$SG4294856545 DB '%d', 0aH, 00H
$SG4294856541 DB '%d', 0aH, 00H
	ORG $+3
$SG4294856537 DB '%d', 0aH, 00H
	ORG $+2
$SG4294856533 DB '%d', 0aH, 00H
$SG4294856529 DB '%d', 0aH, 00H
	ORG $+2
$SG4294856525 DB '%d', 0aH, 00H
	ORG $+3
$SG4294856521 DB '%d', 0aH, 00H
$SG4294856517 DB '%d', 0aH, 00H
	ORG $+3
$SG4294856514 DB '%d', 0aH, 00H
	ORG $+2
$SG4294856510 DB '%d', 0aH, 00H
$SG4294856500 DB '%d', 0aH, 00H
	ORG $+2
$SG4294856493 DB 07H, 00H
$SG4294857038 DB 'ERROR_INVALID_REGEX', 00H
	ORG $+4
$SG4294857039 DB 'ERROR_INVALID_TARGET_PATTERN', 00H
	ORG $+3
$SG4294857036 DB 'ERROR_PATTERN_TOO_SHORT', 00H
$SG4294857037 DB 'ERROR_PATTERN_TOO_LONG', 00H
	ORG $+1
$SG4294857034 DB 'ERROR_NO_MEMORY', 00H
$SG4294857035 DB 'CUDA fucnction call failed.', 00H
	ORG $+4
$SG4294857032 DB 'ERROR_IGNORE_DIRECTIVE', 00H
	ORG $+1
$SG4294857033 DB 'ERROR_PATTERN_FILE', 00H
	ORG $+5
$SG4294857030 DB 'ERROR_CRYPTOGRAPHIC_SERVICE', 00H
	ORG $+4
$SG4294857031 DB 'ERROR_NO_TARGET_PATTERNS', 00H
	ORG $+7
$SG4294857028 DB 'ERROR_TRIPCODE_FILE', 00H
	ORG $+4
$SG4294857029 DB 'ERROR_INVALID_OPTION', 00H
	ORG $+3
$SG4294857026 DB 'ERROR_MUTEX', 00H
	ORG $+4
$SG4294857027 DB 'ERROR_SEARCH_THREAD', 00H
	ORG $+4
$SG4294857024 DB 'OpenCL fucnction call failed.', 00H
	ORG $+2
$SG4294857025 DB 'Assertion failed.', 00H
	ORG $+6
$SG4294857022 DB 'ERROR_SHA1', 00H
	ORG $+5
$SG4294857023 DB 'ERROR_DES', 00H
	ORG $+6
$SG4294857020 DB 'ERROR_CHILD_PROCESS', 00H
	ORG $+4
$SG4294857021 DB 'ERROR_INTEL_HD_GRAPHICS', 00H
$SG4294857018 DB 'ERROR_EVENT', 00H
	ORG $+4
$SG4294857019 DB 'A corrupt tripcode was generated.', 0aH, '  The hardwar'
	DB	'e or device driver may be malfunctioning.', 0aH, '  Please ch'
	DB	'eck the temperatures of CPU(s) and GPU(s).', 00H
	ORG $+1
$SG4294857016 DB 'GCN assembler failed.', 00H
	ORG $+2
$SG4294857017 DB 'ERROR_SEARCH_THREAD_UNRESPONSIVE', 00H
	ORG $+7
$SG4294857014 DB 'MerikensTripcodeEngine', 00H
	ORG $+1
$SG4294857015 DB 'ERROR_UNKNOWN', 00H
	ORG $+2
$SG4294857010 DB '..\SourceFiles\Main.cpp', 00H
$SG4294857013 DB 'Usage: %s [-c] [-g] [-d device_no] [-x blocks_per_SM] ['
	DB	'-y global_work_size] [-z local_work_size] [-o tripcode_file] '
	DB	'[-f pattern_file] [-i] [-w]', 0aH, 00H
	ORG $+7
$SG4294857011 DB '[error],%d', 0aH, 00H
$SG4294856882 DB 'AMD ', 00H
	ORG $+7
$SG4294857009 DB 0aH, 'ERROR', 0aH, '=====', 0aH, '  Assertion Failed: fi'
	DB	'le %s, line %d', 0aH, 07H, 0aH, '  Hit any key to exit.', 00H
	ORG $+5
$SG4294857006 DB '..\SourceFiles\Main.cpp', 00H
$SG4294857007 DB '[error],%d', 0aH, 00H
$SG4294856802 DB 'CPU', 0aH, 00H
	ORG $+7
$SG4294857005 DB 0aH, 'ERROR', 0aH, '=====', 0aH, '  Assertion Failed: fi'
	DB	'le %s, line %d', 0aH, 07H, 0aH, '  Hit any key to exit.', 00H
	ORG $+5
$SG4294857002 DB 0aH, 'ERROR', 0aH, '=====', 0aH, '  %s', 0aH, 07H, 0aH, ' '
	DB	' Hit any key to exit.', 00H
	ORG $+5
$SG4294857003 DB '[error],%d', 0aH, 00H
	ORG $+4
$SG4294857000 DB '%s English', 0aH, 00H
	ORG $+4
$SG4294857001 DB 'Meriken''s Tripcode Engine 2.1.2', 00H
$SG4294856998 DB '07:27:27', 00H
	ORG $+7
$SG4294856999 DB 'May  4 2016', 00H
	ORG $+4
$SG4294856996 DB 'Copyright (C) 2014-2016 !/Meriken/. <meriken.ygch.net@g'
	DB	'mail.com>', 0aH, 00H
	ORG $+6
$SG4294856997 DB '[compiled at %s on %s (PST)]', 0aH, 00H
	ORG $+2
$SG4294856994 DB 'This is free software, and you are welcome to redistrib'
	DB	'ute it', 0aH, 00H
	ORG $+1
$SG4294856995 DB 'This program comes with ABSOLUTELY NO WARRANTY.', 0aH, 00H
	ORG $+7
$SG4294856993 DB 'under certain conditions.', 0aH, 00H
	ORG $+5
$SG4294856990 DB '[error],%d', 0aH, 00H
	ORG $+4
$SG4294856988 DB 0aH, 'ERROR', 0aH, '=====', 0aH, '  Assertion Failed: fi'
	DB	'le %s, line %d', 0aH, 07H, 0aH, '  Hit any key to exit.', 00H
	ORG $+5
$SG4294856989 DB '..\SourceFiles\Main.cpp', 00H
$SG4294856986 DB '[error],%d', 0aH, 00H
$SG4294856801 DB '===', 0aH, 00H
	ORG $+7
$SG4294856984 DB 0aH, 'ERROR', 0aH, '=====', 0aH, '  Assertion Failed: fi'
	DB	'le %s, line %d', 0aH, 07H, 0aH, '  Hit any key to exit.', 00H
	ORG $+5
$SG4294856985 DB '..\SourceFiles\Main.cpp', 00H
$SG4294856983 DB 'Restarting search thread...', 00H
	ORG $+4
$SG4294856980 DB 'Search thread became unresponsive.', 00H
	ORG $+5
$SG4294856981 DB '[error],%d', 0aH, 00H
	ORG $+4
$SG4294856978 DB '[process] Restarting search thread...', 00H
	ORG $+2
$SG4294856979 DB 0aH, 'ERROR', 0aH, '=====', 0aH, '  %s', 0aH, 07H, 0aH, ' '
	DB	' Hit any key to exit.', 00H
	ORG $+5
$SG4294856968 DB 'forward-matching', 00H
	ORG $+7
$SG4294856969 DB 'CPU and GPU(s)', 00H
	ORG $+1
$SG4294856966 DB 'forward- and backward-matching', 00H
	ORG $+1
$SG4294856967 DB 'backward-matching', 00H
	ORG $+6
$SG4294856964 DB '  Performing a %s search on %s', 00H
	ORG $+1
$SG4294856965 DB 'flexible', 00H
	ORG $+7
$SG4294856957 DB '  for %d pattern%s (%d chunk%s) with %d to %d character'
	DB	's%s', 00H
	ORG $+5
$SG4294856950 DB '  for %d pattern%s (%d chunk%s) with %d characters%s', 00H
	ORG $+3
$SG4294856948 DB '      CUDA%d-%d:     %s', 00H
$SG4294856949 DB '      CUDA0:     %s', 00H
	ORG $+4
$SG4294856946 DB '      OpenCL%d:   %s', 00H
	ORG $+3
$SG4294856947 DB '      OpenCL0:   %s', 00H
	ORG $+4
$SG4294856945 DB '      OpenCL%d-%d: %s', 00H
	ORG $+2
$SG4294856942 DB '      %3.2lfM tripcode/s (current)', 00H
	ORG $+5
$SG4294856943 DB '  %.3lfT tripcodes were generated in %dd %dh %dm %02ds '
	DB	'at:', 00H
	ORG $+5
$SG4294856940 DB '          CPU: %7.2lfM tripcode/s', 00H
	ORG $+6
$SG4294856941 DB '          GPU: %7.2lfM tripcode/s', 00H
	ORG $+6
$SG4294856938 DB '          GPU: %7.2lfM tripcode/s', 00H
	ORG $+6
$SG4294856939 DB '      %3.2lfM tripcode/s (average)', 00H
	ORG $+5
$SG4294856936 DB '  On average, it takes %.1lf centuries to find one matc'
	DB	'h at this speed.', 00H
$SG4294856937 DB '          CPU: %7.2lfM tripcode/s', 00H
	ORG $+6
$SG4294856934 DB '  On average, it takes %.1lf months to find one match a'
	DB	't this speed.', 00H
	ORG $+3
$SG4294856915 DB 'NVIDIA %s (CUDA)', 0aH, 00H
	ORG $+6
$SG4294856935 DB '  On average, it takes %.1lf years to find one match at'
	DB	' this speed.', 00H
$SG4294856662 DB '%02X', 00H
	ORG $+7
$SG4294856932 DB '  On average, it takes %.1lf hours to find one match at'
	DB	' this speed.', 00H
$SG4294856654 DB '%02X', 00H
	ORG $+7
$SG4294856933 DB '  On average, it takes %.1lf days to find one match at '
	DB	'this speed.', 00H
	ORG $+5
$SG4294856928 DB '  No matches were found yet.', 00H
	ORG $+3
$SG4294856906 DB 'Intel(R) Corporation', 00H
	ORG $+3
$SG4294856930 DB '  On average, it takes %.1lf seconds to find one match '
	DB	'at this speed.', 00H
	ORG $+2
$SG4294856907 DB 'NVIDIA Corporation', 00H
	ORG $+5
$SG4294856931 DB '  On average, it takes %.1lf minutes to find one match '
	DB	'at this speed.', 00H
	ORG $+2
$SG4294856880 DB 'NVIDIA Corporation', 00H
	ORG $+5
$SG4294856924 DB '  The actual matching probability is %.0f%% higher than'
	DB	' expected.', 00H
	ORG $+6
$SG4294856921 DB '  %.0f%% of matching tripcodes were invalid.', 00H
	ORG $+3
$SG4294856881 DB 'Intel(R) Corporation', 00H
	ORG $+3
$SG4294856925 DB '  %ld match%s found at %.2lf matches/h and %.2lfG tripc'
	DB	'odes/match.', 00H
	ORG $+5
$SG4294856913 DB '[error],%d', 0aH, 00H
$SG4294856644 DB '%02X', 00H
	ORG $+7
$SG4294856922 DB '  The actual matching probability is about the same as '
	DB	'expected.', 00H
	ORG $+7
$SG4294856912 DB 0aH, 'ERROR', 0aH, '=====', 0aH, '  %s', 0aH, 07H, 0aH, ' '
	DB	' Hit any key to exit.', 00H
	ORG $+5
$SG4294856910 DB '[error],%d', 0aH, 00H
$SG4294856635 DB '%02X', 00H
	ORG $+7
$SG4294856923 DB '  The actual matching probability is %.0f%% lower than '
	DB	'expected.', 00H
	ORG $+7
$SG4294856904 DB '[error],%d', 0aH, 00H
$SG4294856627 DB '%02X', 00H
	ORG $+7
$SG4294856916 DB '[status],%.0lf,%.0lf,%.0lf,%.0lf,%.0lf,-,-,%.0lf,%ld,%d'
	DB	',%.0lf,%.0lf,%u,%.0f%%', 0aH, 00H
	ORG $+1
$SG4294856917 DB '[status],%.0lf,%.0lf,%.0lf,%.0lf,%.0lf,%.1lf,%s%d%%,%.0'
	DB	'lf,%ld,%d,%.0lf,%.0lf,%u,%.0f%%', 0aH, 00H
$SG4294856879 DB 'NVIDIA ', 00H
$SG4294856908 DB 0aH, 'ERROR', 0aH, '=====', 0aH, '  OpenCL Function Call'
	DB	' Failed: %s (file ''%s'', line %d)', 0aH, 07H, 0aH, '  Hit an'
	DB	'y key to exit.', 00H
	ORG $+3
$SG4294856909 DB '..\SourceFiles\Main.cpp', 00H
$SG4294856903 DB 0aH, 'ERROR', 0aH, '=====', 0aH, '  %s', 0aH, 07H, 0aH, ' '
	DB	' Hit any key to exit.', 00H
	ORG $+5
$SG4294856901 DB '[error],%d', 0aH, 00H
	ORG $+12
$SG4294856900 DB '..\SourceFiles\Main.cpp', 00H
	ORG $+8
$SG4294856899 DB 0aH, 'ERROR', 0aH, '=====', 0aH, '  OpenCL Function Call'
	DB	' Failed: %s (file ''%s'', line %d)', 0aH, 07H, 0aH, '  Hit an'
	DB	'y key to exit.', 00H
	ORG $+3
$SG4294856896 DB 0aH, 'ERROR', 0aH, '=====', 0aH, '  %s', 0aH, 07H, 0aH, ' '
	DB	' Hit any key to exit.', 00H
	ORG $+5
$SG4294856897 DB '[error],%d', 0aH, 00H
	ORG $+4
$SG4294856894 DB '[error],%d', 0aH, 00H
	ORG $+4
$SG4294856892 DB 0aH, 'ERROR', 0aH, '=====', 0aH, '  OpenCL Function Call'
	DB	' Failed: %s (file ''%s'', line %d)', 0aH, 07H, 0aH, '  Hit an'
	DB	'y key to exit.', 00H
	ORG $+3
$SG4294856893 DB '..\SourceFiles\Main.cpp', 00H
$SG4294856890 DB '[error],%d', 0aH, 00H
	ORG $+12
$SG4294856888 DB 0aH, 'ERROR', 0aH, '=====', 0aH, '  OpenCL Function Call'
	DB	' Failed: %s (file ''%s'', line %d)', 0aH, 07H, 0aH, '  Hit an'
	DB	'y key to exit.', 00H
	ORG $+3
$SG4294856889 DB '..\SourceFiles\Main.cpp', 00H
$SG4294856886 DB '[error],%d', 0aH, 00H
	ORG $+12
$SG4294856884 DB 0aH, 'ERROR', 0aH, '=====', 0aH, '  OpenCL Function Call'
	DB	' Failed: %s (file ''%s'', line %d)', 0aH, 07H, 0aH, '  Hit an'
	DB	'y key to exit.', 00H
	ORG $+3
$SG4294856885 DB '..\SourceFiles\Main.cpp', 00H
$SG4294856883 DB 'Advanced Micro Devices, Inc.', 00H
	ORG $+3
$SG4294856875 DB ' (OpenCL)', 0aH, 00H
	ORG $+5
$SG4294856872 DB 'An invalid device was specified.', 00H
	ORG $+7
$SG4294856873 DB '[error],%d', 0aH, 00H
	ORG $+4
$SG4294856871 DB 0aH, 'ERROR', 0aH, '=====', 0aH, '  %s', 0aH, 07H, 0aH, ' '
	DB	' Hit any key to exit.', 00H
	ORG $+5
$SG4294856868 DB 'There is no GPU.', 00H
	ORG $+7
$SG4294856869 DB '[error],%d', 0aH, 00H
	ORG $+4
$SG4294856866 DB 'CUDA DEVICES', 0aH, 00H
	ORG $+2
$SG4294856867 DB 0aH, 'ERROR', 0aH, '=====', 0aH, '  %s', 0aH, 07H, 0aH, ' '
	DB	' Hit any key to exit.', 00H
	ORG $+5
$SG4294856864 DB '  CUDA Device Count:        %d', 0aH, 0aH, 00H
	ORG $+7
$SG4294856865 DB '============', 0aH, 00H
	ORG $+2
$SG4294856862 DB '===========', 0aH, 00H
	ORG $+3
$SG4294856863 DB 'CUDA DEVICE', 0aH, 00H
	ORG $+3
$SG4294856860 DB '  Device Name:              %s', 0aH, 00H
$SG4294856861 DB '  Device No.:               %d', 0aH, 00H
$SG4294856858 DB '  Clock Rate:               %.0fMHz', 0aH, 00H
	ORG $+3
$SG4294856859 DB '  Multiprocessor Count:     %d', 0aH, 00H
$SG4294856856 DB 'cudaComputeModeDefault', 00H
	ORG $+1
$SG4294856857 DB '  Compute Capability:       %d.%d', 0aH, 00H
	ORG $+5
$SG4294856854 DB 'cudaComputeModeProhibited', 00H
	ORG $+6
$SG4294856855 DB 'cudaComputeModeExclusive', 00H
	ORG $+7
$SG4294856852 DB '(unknown)', 00H
	ORG $+6
$SG4294856853 DB 'cudaComputeModeExclusiveProcess', 00H
$SG4294856851 DB '  Compute Mode:             %s', 0aH, 00H
$SG4294856848 DB '==============', 0aH, 00H
$SG4294856849 DB 'OPENCL DEVICES', 0aH, 00H
$SG4294856846 DB 'OPENCL DEVICE', 0aH, 00H
	ORG $+1
$SG4294856847 DB '  OpenCL Device Count:      %d', 0aH, 0aH, 00H
	ORG $+7
$SG4294856845 DB '=============', 0aH, 00H
	ORG $+1
$SG4294856842 DB '..\SourceFiles\Main.cpp', 00H
$SG4294856843 DB '[error],%d', 0aH, 00H
	ORG $+12
$SG4294856841 DB 0aH, 'ERROR', 0aH, '=====', 0aH, '  OpenCL Function Call'
	DB	' Failed: %s (file ''%s'', line %d)', 0aH, 07H, 0aH, '  Hit an'
	DB	'y key to exit.', 00H
	ORG $+3
$SG4294856838 DB '..\SourceFiles\Main.cpp', 00H
$SG4294856839 DB '[error],%d', 0aH, 00H
	ORG $+12
$SG4294856837 DB 0aH, 'ERROR', 0aH, '=====', 0aH, '  OpenCL Function Call'
	DB	' Failed: %s (file ''%s'', line %d)', 0aH, 07H, 0aH, '  Hit an'
	DB	'y key to exit.', 00H
	ORG $+3
$SG4294856834 DB '..\SourceFiles\Main.cpp', 00H
$SG4294856835 DB '[error],%d', 0aH, 00H
	ORG $+12
$SG4294856833 DB 0aH, 'ERROR', 0aH, '=====', 0aH, '  OpenCL Function Call'
	DB	' Failed: %s (file ''%s'', line %d)', 0aH, 07H, 0aH, '  Hit an'
	DB	'y key to exit.', 00H
	ORG $+3
$SG4294856830 DB '..\SourceFiles\Main.cpp', 00H
$SG4294856831 DB '[error],%d', 0aH, 00H
	ORG $+12
$SG4294856829 DB 0aH, 'ERROR', 0aH, '=====', 0aH, '  OpenCL Function Call'
	DB	' Failed: %s (file ''%s'', line %d)', 0aH, 07H, 0aH, '  Hit an'
	DB	'y key to exit.', 00H
	ORG $+3
$SG4294856826 DB '..\SourceFiles\Main.cpp', 00H
$SG4294856827 DB '[error],%d', 0aH, 00H
	ORG $+12
$SG4294856825 DB 0aH, 'ERROR', 0aH, '=====', 0aH, '  OpenCL Function Call'
	DB	' Failed: %s (file ''%s'', line %d)', 0aH, 07H, 0aH, '  Hit an'
	DB	'y key to exit.', 00H
	ORG $+3
$SG4294856822 DB '..\SourceFiles\Main.cpp', 00H
$SG4294856823 DB '[error],%d', 0aH, 00H
	ORG $+12
$SG4294856821 DB 0aH, 'ERROR', 0aH, '=====', 0aH, '  OpenCL Function Call'
	DB	' Failed: %s (file ''%s'', line %d)', 0aH, 07H, 0aH, '  Hit an'
	DB	'y key to exit.', 00H
	ORG $+3
$SG4294856818 DB '..\SourceFiles\Main.cpp', 00H
$SG4294856819 DB '[error],%d', 0aH, 00H
	ORG $+12
$SG4294856817 DB 0aH, 'ERROR', 0aH, '=====', 0aH, '  OpenCL Function Call'
	DB	' Failed: %s (file ''%s'', line %d)', 0aH, 07H, 0aH, '  Hit an'
	DB	'y key to exit.', 00H
	ORG $+3
$SG4294856814 DB '..\SourceFiles\Main.cpp', 00H
$SG4294856815 DB '[error],%d', 0aH, 00H
	ORG $+4
$SG4294856812 DB '  Vendor:                   %s', 0aH, 00H
	ORG $+8
$SG4294856813 DB 0aH, 'ERROR', 0aH, '=====', 0aH, '  OpenCL Function Call'
	DB	' Failed: %s (file ''%s'', line %d)', 0aH, 07H, 0aH, '  Hit an'
	DB	'y key to exit.', 00H
	ORG $+3
$SG4294856810 DB '  Name:                     %s', 0aH, 00H
$SG4294856811 DB '  Name:                     %s (%s)', 0aH, 00H
	ORG $+3
$SG4294856808 DB '  Clock Frequency:          %dMHz', 0aH, 00H
	ORG $+5
$SG4294856809 DB '  Number of Compute Units:  %d', 0aH, 00H
$SG4294856806 DB '  Max. Work Group Size:     %d', 0aH, 00H
$SG4294856807 DB '  Global Memory Size:       %dM bytes', 0aH, 00H
	ORG $+1
$SG4294856804 DB '  Driver Version:           %s', 0aH, 00H
$SG4294856805 DB '  Version:                  %s', 0aH, 00H
$SG4294856800 DB '  Processor Info:           0x%06x (Nehalem)', 0aH, 00H
	ORG $+2
$SG4294856798 DB '  Number of Logical Cores:  %d', 0aH, 00H
$SG4294856799 DB '  Processor Info:           0x%06x', 0aH, 00H
	ORG $+4
$SG4294856797 DB '  Number of Search Threads: %d', 0aH, 00H
$SG4294856795 DB 'tripcodes.txt', 00H
	ORG $+2
$SG4294856792 DB '[error],%d', 0aH, 00H
	ORG $+4
$SG4294856790 DB 'The path of the tripcode file `%s'' is too long.', 00H
$SG4294856791 DB 0aH, 'ERROR', 0aH, '=====', 0aH, '  ', 00H
$SG4294856789 DB 0aH, 07H, 0aH, '  Hit any key to exit.', 00H
	ORG $+6
$SG4294856786 DB '[error],%d', 0aH, 00H
	ORG $+4
$SG4294856784 DB 'The path of the pattern file `%s'' is too long.', 00H
	ORG $+1
$SG4294856785 DB 0aH, 'ERROR', 0aH, '=====', 0aH, '  ', 00H
$SG4294856783 DB 0aH, 07H, 0aH, '  Hit any key to exit.', 00H
	ORG $+6
$SG4294856780 DB 'Too many pattern files were specified.', 00H
	ORG $+1
$SG4294856781 DB '[error],%d', 0aH, 00H
	ORG $+4
$SG4294856779 DB 0aH, 'ERROR', 0aH, '=====', 0aH, '  %s', 0aH, 07H, 0aH, ' '
	DB	' Hit any key to exit.', 00H
	ORG $+5
$SG4294856774 DB 0aH, 'ERROR', 0aH, '=====', 0aH, '  ', 00H
$SG4294856775 DB '[error],%d', 0aH, 00H
	ORG $+4
$SG4294856772 DB 0aH, 07H, 0aH, '  Hit any key to exit.', 00H
	ORG $+6
$SG4294856773 DB 'The number of blocks per SM must be at least %d.', 00H
	ORG $+7
$SG4294856770 DB '[error],%d', 0aH, 00H
	ORG $+4
$SG4294856768 DB 'The number of blocks per SM cannot exceed %d.', 00H
	ORG $+2
$SG4294856769 DB 0aH, 'ERROR', 0aH, '=====', 0aH, '  ', 00H
$SG4294856767 DB 0aH, 07H, 0aH, '  Hit any key to exit.', 00H
	ORG $+6
$SG4294856764 DB '[error],%d', 0aH, 00H
	ORG $+4
$SG4294856762 DB 'The number of work items per CU must be at least %d.', 00H
	ORG $+3
$SG4294856763 DB 0aH, 'ERROR', 0aH, '=====', 0aH, '  ', 00H
$SG4294856761 DB 0aH, 07H, 0aH, '  Hit any key to exit.', 00H
	ORG $+6
$SG4294856758 DB 0aH, 'ERROR', 0aH, '=====', 0aH, '  ', 00H
$SG4294856759 DB '[error],%d', 0aH, 00H
	ORG $+4
$SG4294856756 DB 0aH, 07H, 0aH, '  Hit any key to exit.', 00H
	ORG $+6
$SG4294856757 DB 'The number of work items per CU cannot exceed %d.', 00H
	ORG $+6
$SG4294856752 DB 0aH, 'ERROR', 0aH, '=====', 0aH, '  ', 00H
$SG4294856753 DB '[error],%d', 0aH, 00H
	ORG $+4
$SG4294856750 DB 0aH, 07H, 0aH, '  Hit any key to exit.', 00H
	ORG $+6
$SG4294856751 DB 'The number of work items per WG must be at least %d.', 00H
	ORG $+3
$SG4294856748 DB '[error],%d', 0aH, 00H
	ORG $+4
$SG4294856746 DB 'The number of work items per WG cannot exceed %d.', 00H
	ORG $+6
$SG4294856747 DB 0aH, 'ERROR', 0aH, '=====', 0aH, '  ', 00H
$SG4294856745 DB 0aH, 07H, 0aH, '  Hit any key to exit.', 00H
	ORG $+6
$SG4294856742 DB 'The number of work items per WG must be a multiple of 8'
	DB	'.', 00H
	ORG $+7
$SG4294856743 DB '[error],%d', 0aH, 00H
	ORG $+4
$SG4294856741 DB 0aH, 'ERROR', 0aH, '=====', 0aH, '  %s', 0aH, 07H, 0aH, ' '
	DB	' Hit any key to exit.', 00H
	ORG $+5
$SG4294856738 DB '[error],%d', 0aH, 00H
	ORG $+4
$SG4294856736 DB 'The number of threads per AMD GPU must be at least %d.', 00H
	ORG $+1
$SG4294856737 DB 0aH, 'ERROR', 0aH, '=====', 0aH, '  ', 00H
$SG4294856735 DB 0aH, 07H, 0aH, '  Hit any key to exit.', 00H
	ORG $+6
$SG4294856732 DB 0aH, 'ERROR', 0aH, '=====', 0aH, '  ', 00H
$SG4294856733 DB '[error],%d', 0aH, 00H
	ORG $+4
$SG4294856730 DB 0aH, 07H, 0aH, '  Hit any key to exit.', 00H
	ORG $+6
$SG4294856731 DB 'The number of threads per AMD GPU cannot exceed %d.', 00H
	ORG $+4
$SG4294856726 DB 0aH, 'ERROR', 0aH, '=====', 0aH, '  ', 00H
$SG4294856727 DB '[error],%d', 0aH, 00H
	ORG $+4
$SG4294856724 DB 0aH, 07H, 0aH, '  Hit any key to exit.', 00H
	ORG $+6
$SG4294856725 DB 'The number of processes per AMD GPU must be at least %d'
	DB	'.', 00H
	ORG $+7
$SG4294856722 DB '[error],%d', 0aH, 00H
	ORG $+4
$SG4294856720 DB 'The number of processes per AMD GPU cannot exceed %d.', 00H
	ORG $+2
$SG4294856721 DB 0aH, 'ERROR', 0aH, '=====', 0aH, '  ', 00H
$SG4294856719 DB 0aH, 07H, 0aH, '  Hit any key to exit.', 00H
	ORG $+6
$SG4294856716 DB '[error],%d', 0aH, 00H
	ORG $+4
$SG4294856714 DB 0aH, 'ERROR', 0aH, '=====', 0aH, '  %s', 0aH, 07H, 0aH, ' '
	DB	' Hit any key to exit.', 00H
	ORG $+5
$SG4294856715 DB 'The length of tripcodes must be either 10 or 12.', 00H
	ORG $+7
$SG4294856704 DB 'The number of CPU search threads must be at least 1.', 00H
	ORG $+3
$SG4294856705 DB '[error],%d', 0aH, 00H
	ORG $+4
$SG4294856702 DB '--output-for-redirection', 00H
	ORG $+7
$SG4294856703 DB 0aH, 'ERROR', 0aH, '=====', 0aH, '  %s', 0aH, 07H, 0aH, ' '
	DB	' Hit any key to exit.', 00H
	ORG $+5
$SG4294856698 DB '--search-for-hiseki-on-cpu', 00H
	ORG $+5
$SG4294856699 DB '--use-one-byte-characters-for-keys', 00H
	ORG $+5
$SG4294856696 DB '--search-for-kaibun-on-cpu', 00H
	ORG $+5
$SG4294856697 DB '--search-for-kakuhi-on-cpu', 00H
	ORG $+5
$SG4294856694 DB '--search-for-yamabiko-on-cpu', 00H
	ORG $+3
$SG4294856695 DB '--search-for-kagami-on-cpu', 00H
	ORG $+5
$SG4294856692 DB '--use-opencl-for-cuda-devices', 00H
	ORG $+2
$SG4294856693 DB '--search-for-souren-on-cpu', 00H
	ORG $+5
$SG4294856690 DB '--disable-avx2', 00H
	ORG $+1
$SG4294856691 DB '--disable-avx', 00H
	ORG $+2
$SG4294856688 DB '--use-ascii-characters-for-keys', 00H
$SG4294856689 DB '--use-one-byte-characters-for-keys', 00H
	ORG $+5
$SG4294856686 DB '--maximize-key-space', 00H
	ORG $+3
$SG4294856687 DB '--use-one-and-two-byte-characters-for-keys', 00H
	ORG $+5
$SG4294856684 DB '--disable-gcn-assembler', 00H
$SG4294856685 DB '--disable-tripcode-checks', 00H
	ORG $+6
$SG4294856682 DB '--list-expanded-patterns', 00H
	ORG $+7
$SG4294856683 DB '--display-device-information', 00H
	ORG $+3
$SG4294856681 DB '--gpu-list', 00H
	ORG $+5
$SG4294856678 DB 'An invalid option was specified.', 00H
	ORG $+7
$SG4294856679 DB '[error],%d', 0aH, 00H
	ORG $+4
$SG4294856676 DB 'patterns.txt', 00H
	ORG $+3
$SG4294856677 DB 0aH, 'ERROR', 0aH, '=====', 0aH, '  %s', 0aH, 07H, 0aH, ' '
	DB	' Hit any key to exit.', 00H
	ORG $+5
$SG4294856674 DB '[error],%d', 0aH, 00H
	ORG $+4
$SG4294856672 DB 0aH, 'ERROR', 0aH, '=====', 0aH, '  Assertion Failed: fi'
	DB	'le %s, line %d', 0aH, 07H, 0aH, '  Hit any key to exit.', 00H
	ORG $+5
$SG4294856673 DB '..\SourceFiles\Main.cpp', 00H
$SG4294856670 DB '[error],%d', 0aH, 00H
	ORG $+12
$SG4294856668 DB 0aH, 'ERROR', 0aH, '=====', 0aH, '  Assertion Failed: fi'
	DB	'le %s, line %d', 0aH, 07H, 0aH, '  Hit any key to exit.', 00H
	ORG $+5
$SG4294856669 DB '..\SourceFiles\Main.cpp', 00H
$SG4294856649 DB '[tripcode],%c%c', 00H
$SG4294856620 DB '[error],%d', 0aH, 00H
	ORG $+4
$SG4294856618 DB 0aH, 'ERROR', 0aH, '=====', 0aH, '  %s', 0aH, 07H, 0aH, ' '
	DB	' Hit any key to exit.', 00H
	ORG $+5
$SG4294856619 DB 'The output file cannot be opened.', 00H
	ORG $+6
$SG4294856616 DB '[error],%d', 0aH, 00H
	ORG $+4
$SG4294856614 DB 0aH, 'ERROR', 0aH, '=====', 0aH, '  %s', 0aH, 07H, 0aH, ' '
	DB	' Hit any key to exit.', 00H
	ORG $+5
$SG4294856615 DB 'Failed to open an event.', 00H
	ORG $+7
$SG4294856612 DB '[error],%d', 0aH, 00H
	ORG $+4
$SG4294856610 DB 0aH, 'ERROR', 0aH, '=====', 0aH, '  Assertion Failed: fi'
	DB	'le %s, line %d', 0aH, 07H, 0aH, '  Hit any key to exit.', 00H
	ORG $+5
$SG4294856611 DB '..\SourceFiles\Main.cpp', 00H
$SG4294856608 DB '[error],%d', 0aH, 00H
	ORG $+4
$SG4294856607 DB 0aH, 'ERROR', 0aH, '=====', 0aH, '  %s', 0aH, 07H, 0aH, ' '
	DB	' Hit any key to exit.', 00H
	ORG $+5
$SG4294856604 DB 0aH, 'ERROR', 0aH, '=====', 0aH, '  %s', 0aH, 07H, 0aH, ' '
	DB	' Hit any key to exit.', 00H
	ORG $+5
$SG4294856605 DB '[error],%d', 0aH, 00H
	ORG $+4
$SG4294856602 DB '[error],%d', 0aH, 00H
	ORG $+12
$SG4294856600 DB 0aH, 'ERROR', 0aH, '=====', 0aH, '  Assertion Failed: fi'
	DB	'le %s, line %d', 0aH, 07H, 0aH, '  Hit any key to exit.', 00H
	ORG $+5
$SG4294856601 DB '..\SourceFiles\Main.cpp', 00H
$SG4294856598 DB '[error],%d', 0aH, 00H
	ORG $+12
$SG4294856596 DB 0aH, 'ERROR', 0aH, '=====', 0aH, '  CUDA Function Call F'
	DB	'ailed: %s [%d] (file ''%s'', line %d)', 0aH, '  The video car'
	DB	'd may be low on resources.', 0aH, 07H, 0aH, '  Hit any key to'
	DB	' exit.', 00H
	ORG $+6
$SG4294856597 DB '..\SourceFiles\Main.cpp', 00H
$SG4294856594 DB '[error],%d', 0aH, 00H
	ORG $+12
$SG4294856592 DB 0aH, 'ERROR', 0aH, '=====', 0aH, '  Assertion Failed: fi'
	DB	'le %s, line %d', 0aH, 07H, 0aH, '  Hit any key to exit.', 00H
	ORG $+5
$SG4294856593 DB '..\SourceFiles\Main.cpp', 00H
$SG4294856590 DB '[error],%d', 0aH, 00H
	ORG $+12
$SG4294856588 DB 0aH, 'ERROR', 0aH, '=====', 0aH, '  CUDA Function Call F'
	DB	'ailed: %s [%d] (file ''%s'', line %d)', 0aH, '  The video car'
	DB	'd may be low on resources.', 0aH, 07H, 0aH, '  Hit any key to'
	DB	' exit.', 00H
	ORG $+6
$SG4294856589 DB '..\SourceFiles\Main.cpp', 00H
$SG4294856586 DB '[error],%d', 0aH, 00H
	ORG $+4
$SG4294856584 DB 0aH, 'ERROR', 0aH, '=====', 0aH, '  %s', 0aH, 07H, 0aH, ' '
	DB	' Hit any key to exit.', 00H
	ORG $+5
$SG4294856585 DB 'Failed to start a CUDA device search thread.', 00H
	ORG $+3
$SG4294856582 DB '[error],%d', 0aH, 00H
	ORG $+12
$SG4294856580 DB 0aH, 'ERROR', 0aH, '=====', 0aH, '  Assertion Failed: fi'
	DB	'le %s, line %d', 0aH, 07H, 0aH, '  Hit any key to exit.', 00H
	ORG $+5
$SG4294856581 DB '..\SourceFiles\Main.cpp', 00H
$SG4294856578 DB '[error],%d', 0aH, 00H
	ORG $+4
$SG4294856576 DB 0aH, 'ERROR', 0aH, '=====', 0aH, '  %s', 0aH, 07H, 0aH, ' '
	DB	' Hit any key to exit.', 00H
	ORG $+5
$SG4294856577 DB 'Failed to start a CUDA device search thread.', 00H
	ORG $+3
$SG4294856574 DB '[error],%d', 0aH, 00H
	ORG $+12
$SG4294856572 DB 0aH, 'ERROR', 0aH, '=====', 0aH, '  Assertion Failed: fi'
	DB	'le %s, line %d', 0aH, 07H, 0aH, '  Hit any key to exit.', 00H
	ORG $+5
$SG4294856573 DB '..\SourceFiles\Main.cpp', 00H
$SG4294856570 DB '[error],%d', 0aH, 00H
	ORG $+4
$SG4294856569 DB 0aH, 'ERROR', 0aH, '=====', 0aH, '  %s', 0aH, 07H, 0aH, ' '
	DB	' Hit any key to exit.', 00H
	ORG $+5
$SG4294856566 DB 0aH, 'ERROR', 0aH, '=====', 0aH, '  %s', 0aH, 07H, 0aH, ' '
	DB	' Hit any key to exit.', 00H
	ORG $+5
$SG4294856567 DB '[error],%d', 0aH, 00H
	ORG $+4
$SG4294856564 DB '[error],%d', 0aH, 00H
	ORG $+12
$SG4294856562 DB 0aH, 'ERROR', 0aH, '=====', 0aH, '  OpenCL Function Call'
	DB	' Failed: %s (file ''%s'', line %d)', 0aH, 07H, 0aH, '  Hit an'
	DB	'y key to exit.', 00H
	ORG $+3
$SG4294856563 DB '..\SourceFiles\Main.cpp', 00H
$SG4294856560 DB '[error],%d', 0aH, 00H
	ORG $+12
$SG4294856558 DB 0aH, 'ERROR', 0aH, '=====', 0aH, '  Assertion Failed: fi'
	DB	'le %s, line %d', 0aH, 07H, 0aH, '  Hit any key to exit.', 00H
	ORG $+5
$SG4294856559 DB '..\SourceFiles\Main.cpp', 00H
$SG4294856556 DB '[error],%d', 0aH, 00H
	ORG $+12
$SG4294856554 DB 0aH, 'ERROR', 0aH, '=====', 0aH, '  Assertion Failed: fi'
	DB	'le %s, line %d', 0aH, 07H, 0aH, '  Hit any key to exit.', 00H
	ORG $+5
$SG4294856555 DB '..\SourceFiles\Main.cpp', 00H
$SG4294856552 DB '[error],%d', 0aH, 00H
	ORG $+12
$SG4294856550 DB 0aH, 'ERROR', 0aH, '=====', 0aH, '  Assertion Failed: fi'
	DB	'le %s, line %d', 0aH, 07H, 0aH, '  Hit any key to exit.', 00H
	ORG $+5
$SG4294856551 DB '..\SourceFiles\Main.cpp', 00H
$SG4294856548 DB '[error],%d', 0aH, 00H
	ORG $+12
$SG4294856546 DB 0aH, 'ERROR', 0aH, '=====', 0aH, '  Assertion Failed: fi'
	DB	'le %s, line %d', 0aH, 07H, 0aH, '  Hit any key to exit.', 00H
	ORG $+5
$SG4294856547 DB '..\SourceFiles\Main.cpp', 00H
$SG4294856544 DB '[error],%d', 0aH, 00H
	ORG $+12
$SG4294856542 DB 0aH, 'ERROR', 0aH, '=====', 0aH, '  OpenCL Function Call'
	DB	' Failed: %s (file ''%s'', line %d)', 0aH, 07H, 0aH, '  Hit an'
	DB	'y key to exit.', 00H
	ORG $+3
$SG4294856543 DB '..\SourceFiles\Main.cpp', 00H
$SG4294856540 DB '[error],%d', 0aH, 00H
	ORG $+12
$SG4294856538 DB 0aH, 'ERROR', 0aH, '=====', 0aH, '  Assertion Failed: fi'
	DB	'le %s, line %d', 0aH, 07H, 0aH, '  Hit any key to exit.', 00H
	ORG $+5
$SG4294856539 DB '..\SourceFiles\Main.cpp', 00H
$SG4294856536 DB '[error],%d', 0aH, 00H
	ORG $+12
$SG4294856534 DB 0aH, 'ERROR', 0aH, '=====', 0aH, '  Assertion Failed: fi'
	DB	'le %s, line %d', 0aH, 07H, 0aH, '  Hit any key to exit.', 00H
	ORG $+5
$SG4294856535 DB '..\SourceFiles\Main.cpp', 00H
$SG4294856532 DB '[error],%d', 0aH, 00H
	ORG $+4
$SG4294856530 DB 0aH, 'ERROR', 0aH, '=====', 0aH, '  %s', 0aH, 07H, 0aH, ' '
	DB	' Hit any key to exit.', 00H
	ORG $+5
$SG4294856531 DB 'Failed to start a OpenCL device search thread.', 00H
	ORG $+1
$SG4294856528 DB '[error],%d', 0aH, 00H
	ORG $+12
$SG4294856526 DB 0aH, 'ERROR', 0aH, '=====', 0aH, '  Assertion Failed: fi'
	DB	'le %s, line %d', 0aH, 07H, 0aH, '  Hit any key to exit.', 00H
	ORG $+5
$SG4294856527 DB '..\SourceFiles\Main.cpp', 00H
$SG4294856524 DB '[error],%d', 0aH, 00H
	ORG $+4
$SG4294856522 DB 0aH, 'ERROR', 0aH, '=====', 0aH, '  %s', 0aH, 07H, 0aH, ' '
	DB	' Hit any key to exit.', 00H
	ORG $+5
$SG4294856523 DB 'Failed to start a OpenCL device search thread.', 00H
	ORG $+1
$SG4294856520 DB '[error],%d', 0aH, 00H
	ORG $+12
$SG4294856518 DB 0aH, 'ERROR', 0aH, '=====', 0aH, '  Assertion Failed: fi'
	DB	'le %s, line %d', 0aH, 07H, 0aH, '  Hit any key to exit.', 00H
	ORG $+5
$SG4294856519 DB '..\SourceFiles\Main.cpp', 00H
$SG4294856516 DB '[error],%d', 0aH, 00H
	ORG $+4
$SG4294856515 DB 0aH, 'ERROR', 0aH, '=====', 0aH, '  %s', 0aH, 07H, 0aH, ' '
	DB	' Hit any key to exit.', 00H
	ORG $+5
$SG4294856512 DB '..\SourceFiles\Main.cpp', 00H
$SG4294856513 DB '[error],%d', 0aH, 00H
	ORG $+4
$SG4294856511 DB 0aH, 'ERROR', 0aH, '=====', 0aH, '  Assertion Failed: fi'
	DB	'le %s, line %d', 0aH, 07H, 0aH, '  Hit any key to exit.', 00H
	ORG $+5
$SG4294856508 DB 'Failed to start a CPU search thread.', 00H
	ORG $+3
$SG4294856509 DB '[error],%d', 0aH, 00H
	ORG $+4
$SG4294856506 DB '%d: `%s'' @ %d', 0aH, 00H
	ORG $+1
$SG4294856507 DB 0aH, 'ERROR', 0aH, '=====', 0aH, '  %s', 0aH, 07H, 0aH, ' '
	DB	' Hit any key to exit.', 00H
	ORG $+5
$SG4294856504 DB '--list-expanded-patterns', 00H
	ORG $+7
$SG4294856505 DB '--display-device-information', 00H
	ORG $+3
$SG4294856502 DB '--output-for-redirection', 00H
	ORG $+7
$SG4294856503 DB '--gpu-list', 00H
	ORG $+5
$SG4294856501 DB '--gpu-list', 00H
	ORG $+5
$SG4294856498 DB 'Failed to open an event.', 00H
	ORG $+7
$SG4294856499 DB '[error],%d', 0aH, 00H
	ORG $+4
$SG4294856496 DB 'TRIPCODES', 0aH, 00H
	ORG $+5
$SG4294856497 DB 0aH, 'ERROR', 0aH, '=====', 0aH, '  %s', 0aH, 07H, 0aH, ' '
	DB	' Hit any key to exit.', 00H
	ORG $+5
$SG4294856494 DB '[started]', 0aH, 00H
	ORG $+5
$SG4294856495 DB '=========', 0aH, 00H
PUBLIC	??$_Fixarg@AEAP6AXPEAUOpenCLDeviceSearchThreadInfo@@@ZPEAU1@V?$tuple@PEAUOpenCLDeviceSearchThreadInfo@@@std@@V?$tuple@$$$V@3@@std@@YAAEAPEAUOpenCLDeviceSearchThreadInfo@@AEAP6AXPEAU1@@ZAEAV?$tuple@PEAUOpenCLDeviceSearchThreadInfo@@@0@AEAV?$tuple@$$$V@0@AEAPEAU1@@Z ; std::_Fixarg<void (__cdecl*& __ptr64)(OpenCLDeviceSearchThreadInfo * __ptr64),OpenCLDeviceSearchThreadInfo * __ptr64,std::tuple<OpenCLDeviceSearchThreadInfo * __ptr64>,std::tuple<> >
PUBLIC	??$get@$0A@PEAUOpenCLDeviceSearchThreadInfo@@@std@@YAAEAPEAUOpenCLDeviceSearchThreadInfo@@AEAV?$tuple@PEAUOpenCLDeviceSearchThreadInfo@@@0@@Z ; std::get<0,OpenCLDeviceSearchThreadInfo * __ptr64>
PUBLIC	??$_Fixarg@AEAP6AXPEAUCUDADeviceSearchThreadInfo@@@ZPEAU1@V?$tuple@PEAUCUDADeviceSearchThreadInfo@@@std@@V?$tuple@$$$V@3@@std@@YAAEAPEAUCUDADeviceSearchThreadInfo@@AEAP6AXPEAU1@@ZAEAV?$tuple@PEAUCUDADeviceSearchThreadInfo@@@0@AEAV?$tuple@$$$V@0@AEAPEAU1@@Z ; std::_Fixarg<void (__cdecl*& __ptr64)(CUDADeviceSearchThreadInfo * __ptr64),CUDADeviceSearchThreadInfo * __ptr64,std::tuple<CUDADeviceSearchThreadInfo * __ptr64>,std::tuple<> >
PUBLIC	??$get@$0A@PEAUCUDADeviceSearchThreadInfo@@@std@@YAAEAPEAUCUDADeviceSearchThreadInfo@@AEAV?$tuple@PEAUCUDADeviceSearchThreadInfo@@@0@@Z ; std::get<0,CUDADeviceSearchThreadInfo * __ptr64>
PUBLIC	??$?0PEAUOpenCLDeviceSearchThreadInfo@@@?$_Tuple_val@PEAUOpenCLDeviceSearchThreadInfo@@@std@@QEAA@$$QEAPEAUOpenCLDeviceSearchThreadInfo@@@Z ; std::_Tuple_val<OpenCLDeviceSearchThreadInfo * __ptr64>::_Tuple_val<OpenCLDeviceSearchThreadInfo * __ptr64><OpenCLDeviceSearchThreadInfo * __ptr64>
PUBLIC	??$?0PEAUCUDADeviceSearchThreadInfo@@@?$_Tuple_val@PEAUCUDADeviceSearchThreadInfo@@@std@@QEAA@$$QEAPEAUCUDADeviceSearchThreadInfo@@@Z ; std::_Tuple_val<CUDADeviceSearchThreadInfo * __ptr64>::_Tuple_val<CUDADeviceSearchThreadInfo * __ptr64><CUDADeviceSearchThreadInfo * __ptr64>
PUBLIC	??$_Do_call@$$$V$S@?$_Bind@$00XQ6AXXZ$$$V@std@@QEAAXV?$tuple@$$$V@1@U?$_Arg_idx@$S@1@@Z ; std::_Bind<1,void,void (__cdecl*const)(void)>::_Do_call<>
PUBLIC	??$_Do_call@$$$V$0A@@?$_Bind@$00XQ6AXPEAUOpenCLDeviceSearchThreadInfo@@@ZPEAU1@@std@@QEAAXV?$tuple@$$$V@1@U?$_Arg_idx@$0A@@1@@Z ; std::_Bind<1,void,void (__cdecl*const)(OpenCLDeviceSearchThreadInfo * __ptr64),OpenCLDeviceSearchThreadInfo * __ptr64>::_Do_call<,0>
PUBLIC	??$_Do_call@$$$V$0A@@?$_Bind@$00XQ6AXPEAUCUDADeviceSearchThreadInfo@@@ZPEAU1@@std@@QEAAXV?$tuple@$$$V@1@U?$_Arg_idx@$0A@@1@@Z ; std::_Bind<1,void,void (__cdecl*const)(CUDADeviceSearchThreadInfo * __ptr64),CUDADeviceSearchThreadInfo * __ptr64>::_Do_call<,0>
PUBLIC	??$tie@$$$V@std@@YA?AV?$tuple@$$$V@0@XZ		; std::tie<>
PUBLIC	??$forward@AEAP6AXXZ@std@@YAAEAP6AXXZAEAP6AXXZ@Z ; std::forward<void (__cdecl*& __ptr64)(void)>
PUBLIC	??$?0PEAUOpenCLDeviceSearchThreadInfo@@$$$VPEAPEAX@?$tuple@PEAUOpenCLDeviceSearchThreadInfo@@@std@@QEAA@$$QEAPEAUOpenCLDeviceSearchThreadInfo@@@Z ; std::tuple<OpenCLDeviceSearchThreadInfo * __ptr64>::tuple<OpenCLDeviceSearchThreadInfo * __ptr64><OpenCLDeviceSearchThreadInfo * __ptr64,void * __ptr64 * __ptr64>
PUBLIC	??$forward@AEAP6AXPEAUOpenCLDeviceSearchThreadInfo@@@Z@std@@YAAEAP6AXPEAUOpenCLDeviceSearchThreadInfo@@@ZAEAP6AX0@Z@Z ; std::forward<void (__cdecl*& __ptr64)(OpenCLDeviceSearchThreadInfo * __ptr64)>
PUBLIC	??$?0PEAUCUDADeviceSearchThreadInfo@@$$$VPEAPEAX@?$tuple@PEAUCUDADeviceSearchThreadInfo@@@std@@QEAA@$$QEAPEAUCUDADeviceSearchThreadInfo@@@Z ; std::tuple<CUDADeviceSearchThreadInfo * __ptr64>::tuple<CUDADeviceSearchThreadInfo * __ptr64><CUDADeviceSearchThreadInfo * __ptr64,void * __ptr64 * __ptr64>
PUBLIC	??$forward@AEAP6AXPEAUCUDADeviceSearchThreadInfo@@@Z@std@@YAAEAP6AXPEAUCUDADeviceSearchThreadInfo@@@ZAEAP6AX0@Z@Z ; std::forward<void (__cdecl*& __ptr64)(CUDADeviceSearchThreadInfo * __ptr64)>
PUBLIC	?_Get_rest@?$tuple@PEAUOpenCLDeviceSearchThreadInfo@@@std@@QEAAAEAV?$tuple@$$$V@2@XZ ; std::tuple<OpenCLDeviceSearchThreadInfo * __ptr64>::_Get_rest
PUBLIC	?_Get_rest@?$tuple@PEAUCUDADeviceSearchThreadInfo@@@std@@QEAAAEAV?$tuple@$$$V@2@XZ ; std::tuple<CUDADeviceSearchThreadInfo * __ptr64>::_Get_rest
PUBLIC	??$forward@V?$tuple@$$$V@std@@@std@@YA$$QEAV?$tuple@$$$V@0@AEAV10@@Z ; std::forward<std::tuple<> >
PUBLIC	??$forward@P6AXXZ@std@@YA$$QEAP6AXXZAEAP6AXXZ@Z	; std::forward<void (__cdecl*)(void)>
PUBLIC	??$?0PEAUOpenCLDeviceSearchThreadInfo@@PEAPEAX@?$tuple@PEAUOpenCLDeviceSearchThreadInfo@@@std@@QEAA@$$QEAV01@@Z ; std::tuple<OpenCLDeviceSearchThreadInfo * __ptr64>::tuple<OpenCLDeviceSearchThreadInfo * __ptr64><OpenCLDeviceSearchThreadInfo * __ptr64,void * __ptr64 * __ptr64>
PUBLIC	??$forward@V?$tuple@PEAUOpenCLDeviceSearchThreadInfo@@@std@@@std@@YA$$QEAV?$tuple@PEAUOpenCLDeviceSearchThreadInfo@@@0@AEAV10@@Z ; std::forward<std::tuple<OpenCLDeviceSearchThreadInfo * __ptr64> >
PUBLIC	??$forward@P6AXPEAUOpenCLDeviceSearchThreadInfo@@@Z@std@@YA$$QEAP6AXPEAUOpenCLDeviceSearchThreadInfo@@@ZAEAP6AX0@Z@Z ; std::forward<void (__cdecl*)(OpenCLDeviceSearchThreadInfo * __ptr64)>
PUBLIC	??$?0PEAUCUDADeviceSearchThreadInfo@@PEAPEAX@?$tuple@PEAUCUDADeviceSearchThreadInfo@@@std@@QEAA@$$QEAV01@@Z ; std::tuple<CUDADeviceSearchThreadInfo * __ptr64>::tuple<CUDADeviceSearchThreadInfo * __ptr64><CUDADeviceSearchThreadInfo * __ptr64,void * __ptr64 * __ptr64>
PUBLIC	??$forward@V?$tuple@PEAUCUDADeviceSearchThreadInfo@@@std@@@std@@YA$$QEAV?$tuple@PEAUCUDADeviceSearchThreadInfo@@@0@AEAV10@@Z ; std::forward<std::tuple<CUDADeviceSearchThreadInfo * __ptr64> >
PUBLIC	??$forward@P6AXPEAUCUDADeviceSearchThreadInfo@@@Z@std@@YA$$QEAP6AXPEAUCUDADeviceSearchThreadInfo@@@ZAEAP6AX0@Z@Z ; std::forward<void (__cdecl*)(CUDADeviceSearchThreadInfo * __ptr64)>
PUBLIC	??$?R$$$V@?$_Bind@$00XQ6AXXZ$$$V@std@@QEAAXXZ	; std::_Bind<1,void,void (__cdecl*const)(void)>::operator()<>
PUBLIC	??$?R$$$V@?$_Bind@$00XQ6AXPEAUOpenCLDeviceSearchThreadInfo@@@ZPEAU1@@std@@QEAAXXZ ; std::_Bind<1,void,void (__cdecl*const)(OpenCLDeviceSearchThreadInfo * __ptr64),OpenCLDeviceSearchThreadInfo * __ptr64>::operator()<>
PUBLIC	??$?R$$$V@?$_Bind@$00XQ6AXPEAUCUDADeviceSearchThreadInfo@@@ZPEAU1@@std@@QEAAXXZ ; std::_Bind<1,void,void (__cdecl*const)(CUDADeviceSearchThreadInfo * __ptr64),CUDADeviceSearchThreadInfo * __ptr64>::operator()<>
PUBLIC	??$?0V?$_Bind@$00XQ6AXXZ$$$V@std@@@?$_LaunchPad@V?$_Bind@$00XQ6AXXZ$$$V@std@@@std@@QEAA@$$QEAV?$_Bind@$00XQ6AXXZ$$$V@1@@Z ; std::_LaunchPad<std::_Bind<1,void,void (__cdecl*const)(void)> >::_LaunchPad<std::_Bind<1,void,void (__cdecl*const)(void)> ><std::_Bind<1,void,void (__cdecl*const)(void)> >
PUBLIC	??$forward@V?$_Bind@$00XQ6AXXZ$$$V@std@@@std@@YA$$QEAV?$_Bind@$00XQ6AXXZ$$$V@0@AEAV10@@Z ; std::forward<std::_Bind<1,void,void (__cdecl*const)(void)> >
PUBLIC	??$?0AEAP6AXXZ$$$V@?$_Bind@$00XQ6AXXZ$$$V@std@@QEAA@AEAP6AXXZ@Z ; std::_Bind<1,void,void (__cdecl*const)(void)>::_Bind<1,void,void (__cdecl*const)(void)><void (__cdecl*& __ptr64)(void)>
PUBLIC	??$?0V?$_Bind@$00XQ6AXPEAUOpenCLDeviceSearchThreadInfo@@@ZPEAU1@@std@@@?$_LaunchPad@V?$_Bind@$00XQ6AXPEAUOpenCLDeviceSearchThreadInfo@@@ZPEAU1@@std@@@std@@QEAA@$$QEAV?$_Bind@$00XQ6AXPEAUOpenCLDeviceSearchThreadInfo@@@ZPEAU1@@1@@Z ; std::_LaunchPad<std::_Bind<1,void,void (__cdecl*const)(OpenCLDeviceSearchThreadInfo * __ptr64),OpenCLDeviceSearchThreadInfo * __ptr64> >::_LaunchPad<std::_Bind<1,void,void (__cdecl*const)(OpenCLDeviceSearchThreadInfo * __ptr64),OpenCLDeviceSearchThreadInfo * __ptr64> ><std::_Bind<1,void,void (__cdecl*const)(OpenCLDeviceSearchThreadInfo * __ptr64),OpenCLDeviceSearchThreadInfo * __ptr64> >
PUBLIC	??$forward@V?$_Bind@$00XQ6AXPEAUOpenCLDeviceSearchThreadInfo@@@ZPEAU1@@std@@@std@@YA$$QEAV?$_Bind@$00XQ6AXPEAUOpenCLDeviceSearchThreadInfo@@@ZPEAU1@@0@AEAV10@@Z ; std::forward<std::_Bind<1,void,void (__cdecl*const)(OpenCLDeviceSearchThreadInfo * __ptr64),OpenCLDeviceSearchThreadInfo * __ptr64> >
PUBLIC	??$?0AEAP6AXPEAUOpenCLDeviceSearchThreadInfo@@@ZPEAU0@@?$_Bind@$00XQ6AXPEAUOpenCLDeviceSearchThreadInfo@@@ZPEAU1@@std@@QEAA@AEAP6AXPEAUOpenCLDeviceSearchThreadInfo@@@Z$$QEAPEAU2@@Z ; std::_Bind<1,void,void (__cdecl*const)(OpenCLDeviceSearchThreadInfo * __ptr64),OpenCLDeviceSearchThreadInfo * __ptr64>::_Bind<1,void,void (__cdecl*const)(OpenCLDeviceSearchThreadInfo * __ptr64),OpenCLDeviceSearchThreadInfo * __ptr64><void (__cdecl*& __ptr64)(OpenCLDeviceSearchThreadInfo * __ptr64),OpenCLDeviceSearchThreadInfo * __ptr64>
PUBLIC	??$?0V?$_Bind@$00XQ6AXPEAUCUDADeviceSearchThreadInfo@@@ZPEAU1@@std@@@?$_LaunchPad@V?$_Bind@$00XQ6AXPEAUCUDADeviceSearchThreadInfo@@@ZPEAU1@@std@@@std@@QEAA@$$QEAV?$_Bind@$00XQ6AXPEAUCUDADeviceSearchThreadInfo@@@ZPEAU1@@1@@Z ; std::_LaunchPad<std::_Bind<1,void,void (__cdecl*const)(CUDADeviceSearchThreadInfo * __ptr64),CUDADeviceSearchThreadInfo * __ptr64> >::_LaunchPad<std::_Bind<1,void,void (__cdecl*const)(CUDADeviceSearchThreadInfo * __ptr64),CUDADeviceSearchThreadInfo * __ptr64> ><std::_Bind<1,void,void (__cdecl*const)(CUDADeviceSearchThreadInfo * __ptr64),CUDADeviceSearchThreadInfo * __ptr64> >
PUBLIC	??$forward@V?$_Bind@$00XQ6AXPEAUCUDADeviceSearchThreadInfo@@@ZPEAU1@@std@@@std@@YA$$QEAV?$_Bind@$00XQ6AXPEAUCUDADeviceSearchThreadInfo@@@ZPEAU1@@0@AEAV10@@Z ; std::forward<std::_Bind<1,void,void (__cdecl*const)(CUDADeviceSearchThreadInfo * __ptr64),CUDADeviceSearchThreadInfo * __ptr64> >
PUBLIC	??$?0AEAP6AXPEAUCUDADeviceSearchThreadInfo@@@ZPEAU0@@?$_Bind@$00XQ6AXPEAUCUDADeviceSearchThreadInfo@@@ZPEAU1@@std@@QEAA@AEAP6AXPEAUCUDADeviceSearchThreadInfo@@@Z$$QEAPEAU2@@Z ; std::_Bind<1,void,void (__cdecl*const)(CUDADeviceSearchThreadInfo * __ptr64),CUDADeviceSearchThreadInfo * __ptr64>::_Bind<1,void,void (__cdecl*const)(CUDADeviceSearchThreadInfo * __ptr64),CUDADeviceSearchThreadInfo * __ptr64><void (__cdecl*& __ptr64)(CUDADeviceSearchThreadInfo * __ptr64),CUDADeviceSearchThreadInfo * __ptr64>
PUBLIC	??0?$_Bind@$00XQ6AXXZ$$$V@std@@QEAA@$$QEAV01@@Z	; std::_Bind<1,void,void (__cdecl*const)(void)>::_Bind<1,void,void (__cdecl*const)(void)>
PUBLIC	??0?$_Bind@$00XQ6AXPEAUOpenCLDeviceSearchThreadInfo@@@ZPEAU1@@std@@QEAA@$$QEAV01@@Z ; std::_Bind<1,void,void (__cdecl*const)(OpenCLDeviceSearchThreadInfo * __ptr64),OpenCLDeviceSearchThreadInfo * __ptr64>::_Bind<1,void,void (__cdecl*const)(OpenCLDeviceSearchThreadInfo * __ptr64),OpenCLDeviceSearchThreadInfo * __ptr64>
PUBLIC	??0?$_Bind@$00XQ6AXPEAUCUDADeviceSearchThreadInfo@@@ZPEAU1@@std@@QEAA@$$QEAV01@@Z ; std::_Bind<1,void,void (__cdecl*const)(CUDADeviceSearchThreadInfo * __ptr64),CUDADeviceSearchThreadInfo * __ptr64>::_Bind<1,void,void (__cdecl*const)(CUDADeviceSearchThreadInfo * __ptr64),CUDADeviceSearchThreadInfo * __ptr64>
PUBLIC	?_Run@?$_LaunchPad@V?$_Bind@$00XQ6AXXZ$$$V@std@@@std@@CAIPEAV12@@Z ; std::_LaunchPad<std::_Bind<1,void,void (__cdecl*const)(void)> >::_Run
PUBLIC	?_Run@?$_LaunchPad@V?$_Bind@$00XQ6AXPEAUOpenCLDeviceSearchThreadInfo@@@ZPEAU1@@std@@@std@@CAIPEAV12@@Z ; std::_LaunchPad<std::_Bind<1,void,void (__cdecl*const)(OpenCLDeviceSearchThreadInfo * __ptr64),OpenCLDeviceSearchThreadInfo * __ptr64> >::_Run
PUBLIC	?_Run@?$_LaunchPad@V?$_Bind@$00XQ6AXPEAUCUDADeviceSearchThreadInfo@@@ZPEAU1@@std@@@std@@CAIPEAV12@@Z ; std::_LaunchPad<std::_Bind<1,void,void (__cdecl*const)(CUDADeviceSearchThreadInfo * __ptr64),CUDADeviceSearchThreadInfo * __ptr64> >::_Run
PUBLIC	?_Go@?$_LaunchPad@V?$_Bind@$00XQ6AXXZ$$$V@std@@@std@@UEAAIXZ ; std::_LaunchPad<std::_Bind<1,void,void (__cdecl*const)(void)> >::_Go
PUBLIC	?_Go@?$_LaunchPad@V?$_Bind@$00XQ6AXPEAUOpenCLDeviceSearchThreadInfo@@@ZPEAU1@@std@@@std@@UEAAIXZ ; std::_LaunchPad<std::_Bind<1,void,void (__cdecl*const)(OpenCLDeviceSearchThreadInfo * __ptr64),OpenCLDeviceSearchThreadInfo * __ptr64> >::_Go
PUBLIC	?_Go@?$_LaunchPad@V?$_Bind@$00XQ6AXPEAUCUDADeviceSearchThreadInfo@@@ZPEAU1@@std@@@std@@UEAAIXZ ; std::_LaunchPad<std::_Bind<1,void,void (__cdecl*const)(CUDADeviceSearchThreadInfo * __ptr64),CUDADeviceSearchThreadInfo * __ptr64> >::_Go
PUBLIC	??1?$_LaunchPad@V?$_Bind@$00XQ6AXXZ$$$V@std@@@std@@QEAA@XZ ; std::_LaunchPad<std::_Bind<1,void,void (__cdecl*const)(void)> >::~_LaunchPad<std::_Bind<1,void,void (__cdecl*const)(void)> >
PUBLIC	??1?$_LaunchPad@V?$_Bind@$00XQ6AXPEAUOpenCLDeviceSearchThreadInfo@@@ZPEAU1@@std@@@std@@QEAA@XZ ; std::_LaunchPad<std::_Bind<1,void,void (__cdecl*const)(OpenCLDeviceSearchThreadInfo * __ptr64),OpenCLDeviceSearchThreadInfo * __ptr64> >::~_LaunchPad<std::_Bind<1,void,void (__cdecl*const)(OpenCLDeviceSearchThreadInfo * __ptr64),OpenCLDeviceSearchThreadInfo * __ptr64> >
PUBLIC	??1?$_LaunchPad@V?$_Bind@$00XQ6AXPEAUCUDADeviceSearchThreadInfo@@@ZPEAU1@@std@@@std@@QEAA@XZ ; std::_LaunchPad<std::_Bind<1,void,void (__cdecl*const)(CUDADeviceSearchThreadInfo * __ptr64),CUDADeviceSearchThreadInfo * __ptr64> >::~_LaunchPad<std::_Bind<1,void,void (__cdecl*const)(CUDADeviceSearchThreadInfo * __ptr64),CUDADeviceSearchThreadInfo * __ptr64> >
PUBLIC	??$_Launch@V?$_Bind@$00XQ6AXXZ$$$V@std@@@std@@YAXPEAU_Thrd_imp_t@@$$QEAV?$_Bind@$00XQ6AXXZ$$$V@0@@Z ; std::_Launch<std::_Bind<1,void,void (__cdecl*const)(void)> >
PUBLIC	??$bind@X$$$V$$$V@std@@YA?AV?$_Bind@$00XQ6AXXZ$$$V@0@P6AXXZ@Z ; std::bind<void>
PUBLIC	??$_Decay_copy@A6AXXZ@std@@YAP6AXXZA6AXXZ@Z	; std::_Decay_copy<void (__cdecl&)(void)>
PUBLIC	??$forward@A6AXXZ@std@@YAA6AXXZA6AXXZ@Z		; std::forward<void (__cdecl&)(void)>
PUBLIC	??$_Launch@V?$_Bind@$00XQ6AXPEAUOpenCLDeviceSearchThreadInfo@@@ZPEAU1@@std@@@std@@YAXPEAU_Thrd_imp_t@@$$QEAV?$_Bind@$00XQ6AXPEAUOpenCLDeviceSearchThreadInfo@@@ZPEAU1@@0@@Z ; std::_Launch<std::_Bind<1,void,void (__cdecl*const)(OpenCLDeviceSearchThreadInfo * __ptr64),OpenCLDeviceSearchThreadInfo * __ptr64> >
PUBLIC	??$bind@XPEAUOpenCLDeviceSearchThreadInfo@@PEAU1@@std@@YA?AV?$_Bind@$00XQ6AXPEAUOpenCLDeviceSearchThreadInfo@@@ZPEAU1@@0@P6AXPEAUOpenCLDeviceSearchThreadInfo@@@Z$$QEAPEAU2@@Z ; std::bind<void,OpenCLDeviceSearchThreadInfo * __ptr64,OpenCLDeviceSearchThreadInfo * __ptr64>
PUBLIC	??$_Decay_copy@PEAUOpenCLDeviceSearchThreadInfo@@@std@@YAPEAUOpenCLDeviceSearchThreadInfo@@$$QEAPEAU1@@Z ; std::_Decay_copy<OpenCLDeviceSearchThreadInfo * __ptr64>
PUBLIC	??$forward@PEAUOpenCLDeviceSearchThreadInfo@@@std@@YA$$QEAPEAUOpenCLDeviceSearchThreadInfo@@AEAPEAU1@@Z ; std::forward<OpenCLDeviceSearchThreadInfo * __ptr64>
PUBLIC	??$_Decay_copy@A6AXPEAUOpenCLDeviceSearchThreadInfo@@@Z@std@@YAP6AXPEAUOpenCLDeviceSearchThreadInfo@@@ZA6AX0@Z@Z ; std::_Decay_copy<void (__cdecl&)(OpenCLDeviceSearchThreadInfo * __ptr64)>
PUBLIC	??$forward@A6AXPEAUOpenCLDeviceSearchThreadInfo@@@Z@std@@YAA6AXPEAUOpenCLDeviceSearchThreadInfo@@@ZA6AX0@Z@Z ; std::forward<void (__cdecl&)(OpenCLDeviceSearchThreadInfo * __ptr64)>
PUBLIC	??$_Launch@V?$_Bind@$00XQ6AXPEAUCUDADeviceSearchThreadInfo@@@ZPEAU1@@std@@@std@@YAXPEAU_Thrd_imp_t@@$$QEAV?$_Bind@$00XQ6AXPEAUCUDADeviceSearchThreadInfo@@@ZPEAU1@@0@@Z ; std::_Launch<std::_Bind<1,void,void (__cdecl*const)(CUDADeviceSearchThreadInfo * __ptr64),CUDADeviceSearchThreadInfo * __ptr64> >
PUBLIC	??$bind@XPEAUCUDADeviceSearchThreadInfo@@PEAU1@@std@@YA?AV?$_Bind@$00XQ6AXPEAUCUDADeviceSearchThreadInfo@@@ZPEAU1@@0@P6AXPEAUCUDADeviceSearchThreadInfo@@@Z$$QEAPEAU2@@Z ; std::bind<void,CUDADeviceSearchThreadInfo * __ptr64,CUDADeviceSearchThreadInfo * __ptr64>
PUBLIC	??$_Decay_copy@PEAUCUDADeviceSearchThreadInfo@@@std@@YAPEAUCUDADeviceSearchThreadInfo@@$$QEAPEAU1@@Z ; std::_Decay_copy<CUDADeviceSearchThreadInfo * __ptr64>
PUBLIC	??$forward@PEAUCUDADeviceSearchThreadInfo@@@std@@YA$$QEAPEAUCUDADeviceSearchThreadInfo@@AEAPEAU1@@Z ; std::forward<CUDADeviceSearchThreadInfo * __ptr64>
PUBLIC	??$_Decay_copy@A6AXPEAUCUDADeviceSearchThreadInfo@@@Z@std@@YAP6AXPEAUCUDADeviceSearchThreadInfo@@@ZA6AX0@Z@Z ; std::_Decay_copy<void (__cdecl&)(CUDADeviceSearchThreadInfo * __ptr64)>
PUBLIC	??$forward@A6AXPEAUCUDADeviceSearchThreadInfo@@@Z@std@@YAA6AXPEAUCUDADeviceSearchThreadInfo@@@ZA6AX0@Z@Z ; std::forward<void (__cdecl&)(CUDADeviceSearchThreadInfo * __ptr64)>
PUBLIC	??$?0A6AXXZ$$$V@thread@std@@QEAA@A6AXXZ@Z	; std::thread::thread<void (__cdecl&)(void)>
PUBLIC	??$?0A6AXPEAUOpenCLDeviceSearchThreadInfo@@@ZPEAU0@@thread@std@@QEAA@A6AXPEAUOpenCLDeviceSearchThreadInfo@@@Z$$QEAPEAU2@@Z ; std::thread::thread<void (__cdecl&)(OpenCLDeviceSearchThreadInfo * __ptr64),OpenCLDeviceSearchThreadInfo * __ptr64>
PUBLIC	??$?0A6AXPEAUCUDADeviceSearchThreadInfo@@@ZPEAU0@@thread@std@@QEAA@A6AXPEAUCUDADeviceSearchThreadInfo@@@Z$$QEAPEAU2@@Z ; std::thread::thread<void (__cdecl&)(CUDADeviceSearchThreadInfo * __ptr64),CUDADeviceSearchThreadInfo * __ptr64>
PUBLIC	main
PUBLIC	?ListExpandedPatterns@@YAXXZ			; ListExpandedPatterns
PUBLIC	?GetParentProcessID@@YAHXZ			; GetParentProcessID
PUBLIC	?StartCPUSearchThreads@@YAXXZ			; StartCPUSearchThreads
PUBLIC	?StartGPUSearchThreads@@YAXXZ			; StartGPUSearchThreads
PUBLIC	?StartOpenCLDeviceSearchThreads@@YAXXZ		; StartOpenCLDeviceSearchThreads
PUBLIC	?StartCUDADeviceSearchThreads@@YAXXZ		; StartCUDADeviceSearchThreads
PUBLIC	?UpdateCurrentStatus@@YAN_K@Z			; UpdateCurrentStatus
PUBLIC	?SetTerminationState@@YAXXZ			; SetTerminationState
PUBLIC	?SetPauseState@@YAXH@Z				; SetPauseState
PUBLIC	?GetNumGeneratedTripcodesByGPU@@YANXZ		; GetNumGeneratedTripcodesByGPU
PUBLIC	?GetNumGeneratedTripcodesByCPU@@YANXZ		; GetNumGeneratedTripcodesByCPU
PUBLIC	?AddToNumGeneratedTripcodesByGPU@@YAXI@Z	; AddToNumGeneratedTripcodesByGPU
PUBLIC	?OpenTripcodeFile@@YAXXZ			; OpenTripcodeFile
PUBLIC	?ObtainOptions@@YAXHPEAPEAD@Z			; ObtainOptions
PUBLIC	?InitSearchDevices@@YAXH@Z			; InitSearchDevices
PUBLIC	?ListGPUsAndExit@@YAXXZ				; ListGPUsAndExit
PUBLIC	?ListOpenCLDevices@@YAXXZ			; ListOpenCLDevices
PUBLIC	?CountOpenCLDevices@@YAXXZ			; CountOpenCLDevices
PUBLIC	?ListCUDADevices@@YAXXZ				; ListCUDADevices
PUBLIC	?InitProcess@@YAXXZ				; InitProcess
PUBLIC	?ControlHandler@@YAHK@Z				; ControlHandler
PUBLIC	?PrintStatus@@YAXXZ				; PrintStatus
PUBLIC	?KeepSearchThreadsAlive@@YAXXZ			; KeepSearchThreadsAlive
PUBLIC	??_Gthread@std@@QEAAPEAXI@Z			; std::thread::`scalar deleting destructor'
PUBLIC	?CheckSearchThreads@@YAXXZ			; CheckSearchThreads
PUBLIC	?UpdateCUDADeviceStatus@@YAXPEAUCUDADeviceSearchThreadInfo@@PEAD@Z ; UpdateCUDADeviceStatus
PUBLIC	?DisplayCopyrights@@YAXXZ			; DisplayCopyrights
PUBLIC	?CreateCharacterTables@@YAXXZ			; CreateCharacterTables
PUBLIC	?CreateKey8AndKey9@@YAXPEAE@Z			; CreateKey8AndKey9
PUBLIC	?hide_cursor@@YAXXZ				; hide_cursor
PUBLIC	?ReleaseResources@@YAXXZ			; ReleaseResources
PUBLIC	?native_handle@thread@std@@QEAAPEAXXZ		; std::thread::native_handle
PUBLIC	?detach@thread@std@@QEAAXXZ			; std::thread::detach
PUBLIC	?joinable@thread@std@@QEBA_NXZ			; std::thread::joinable
PUBLIC	??1thread@std@@QEAA@XZ				; std::thread::~thread
PUBLIC	?_Thrd_detachX@std@@YAHU_Thrd_imp_t@@@Z		; std::_Thrd_detachX
PUBLIC	?_Check_C_return@std@@YAHH@Z			; std::_Check_C_return
PUBLIC	??0?$tuple@$$$V@std@@QEAA@AEBV01@@Z		; std::tuple<>::tuple<>
PUBLIC	??0?$tuple@$$$V@std@@QEAA@XZ			; std::tuple<>::tuple<>
PUBLIC	?ProcessValidTripcodePair@@YAXPEAE0@Z		; ProcessValidTripcodePair
PUBLIC	?ProcessInvalidTripcodePair@@YAXPEAE0@Z		; ProcessInvalidTripcodePair
PUBLIC	?UpdateOpenCLDeviceStatus_ChildProcess@@YAXPEAUOpenCLDeviceSearchThreadInfo@@PEADNNNIPEAVchild@windows@process@boost@@@Z ; UpdateOpenCLDeviceStatus_ChildProcess
PUBLIC	?SetErrorState@@YAXXZ				; SetErrorState
PUBLIC	?UpdateOpenCLDeviceStatus@@YAXPEAUOpenCLDeviceSearchThreadInfo@@PEAD@Z ; UpdateOpenCLDeviceStatus
PUBLIC	?GetErrorMessage@@YAPEADH@Z			; GetErrorMessage
PUBLIC	?GetErrorState@@YAHXZ				; GetErrorState
PUBLIC	?reset_cursor_pos@@YAXH@Z			; reset_cursor_pos
PUBLIC	?show_cursor@@YAXXZ				; show_cursor
PUBLIC	?ProcessGPUOutput@@YANPEAEPEAUGPUOutput@@IH@Z	; ProcessGPUOutput
PUBLIC	?SetCharactersInTripcodeKeyForSHA1Tripcode@@YAXPEAE@Z ; SetCharactersInTripcodeKeyForSHA1Tripcode
PUBLIC	?GetPauseState@@YAHXZ				; GetPauseState
PUBLIC	?AddToNumGeneratedTripcodesByCPU@@YAXI@Z	; AddToNumGeneratedTripcodesByCPU
PUBLIC	?IsValidKey@@YAHPEAE@Z				; IsValidKey
PUBLIC	?GetTerminationState@@YAHXZ			; GetTerminationState
PUBLIC	?RandomByte@@YAEXZ				; RandomByte
PUBLIC	?IsFirstByteSJIS@@YAHE@Z			; IsFirstByteSJIS
PUBLIC	?SetCharactersInTripcodeKey@@YAXPEAEH@Z		; SetCharactersInTripcodeKey
PUBLIC	?num_generated_tripcodes_spinlock@@3Vspinlock@@A ; num_generated_tripcodes_spinlock
PUBLIC	?process_tripcode_pair_spinlock@@3Vspinlock@@A	; process_tripcode_pair_spinlock
PUBLIC	?cuda_device_search_thread_info_array_spinlock@@3Vspinlock@@A ; cuda_device_search_thread_info_array_spinlock
PUBLIC	?current_state_spinlock@@3Vspinlock@@A		; current_state_spinlock
PUBLIC	?opencl_device_search_thread_info_array_spinlock@@3Vspinlock@@A ; opencl_device_search_thread_info_array_spinlock
PUBLIC	?boost_process_spinlock@@3Vspinlock@@A		; boost_process_spinlock
PUBLIC	?system_command_spinlock@@3Vspinlock@@A		; system_command_spinlock
_Tuple_alloc DB	01H DUP (?)
	ALIGN	8

errno_ecat DQ	01H DUP (?)
ignore	DB	01H DUP (?)
	ALIGN	4

?num_generated_tripcodes_spinlock@@3Vspinlock@@A DD 01H DUP (?) ; num_generated_tripcodes_spinlock
allocator_arg DB 01H DUP (?)
	ALIGN	4

?process_tripcode_pair_spinlock@@3Vspinlock@@A DD 01H DUP (?) ; process_tripcode_pair_spinlock
native_ecat DQ	01H DUP (?)
piecewise_construct DB 01H DUP (?)
	ALIGN	4

?cuda_device_search_thread_info_array_spinlock@@3Vspinlock@@A DD 01H DUP (?) ; cuda_device_search_thread_info_array_spinlock
?current_state_spinlock@@3Vspinlock@@A DD 01H DUP (?)	; current_state_spinlock
	ALIGN	8

posix_category DQ 01H DUP (?)
?opencl_device_search_thread_info_array_spinlock@@3Vspinlock@@A DD 01H DUP (?) ; opencl_device_search_thread_info_array_spinlock
?boost_process_spinlock@@3Vspinlock@@A DD 01H DUP (?)	; boost_process_spinlock
?system_command_spinlock@@3Vspinlock@@A DD 01H DUP (?)	; system_command_spinlock
_BSS	ENDS
;	COMDAT pdata
pdata	SEGMENT
$pdata$??$_Do_call@$$$V$S@?$_Bind@$00XQ6AXXZ$$$V@std@@QEAAXV?$tuple@$$$V@1@U?$_Arg_idx@$S@1@@Z DD imagerel $LN4
	DD	imagerel $LN4+11
	DD	imagerel $unwind$??$_Do_call@$$$V$S@?$_Bind@$00XQ6AXXZ$$$V@std@@QEAAXV?$tuple@$$$V@1@U?$_Arg_idx@$S@1@@Z
pdata	ENDS
;	COMDAT pdata
pdata	SEGMENT
$pdata$??$_Do_call@$$$V$0A@@?$_Bind@$00XQ6AXPEAUOpenCLDeviceSearchThreadInfo@@@ZPEAU1@@std@@QEAAXV?$tuple@$$$V@1@U?$_Arg_idx@$0A@@1@@Z DD imagerel $LN8
	DD	imagerel $LN8+18
	DD	imagerel $unwind$??$_Do_call@$$$V$0A@@?$_Bind@$00XQ6AXPEAUOpenCLDeviceSearchThreadInfo@@@ZPEAU1@@std@@QEAAXV?$tuple@$$$V@1@U?$_Arg_idx@$0A@@1@@Z
pdata	ENDS
;	COMDAT pdata
pdata	SEGMENT
$pdata$??$_Do_call@$$$V$0A@@?$_Bind@$00XQ6AXPEAUCUDADeviceSearchThreadInfo@@@ZPEAU1@@std@@QEAAXV?$tuple@$$$V@1@U?$_Arg_idx@$0A@@1@@Z DD imagerel $LN8
	DD	imagerel $LN8+18
	DD	imagerel $unwind$??$_Do_call@$$$V$0A@@?$_Bind@$00XQ6AXPEAUCUDADeviceSearchThreadInfo@@@ZPEAU1@@std@@QEAAXV?$tuple@$$$V@1@U?$_Arg_idx@$0A@@1@@Z
pdata	ENDS
;	COMDAT pdata
pdata	SEGMENT
$pdata$??$?0V?$_Bind@$00XQ6AXXZ$$$V@std@@@?$_LaunchPad@V?$_Bind@$00XQ6AXXZ$$$V@std@@@std@@QEAA@$$QEAV?$_Bind@$00XQ6AXXZ$$$V@1@@Z DD imagerel $LN15
	DD	imagerel $LN15+52
	DD	imagerel $unwind$??$?0V?$_Bind@$00XQ6AXXZ$$$V@std@@@?$_LaunchPad@V?$_Bind@$00XQ6AXXZ$$$V@std@@@std@@QEAA@$$QEAV?$_Bind@$00XQ6AXXZ$$$V@1@@Z
pdata	ENDS
;	COMDAT pdata
pdata	SEGMENT
$pdata$??$?0V?$_Bind@$00XQ6AXPEAUOpenCLDeviceSearchThreadInfo@@@ZPEAU1@@std@@@?$_LaunchPad@V?$_Bind@$00XQ6AXPEAUOpenCLDeviceSearchThreadInfo@@@ZPEAU1@@std@@@std@@QEAA@$$QEAV?$_Bind@$00XQ6AXPEAUOpenCLDeviceSearchThreadInfo@@@ZPEAU1@@1@@Z DD imagerel $LN27
	DD	imagerel $LN27+60
	DD	imagerel $unwind$??$?0V?$_Bind@$00XQ6AXPEAUOpenCLDeviceSearchThreadInfo@@@ZPEAU1@@std@@@?$_LaunchPad@V?$_Bind@$00XQ6AXPEAUOpenCLDeviceSearchThreadInfo@@@ZPEAU1@@std@@@std@@QEAA@$$QEAV?$_Bind@$00XQ6AXPEAUOpenCLDeviceSearchThreadInfo@@@ZPEAU1@@1@@Z
pdata	ENDS
;	COMDAT pdata
pdata	SEGMENT
$pdata$??$?0V?$_Bind@$00XQ6AXPEAUCUDADeviceSearchThreadInfo@@@ZPEAU1@@std@@@?$_LaunchPad@V?$_Bind@$00XQ6AXPEAUCUDADeviceSearchThreadInfo@@@ZPEAU1@@std@@@std@@QEAA@$$QEAV?$_Bind@$00XQ6AXPEAUCUDADeviceSearchThreadInfo@@@ZPEAU1@@1@@Z DD imagerel $LN27
	DD	imagerel $LN27+60
	DD	imagerel $unwind$??$?0V?$_Bind@$00XQ6AXPEAUCUDADeviceSearchThreadInfo@@@ZPEAU1@@std@@@?$_LaunchPad@V?$_Bind@$00XQ6AXPEAUCUDADeviceSearchThreadInfo@@@ZPEAU1@@std@@@std@@QEAA@$$QEAV?$_Bind@$00XQ6AXPEAUCUDADeviceSearchThreadInfo@@@ZPEAU1@@1@@Z
pdata	ENDS
;	COMDAT pdata
pdata	SEGMENT
$pdata$?_Run@?$_LaunchPad@V?$_Bind@$00XQ6AXXZ$$$V@std@@@std@@CAIPEAV12@@Z DD imagerel $LN22
	DD	imagerel $LN22+25
	DD	imagerel $unwind$?_Run@?$_LaunchPad@V?$_Bind@$00XQ6AXXZ$$$V@std@@@std@@CAIPEAV12@@Z
pdata	ENDS
;	COMDAT pdata
pdata	SEGMENT
$pdata$?_Run@?$_LaunchPad@V?$_Bind@$00XQ6AXPEAUOpenCLDeviceSearchThreadInfo@@@ZPEAU1@@std@@@std@@CAIPEAV12@@Z DD imagerel $LN38
	DD	imagerel $LN38+41
	DD	imagerel $unwind$?_Run@?$_LaunchPad@V?$_Bind@$00XQ6AXPEAUOpenCLDeviceSearchThreadInfo@@@ZPEAU1@@std@@@std@@CAIPEAV12@@Z
pdata	ENDS
;	COMDAT pdata
pdata	SEGMENT
$pdata$?_Run@?$_LaunchPad@V?$_Bind@$00XQ6AXPEAUCUDADeviceSearchThreadInfo@@@ZPEAU1@@std@@@std@@CAIPEAV12@@Z DD imagerel $LN38
	DD	imagerel $LN38+41
	DD	imagerel $unwind$?_Run@?$_LaunchPad@V?$_Bind@$00XQ6AXPEAUCUDADeviceSearchThreadInfo@@@ZPEAU1@@std@@@std@@CAIPEAV12@@Z
pdata	ENDS
;	COMDAT pdata
pdata	SEGMENT
$pdata$?_Go@?$_LaunchPad@V?$_Bind@$00XQ6AXXZ$$$V@std@@@std@@UEAAIXZ DD imagerel $LN24
	DD	imagerel $LN24+25
	DD	imagerel $unwind$?_Go@?$_LaunchPad@V?$_Bind@$00XQ6AXXZ$$$V@std@@@std@@UEAAIXZ
pdata	ENDS
;	COMDAT pdata
pdata	SEGMENT
$pdata$?_Go@?$_LaunchPad@V?$_Bind@$00XQ6AXPEAUOpenCLDeviceSearchThreadInfo@@@ZPEAU1@@std@@@std@@UEAAIXZ DD imagerel $LN40
	DD	imagerel $LN40+41
	DD	imagerel $unwind$?_Go@?$_LaunchPad@V?$_Bind@$00XQ6AXPEAUOpenCLDeviceSearchThreadInfo@@@ZPEAU1@@std@@@std@@UEAAIXZ
pdata	ENDS
;	COMDAT pdata
pdata	SEGMENT
$pdata$?_Go@?$_LaunchPad@V?$_Bind@$00XQ6AXPEAUCUDADeviceSearchThreadInfo@@@ZPEAU1@@std@@@std@@UEAAIXZ DD imagerel $LN40
	DD	imagerel $LN40+41
	DD	imagerel $unwind$?_Go@?$_LaunchPad@V?$_Bind@$00XQ6AXPEAUCUDADeviceSearchThreadInfo@@@ZPEAU1@@std@@@std@@UEAAIXZ
pdata	ENDS
;	COMDAT pdata
pdata	SEGMENT
$pdata$??$_Launch@V?$_Bind@$00XQ6AXXZ$$$V@std@@@std@@YAXPEAU_Thrd_imp_t@@$$QEAV?$_Bind@$00XQ6AXXZ$$$V@0@@Z DD imagerel $LN21
	DD	imagerel $LN21+91
	DD	imagerel $unwind$??$_Launch@V?$_Bind@$00XQ6AXXZ$$$V@std@@@std@@YAXPEAU_Thrd_imp_t@@$$QEAV?$_Bind@$00XQ6AXXZ$$$V@0@@Z
pdata	ENDS
;	COMDAT pdata
pdata	SEGMENT
$pdata$??$_Launch@V?$_Bind@$00XQ6AXPEAUOpenCLDeviceSearchThreadInfo@@@ZPEAU1@@std@@@std@@YAXPEAU_Thrd_imp_t@@$$QEAV?$_Bind@$00XQ6AXPEAUOpenCLDeviceSearchThreadInfo@@@ZPEAU1@@0@@Z DD imagerel $LN33
	DD	imagerel $LN33+100
	DD	imagerel $unwind$??$_Launch@V?$_Bind@$00XQ6AXPEAUOpenCLDeviceSearchThreadInfo@@@ZPEAU1@@std@@@std@@YAXPEAU_Thrd_imp_t@@$$QEAV?$_Bind@$00XQ6AXPEAUOpenCLDeviceSearchThreadInfo@@@ZPEAU1@@0@@Z
pdata	ENDS
;	COMDAT pdata
pdata	SEGMENT
$pdata$??$_Launch@V?$_Bind@$00XQ6AXPEAUCUDADeviceSearchThreadInfo@@@ZPEAU1@@std@@@std@@YAXPEAU_Thrd_imp_t@@$$QEAV?$_Bind@$00XQ6AXPEAUCUDADeviceSearchThreadInfo@@@ZPEAU1@@0@@Z DD imagerel $LN33
	DD	imagerel $LN33+100
	DD	imagerel $unwind$??$_Launch@V?$_Bind@$00XQ6AXPEAUCUDADeviceSearchThreadInfo@@@ZPEAU1@@std@@@std@@YAXPEAU_Thrd_imp_t@@$$QEAV?$_Bind@$00XQ6AXPEAUCUDADeviceSearchThreadInfo@@@ZPEAU1@@0@@Z
pdata	ENDS
;	COMDAT pdata
pdata	SEGMENT
$pdata$??$?0A6AXXZ$$$V@thread@std@@QEAA@A6AXXZ@Z DD imagerel $LN37
	DD	imagerel $LN37+91
	DD	imagerel $unwind$??$?0A6AXXZ$$$V@thread@std@@QEAA@A6AXXZ@Z
pdata	ENDS
;	COMDAT pdata
pdata	SEGMENT
$pdata$??$?0A6AXPEAUOpenCLDeviceSearchThreadInfo@@@ZPEAU0@@thread@std@@QEAA@A6AXPEAUOpenCLDeviceSearchThreadInfo@@@Z$$QEAPEAU2@@Z DD imagerel $LN67
	DD	imagerel $LN67+109
	DD	imagerel $unwind$??$?0A6AXPEAUOpenCLDeviceSearchThreadInfo@@@ZPEAU0@@thread@std@@QEAA@A6AXPEAUOpenCLDeviceSearchThreadInfo@@@Z$$QEAPEAU2@@Z
pdata	ENDS
;	COMDAT pdata
pdata	SEGMENT
$pdata$??$?0A6AXPEAUCUDADeviceSearchThreadInfo@@@ZPEAU0@@thread@std@@QEAA@A6AXPEAUCUDADeviceSearchThreadInfo@@@Z$$QEAPEAU2@@Z DD imagerel $LN67
	DD	imagerel $LN67+109
	DD	imagerel $unwind$??$?0A6AXPEAUCUDADeviceSearchThreadInfo@@@ZPEAU0@@thread@std@@QEAA@A6AXPEAUCUDADeviceSearchThreadInfo@@@Z$$QEAPEAU2@@Z
pdata	ENDS
;	COMDAT pdata
pdata	SEGMENT
$pdata$main DD	imagerel $LN664
	DD	imagerel $LN664+850
	DD	imagerel $unwind$main
pdata	ENDS
;	COMDAT pdata
pdata	SEGMENT
$pdata$1$main DD imagerel $LN664+850
	DD	imagerel $LN664+1418
	DD	imagerel $chain$1$main
pdata	ENDS
;	COMDAT pdata
pdata	SEGMENT
$pdata$2$main DD imagerel $LN664+1418
	DD	imagerel $LN664+1945
	DD	imagerel $chain$2$main
pdata	ENDS
;	COMDAT pdata
pdata	SEGMENT
$pdata$?ListExpandedPatterns@@YAXXZ DD imagerel $LN11
	DD	imagerel $LN11+16
	DD	imagerel $unwind$?ListExpandedPatterns@@YAXXZ
pdata	ENDS
;	COMDAT pdata
pdata	SEGMENT
$pdata$0$?ListExpandedPatterns@@YAXXZ DD imagerel $LN11+16
	DD	imagerel $LN11+91
	DD	imagerel $chain$0$?ListExpandedPatterns@@YAXXZ
pdata	ENDS
;	COMDAT pdata
pdata	SEGMENT
$pdata$1$?ListExpandedPatterns@@YAXXZ DD imagerel $LN11+91
	DD	imagerel $LN11+97
	DD	imagerel $chain$1$?ListExpandedPatterns@@YAXXZ
pdata	ENDS
;	COMDAT pdata
pdata	SEGMENT
$pdata$?GetParentProcessID@@YAHXZ DD imagerel $LN13
	DD	imagerel $LN13+190
	DD	imagerel $unwind$?GetParentProcessID@@YAHXZ
pdata	ENDS
;	COMDAT pdata
pdata	SEGMENT
$pdata$?StartCPUSearchThreads@@YAXXZ DD imagerel $LN536
	DD	imagerel $LN536+1529
	DD	imagerel $unwind$?StartCPUSearchThreads@@YAXXZ
pdata	ENDS
;	COMDAT pdata
pdata	SEGMENT
$pdata$?dtor$0@?0??StartCPUSearchThreads@@YAXXZ@4HA DD imagerel ?dtor$0@?0??StartCPUSearchThreads@@YAXXZ@4HA
	DD	imagerel ?dtor$0@?0??StartCPUSearchThreads@@YAXXZ@4HA+31
	DD	imagerel $unwind$?dtor$0@?0??StartCPUSearchThreads@@YAXXZ@4HA
pdata	ENDS
;	COMDAT pdata
pdata	SEGMENT
$pdata$?dtor$1@?0??StartCPUSearchThreads@@YAXXZ@4HA DD imagerel ?dtor$1@?0??StartCPUSearchThreads@@YAXXZ@4HA
	DD	imagerel ?dtor$1@?0??StartCPUSearchThreads@@YAXXZ@4HA+31
	DD	imagerel $unwind$?dtor$1@?0??StartCPUSearchThreads@@YAXXZ@4HA
pdata	ENDS
;	COMDAT pdata
pdata	SEGMENT
$pdata$?StartGPUSearchThreads@@YAXXZ DD imagerel $LN6
	DD	imagerel $LN6+41
	DD	imagerel $unwind$?StartGPUSearchThreads@@YAXXZ
pdata	ENDS
;	COMDAT pdata
pdata	SEGMENT
$pdata$?StartOpenCLDeviceSearchThreads@@YAXXZ DD imagerel $LN1652
	DD	imagerel $LN1652+5703
	DD	imagerel $unwind$?StartOpenCLDeviceSearchThreads@@YAXXZ
pdata	ENDS
;	COMDAT pdata
pdata	SEGMENT
$pdata$?StartCUDADeviceSearchThreads@@YAXXZ DD imagerel $LN1345
	DD	imagerel $LN1345+3947
	DD	imagerel $unwind$?StartCUDADeviceSearchThreads@@YAXXZ
pdata	ENDS
;	COMDAT pdata
pdata	SEGMENT
$pdata$?dtor$0@?0??StartCUDADeviceSearchThreads@@YAXXZ@4HA DD imagerel ?dtor$0@?0??StartCUDADeviceSearchThreads@@YAXXZ@4HA
	DD	imagerel ?dtor$0@?0??StartCUDADeviceSearchThreads@@YAXXZ@4HA+31
	DD	imagerel $unwind$?dtor$0@?0??StartCUDADeviceSearchThreads@@YAXXZ@4HA
pdata	ENDS
;	COMDAT pdata
pdata	SEGMENT
$pdata$?dtor$1@?0??StartCUDADeviceSearchThreads@@YAXXZ@4HA DD imagerel ?dtor$1@?0??StartCUDADeviceSearchThreads@@YAXXZ@4HA
	DD	imagerel ?dtor$1@?0??StartCUDADeviceSearchThreads@@YAXXZ@4HA+31
	DD	imagerel $unwind$?dtor$1@?0??StartCUDADeviceSearchThreads@@YAXXZ@4HA
pdata	ENDS
;	COMDAT pdata
pdata	SEGMENT
$pdata$?dtor$2@?0??StartCUDADeviceSearchThreads@@YAXXZ@4HA DD imagerel ?dtor$2@?0??StartCUDADeviceSearchThreads@@YAXXZ@4HA
	DD	imagerel ?dtor$2@?0??StartCUDADeviceSearchThreads@@YAXXZ@4HA+31
	DD	imagerel $unwind$?dtor$2@?0??StartCUDADeviceSearchThreads@@YAXXZ@4HA
pdata	ENDS
;	COMDAT pdata
pdata	SEGMENT
$pdata$?UpdateCurrentStatus@@YAN_K@Z DD imagerel $LN191
	DD	imagerel $LN191+543
	DD	imagerel $unwind$?UpdateCurrentStatus@@YAN_K@Z
pdata	ENDS
;	COMDAT pdata
pdata	SEGMENT
$pdata$?SetTerminationState@@YAXXZ DD imagerel $LN50
	DD	imagerel $LN50+64
	DD	imagerel $unwind$?SetTerminationState@@YAXXZ
pdata	ENDS
;	COMDAT pdata
pdata	SEGMENT
$pdata$?SetPauseState@@YAXH@Z DD imagerel $LN50
	DD	imagerel $LN50+73
	DD	imagerel $unwind$?SetPauseState@@YAXH@Z
pdata	ENDS
;	COMDAT pdata
pdata	SEGMENT
$pdata$?GetNumGeneratedTripcodesByGPU@@YANXZ DD imagerel $LN49
	DD	imagerel $LN49+104
	DD	imagerel $unwind$?GetNumGeneratedTripcodesByGPU@@YANXZ
pdata	ENDS
;	COMDAT pdata
pdata	SEGMENT
$pdata$?GetNumGeneratedTripcodesByCPU@@YANXZ DD imagerel $LN49
	DD	imagerel $LN49+104
	DD	imagerel $unwind$?GetNumGeneratedTripcodesByCPU@@YANXZ
pdata	ENDS
;	COMDAT pdata
pdata	SEGMENT
$pdata$?AddToNumGeneratedTripcodesByGPU@@YAXI@Z DD imagerel $LN52
	DD	imagerel $LN52+135
	DD	imagerel $unwind$?AddToNumGeneratedTripcodesByGPU@@YAXI@Z
pdata	ENDS
;	COMDAT pdata
pdata	SEGMENT
$pdata$?OpenTripcodeFile@@YAXXZ DD imagerel $LN103
	DD	imagerel $LN103+35
	DD	imagerel $unwind$?OpenTripcodeFile@@YAXXZ
pdata	ENDS
;	COMDAT pdata
pdata	SEGMENT
$pdata$?ObtainOptions@@YAXHPEAPEAD@Z DD imagerel $LN1438
	DD	imagerel $LN1438+178
	DD	imagerel $unwind$?ObtainOptions@@YAXHPEAPEAD@Z
pdata	ENDS
;	COMDAT pdata
pdata	SEGMENT
$pdata$2$?ObtainOptions@@YAXHPEAPEAD@Z DD imagerel $LN1438+178
	DD	imagerel $LN1438+4001
	DD	imagerel $chain$2$?ObtainOptions@@YAXHPEAPEAD@Z
pdata	ENDS
;	COMDAT pdata
pdata	SEGMENT
$pdata$4$?ObtainOptions@@YAXHPEAPEAD@Z DD imagerel $LN1438+4001
	DD	imagerel $LN1438+8411
	DD	imagerel $chain$4$?ObtainOptions@@YAXHPEAPEAD@Z
pdata	ENDS
;	COMDAT pdata
pdata	SEGMENT
$pdata$5$?ObtainOptions@@YAXHPEAPEAD@Z DD imagerel $LN1438+8411
	DD	imagerel $LN1438+8417
	DD	imagerel $chain$5$?ObtainOptions@@YAXHPEAPEAD@Z
pdata	ENDS
;	COMDAT pdata
pdata	SEGMENT
$pdata$?InitSearchDevices@@YAXH@Z DD imagerel $LN1084
	DD	imagerel $LN1084+761
	DD	imagerel $unwind$?InitSearchDevices@@YAXH@Z
pdata	ENDS
;	COMDAT pdata
pdata	SEGMENT
$pdata$2$?InitSearchDevices@@YAXH@Z DD imagerel $LN1084+761
	DD	imagerel $LN1084+841
	DD	imagerel $chain$2$?InitSearchDevices@@YAXH@Z
pdata	ENDS
;	COMDAT pdata
pdata	SEGMENT
$pdata$3$?InitSearchDevices@@YAXH@Z DD imagerel $LN1084+841
	DD	imagerel $LN1084+1240
	DD	imagerel $chain$3$?InitSearchDevices@@YAXH@Z
pdata	ENDS
;	COMDAT pdata
pdata	SEGMENT
$pdata$4$?InitSearchDevices@@YAXH@Z DD imagerel $LN1084+1240
	DD	imagerel $LN1084+4851
	DD	imagerel $chain$4$?InitSearchDevices@@YAXH@Z
pdata	ENDS
;	COMDAT pdata
pdata	SEGMENT
$pdata$?ListGPUsAndExit@@YAXXZ DD imagerel $LN5
	DD	imagerel $LN5+31
	DD	imagerel $unwind$?ListGPUsAndExit@@YAXXZ
pdata	ENDS
;	COMDAT pdata
pdata	SEGMENT
$pdata$?ListOpenCLDevices@@YAXXZ DD imagerel $LN394
	DD	imagerel $LN394+52
	DD	imagerel $unwind$?ListOpenCLDevices@@YAXXZ
pdata	ENDS
;	COMDAT pdata
pdata	SEGMENT
$pdata$1$?ListOpenCLDevices@@YAXXZ DD imagerel $LN394+52
	DD	imagerel $LN394+608
	DD	imagerel $chain$1$?ListOpenCLDevices@@YAXXZ
pdata	ENDS
;	COMDAT pdata
pdata	SEGMENT
$pdata$2$?ListOpenCLDevices@@YAXXZ DD imagerel $LN394+608
	DD	imagerel $LN394+641
	DD	imagerel $chain$2$?ListOpenCLDevices@@YAXXZ
pdata	ENDS
;	COMDAT pdata
pdata	SEGMENT
$pdata$3$?ListOpenCLDevices@@YAXXZ DD imagerel $LN394+641
	DD	imagerel $LN394+1455
	DD	imagerel $chain$3$?ListOpenCLDevices@@YAXXZ
pdata	ENDS
;	COMDAT pdata
pdata	SEGMENT
$pdata$?CountOpenCLDevices@@YAXXZ DD imagerel $LN376
	DD	imagerel $LN376+58
	DD	imagerel $unwind$?CountOpenCLDevices@@YAXXZ
pdata	ENDS
;	COMDAT pdata
pdata	SEGMENT
$pdata$0$?CountOpenCLDevices@@YAXXZ DD imagerel $LN376+58
	DD	imagerel $LN376+80
	DD	imagerel $chain$0$?CountOpenCLDevices@@YAXXZ
pdata	ENDS
;	COMDAT pdata
pdata	SEGMENT
$pdata$2$?CountOpenCLDevices@@YAXXZ DD imagerel $LN376+80
	DD	imagerel $LN376+591
	DD	imagerel $chain$2$?CountOpenCLDevices@@YAXXZ
pdata	ENDS
;	COMDAT pdata
pdata	SEGMENT
$pdata$6$?CountOpenCLDevices@@YAXXZ DD imagerel $LN376+591
	DD	imagerel $LN376+1212
	DD	imagerel $chain$6$?CountOpenCLDevices@@YAXXZ
pdata	ENDS
;	COMDAT pdata
pdata	SEGMENT
$pdata$7$?CountOpenCLDevices@@YAXXZ DD imagerel $LN376+1212
	DD	imagerel $LN376+1220
	DD	imagerel $chain$7$?CountOpenCLDevices@@YAXXZ
pdata	ENDS
;	COMDAT pdata
pdata	SEGMENT
$pdata$8$?CountOpenCLDevices@@YAXXZ DD imagerel $LN376+1220
	DD	imagerel $LN376+1248
	DD	imagerel $chain$8$?CountOpenCLDevices@@YAXXZ
pdata	ENDS
;	COMDAT pdata
pdata	SEGMENT
$pdata$9$?CountOpenCLDevices@@YAXXZ DD imagerel $LN376+1248
	DD	imagerel $LN376+1803
	DD	imagerel $chain$9$?CountOpenCLDevices@@YAXXZ
pdata	ENDS
;	COMDAT pdata
pdata	SEGMENT
$pdata$?ListCUDADevices@@YAXXZ DD imagerel $LN11
	DD	imagerel $LN11+115
	DD	imagerel $unwind$?ListCUDADevices@@YAXXZ
pdata	ENDS
;	COMDAT pdata
pdata	SEGMENT
$pdata$?InitProcess@@YAXXZ DD imagerel $LN6
	DD	imagerel $LN6+61
	DD	imagerel $unwind$?InitProcess@@YAXXZ
pdata	ENDS
;	COMDAT pdata
pdata	SEGMENT
$pdata$?ControlHandler@@YAHK@Z DD imagerel $LN74
	DD	imagerel $LN74+100
	DD	imagerel $unwind$?ControlHandler@@YAHK@Z
pdata	ENDS
;	COMDAT pdata
pdata	SEGMENT
$pdata$?PrintStatus@@YAXXZ DD imagerel $LN332
	DD	imagerel $LN332+120
	DD	imagerel $unwind$?PrintStatus@@YAXXZ
pdata	ENDS
;	COMDAT pdata
pdata	SEGMENT
$pdata$5$?PrintStatus@@YAXXZ DD imagerel $LN332+120
	DD	imagerel $LN332+395
	DD	imagerel $chain$5$?PrintStatus@@YAXXZ
pdata	ENDS
;	COMDAT pdata
pdata	SEGMENT
$pdata$7$?PrintStatus@@YAXXZ DD imagerel $LN332+395
	DD	imagerel $LN332+686
	DD	imagerel $chain$7$?PrintStatus@@YAXXZ
pdata	ENDS
;	COMDAT pdata
pdata	SEGMENT
$pdata$8$?PrintStatus@@YAXXZ DD imagerel $LN332+686
	DD	imagerel $LN332+1571
	DD	imagerel $chain$8$?PrintStatus@@YAXXZ
pdata	ENDS
;	COMDAT pdata
pdata	SEGMENT
$pdata$13$?PrintStatus@@YAXXZ DD imagerel $LN332+1571
	DD	imagerel $LN332+1682
	DD	imagerel $chain$13$?PrintStatus@@YAXXZ
pdata	ENDS
;	COMDAT pdata
pdata	SEGMENT
$pdata$15$?PrintStatus@@YAXXZ DD imagerel $LN332+1682
	DD	imagerel $LN332+1951
	DD	imagerel $chain$15$?PrintStatus@@YAXXZ
pdata	ENDS
;	COMDAT pdata
pdata	SEGMENT
$pdata$16$?PrintStatus@@YAXXZ DD imagerel $LN332+1951
	DD	imagerel $LN332+3016
	DD	imagerel $chain$16$?PrintStatus@@YAXXZ
pdata	ENDS
;	COMDAT pdata
pdata	SEGMENT
$pdata$17$?PrintStatus@@YAXXZ DD imagerel $LN332+3016
	DD	imagerel $LN332+3595
	DD	imagerel $chain$17$?PrintStatus@@YAXXZ
pdata	ENDS
;	COMDAT pdata
pdata	SEGMENT
$pdata$18$?PrintStatus@@YAXXZ DD imagerel $LN332+3595
	DD	imagerel $LN332+3621
	DD	imagerel $chain$18$?PrintStatus@@YAXXZ
pdata	ENDS
;	COMDAT pdata
pdata	SEGMENT
$pdata$?KeepSearchThreadsAlive@@YAXXZ DD imagerel $LN183
	DD	imagerel $LN183+318
	DD	imagerel $unwind$?KeepSearchThreadsAlive@@YAXXZ
pdata	ENDS
;	COMDAT pdata
pdata	SEGMENT
$pdata$??_Gthread@std@@QEAAPEAXI@Z DD imagerel $LN13
	DD	imagerel $LN13+35
	DD	imagerel $unwind$??_Gthread@std@@QEAAPEAXI@Z
pdata	ENDS
;	COMDAT pdata
pdata	SEGMENT
$pdata$?CheckSearchThreads@@YAXXZ DD imagerel $LN486
	DD	imagerel $LN486+1328
	DD	imagerel $unwind$?CheckSearchThreads@@YAXXZ
pdata	ENDS
;	COMDAT pdata
pdata	SEGMENT
$pdata$?UpdateCUDADeviceStatus@@YAXPEAUCUDADeviceSearchThreadInfo@@PEAD@Z DD imagerel $LN87
	DD	imagerel $LN87+150
	DD	imagerel $unwind$?UpdateCUDADeviceStatus@@YAXPEAUCUDADeviceSearchThreadInfo@@PEAD@Z
pdata	ENDS
;	COMDAT pdata
pdata	SEGMENT
$pdata$?DisplayCopyrights@@YAXXZ DD imagerel $LN4
	DD	imagerel $LN4+113
	DD	imagerel $unwind$?DisplayCopyrights@@YAXXZ
pdata	ENDS
;	COMDAT pdata
pdata	SEGMENT
$pdata$?CreateCharacterTables@@YAXXZ DD imagerel $LN495
	DD	imagerel $LN495+1171
	DD	imagerel $unwind$?CreateCharacterTables@@YAXXZ
pdata	ENDS
;	COMDAT pdata
pdata	SEGMENT
$pdata$?CreateKey8AndKey9@@YAXPEAE@Z DD imagerel $LN146
	DD	imagerel $LN146+397
	DD	imagerel $unwind$?CreateKey8AndKey9@@YAXPEAE@Z
pdata	ENDS
;	COMDAT pdata
pdata	SEGMENT
$pdata$0$?CreateKey8AndKey9@@YAXPEAE@Z DD imagerel $LN146+397
	DD	imagerel $LN146+540
	DD	imagerel $chain$0$?CreateKey8AndKey9@@YAXPEAE@Z
pdata	ENDS
;	COMDAT pdata
pdata	SEGMENT
$pdata$2$?CreateKey8AndKey9@@YAXPEAE@Z DD imagerel $LN146+540
	DD	imagerel $LN146+634
	DD	imagerel $chain$2$?CreateKey8AndKey9@@YAXPEAE@Z
pdata	ENDS
;	COMDAT pdata
pdata	SEGMENT
$pdata$4$?CreateKey8AndKey9@@YAXPEAE@Z DD imagerel $LN146+634
	DD	imagerel $LN146+672
	DD	imagerel $chain$4$?CreateKey8AndKey9@@YAXPEAE@Z
pdata	ENDS
;	COMDAT pdata
pdata	SEGMENT
$pdata$?hide_cursor@@YAXXZ DD imagerel $LN4
	DD	imagerel $LN4+43
	DD	imagerel $unwind$?hide_cursor@@YAXXZ
pdata	ENDS
;	COMDAT pdata
pdata	SEGMENT
$pdata$?ReleaseResources@@YAXXZ DD imagerel $LN11
	DD	imagerel $LN11+135
	DD	imagerel $unwind$?ReleaseResources@@YAXXZ
pdata	ENDS
;	COMDAT pdata
pdata	SEGMENT
$pdata$??__Enative_ecat@system@boost@@YAXXZ DD imagerel ??__Enative_ecat@system@boost@@YAXXZ
	DD	imagerel ??__Enative_ecat@system@boost@@YAXXZ+21
	DD	imagerel $unwind$??__Enative_ecat@system@boost@@YAXXZ
pdata	ENDS
;	COMDAT pdata
pdata	SEGMENT
$pdata$??__Eerrno_ecat@system@boost@@YAXXZ DD imagerel ??__Eerrno_ecat@system@boost@@YAXXZ
	DD	imagerel ??__Eerrno_ecat@system@boost@@YAXXZ+21
	DD	imagerel $unwind$??__Eerrno_ecat@system@boost@@YAXXZ
pdata	ENDS
;	COMDAT pdata
pdata	SEGMENT
$pdata$??__Eposix_category@system@boost@@YAXXZ DD imagerel ??__Eposix_category@system@boost@@YAXXZ
	DD	imagerel ??__Eposix_category@system@boost@@YAXXZ+21
	DD	imagerel $unwind$??__Eposix_category@system@boost@@YAXXZ
pdata	ENDS
;	COMDAT pdata
pdata	SEGMENT
$pdata$?detach@thread@std@@QEAAXXZ DD imagerel $LN13
	DD	imagerel $LN13+67
	DD	imagerel $unwind$?detach@thread@std@@QEAAXXZ
pdata	ENDS
;	COMDAT pdata
pdata	SEGMENT
$pdata$??1thread@std@@QEAA@XZ DD imagerel $LN9
	DD	imagerel $LN9+21
	DD	imagerel $unwind$??1thread@std@@QEAA@XZ
pdata	ENDS
;	COMDAT pdata
pdata	SEGMENT
$pdata$?_Thrd_detachX@std@@YAHU_Thrd_imp_t@@@Z DD imagerel $LN8
	DD	imagerel $LN8+46
	DD	imagerel $unwind$?_Thrd_detachX@std@@YAHU_Thrd_imp_t@@@Z
pdata	ENDS
;	COMDAT pdata
pdata	SEGMENT
$pdata$?_Check_C_return@std@@YAHH@Z DD imagerel $LN6
	DD	imagerel $LN6+25
	DD	imagerel $unwind$?_Check_C_return@std@@YAHH@Z
pdata	ENDS
;	COMDAT pdata
pdata	SEGMENT
$pdata$?ProcessValidTripcodePair@@YAXPEAE0@Z DD imagerel $LN442
	DD	imagerel $LN442+522
	DD	imagerel $unwind$?ProcessValidTripcodePair@@YAXPEAE0@Z
pdata	ENDS
;	COMDAT pdata
pdata	SEGMENT
$pdata$0$?ProcessValidTripcodePair@@YAXPEAE0@Z DD imagerel $LN442+522
	DD	imagerel $LN442+547
	DD	imagerel $chain$0$?ProcessValidTripcodePair@@YAXPEAE0@Z
pdata	ENDS
;	COMDAT pdata
pdata	SEGMENT
$pdata$1$?ProcessValidTripcodePair@@YAXPEAE0@Z DD imagerel $LN442+547
	DD	imagerel $LN442+853
	DD	imagerel $chain$1$?ProcessValidTripcodePair@@YAXPEAE0@Z
pdata	ENDS
;	COMDAT pdata
pdata	SEGMENT
$pdata$2$?ProcessValidTripcodePair@@YAXPEAE0@Z DD imagerel $LN442+853
	DD	imagerel $LN442+1488
	DD	imagerel $chain$2$?ProcessValidTripcodePair@@YAXPEAE0@Z
pdata	ENDS
;	COMDAT pdata
pdata	SEGMENT
$pdata$3$?ProcessValidTripcodePair@@YAXPEAE0@Z DD imagerel $LN442+1488
	DD	imagerel $LN442+1597
	DD	imagerel $chain$3$?ProcessValidTripcodePair@@YAXPEAE0@Z
pdata	ENDS
;	COMDAT pdata
pdata	SEGMENT
$pdata$?ProcessInvalidTripcodePair@@YAXPEAE0@Z DD imagerel $LN247
	DD	imagerel $LN247+6
	DD	imagerel $unwind$?ProcessInvalidTripcodePair@@YAXPEAE0@Z
pdata	ENDS
;	COMDAT pdata
pdata	SEGMENT
$pdata$1$?ProcessInvalidTripcodePair@@YAXPEAE0@Z DD imagerel $LN247+6
	DD	imagerel $LN247+182
	DD	imagerel $chain$1$?ProcessInvalidTripcodePair@@YAXPEAE0@Z
pdata	ENDS
;	COMDAT pdata
pdata	SEGMENT
$pdata$2$?ProcessInvalidTripcodePair@@YAXPEAE0@Z DD imagerel $LN247+182
	DD	imagerel $LN247+187
	DD	imagerel $chain$2$?ProcessInvalidTripcodePair@@YAXPEAE0@Z
pdata	ENDS
;	COMDAT pdata
pdata	SEGMENT
$pdata$3$?ProcessInvalidTripcodePair@@YAXPEAE0@Z DD imagerel $LN247+187
	DD	imagerel $LN247+480
	DD	imagerel $chain$3$?ProcessInvalidTripcodePair@@YAXPEAE0@Z
pdata	ENDS
;	COMDAT pdata
pdata	SEGMENT
$pdata$4$?ProcessInvalidTripcodePair@@YAXPEAE0@Z DD imagerel $LN247+480
	DD	imagerel $LN247+736
	DD	imagerel $chain$4$?ProcessInvalidTripcodePair@@YAXPEAE0@Z
pdata	ENDS
;	COMDAT pdata
pdata	SEGMENT
$pdata$5$?ProcessInvalidTripcodePair@@YAXPEAE0@Z DD imagerel $LN247+736
	DD	imagerel $LN247+753
	DD	imagerel $chain$5$?ProcessInvalidTripcodePair@@YAXPEAE0@Z
pdata	ENDS
;	COMDAT pdata
pdata	SEGMENT
$pdata$6$?ProcessInvalidTripcodePair@@YAXPEAE0@Z DD imagerel $LN247+753
	DD	imagerel $LN247+902
	DD	imagerel $chain$6$?ProcessInvalidTripcodePair@@YAXPEAE0@Z
pdata	ENDS
;	COMDAT pdata
pdata	SEGMENT
$pdata$?UpdateOpenCLDeviceStatus_ChildProcess@@YAXPEAUOpenCLDeviceSearchThreadInfo@@PEADNNNIPEAVchild@windows@process@boost@@@Z DD imagerel $LN187
	DD	imagerel $LN187+538
	DD	imagerel $unwind$?UpdateOpenCLDeviceStatus_ChildProcess@@YAXPEAUOpenCLDeviceSearchThreadInfo@@PEADNNNIPEAVchild@windows@process@boost@@@Z
pdata	ENDS
;	COMDAT pdata
pdata	SEGMENT
$pdata$?SetErrorState@@YAXXZ DD imagerel $LN50
	DD	imagerel $LN50+64
	DD	imagerel $unwind$?SetErrorState@@YAXXZ
pdata	ENDS
;	COMDAT pdata
pdata	SEGMENT
$pdata$?UpdateOpenCLDeviceStatus@@YAXPEAUOpenCLDeviceSearchThreadInfo@@PEAD@Z DD imagerel $LN187
	DD	imagerel $LN187+451
	DD	imagerel $unwind$?UpdateOpenCLDeviceStatus@@YAXPEAUOpenCLDeviceSearchThreadInfo@@PEAD@Z
pdata	ENDS
;	COMDAT pdata
pdata	SEGMENT
$pdata$?GetErrorState@@YAHXZ DD imagerel $LN49
	DD	imagerel $LN49+60
	DD	imagerel $unwind$?GetErrorState@@YAHXZ
pdata	ENDS
;	COMDAT pdata
pdata	SEGMENT
$pdata$?reset_cursor_pos@@YAXH@Z DD imagerel $LN7
	DD	imagerel $LN7+128
	DD	imagerel $unwind$?reset_cursor_pos@@YAXH@Z
pdata	ENDS
;	COMDAT pdata
pdata	SEGMENT
$pdata$?show_cursor@@YAXXZ DD imagerel $LN4
	DD	imagerel $LN4+50
	DD	imagerel $unwind$?show_cursor@@YAXXZ
pdata	ENDS
;	COMDAT pdata
pdata	SEGMENT
$pdata$?ProcessGPUOutput@@YANPEAEPEAUGPUOutput@@IH@Z DD imagerel $LN165
	DD	imagerel $LN165+82
	DD	imagerel $unwind$?ProcessGPUOutput@@YANPEAEPEAUGPUOutput@@IH@Z
pdata	ENDS
;	COMDAT pdata
pdata	SEGMENT
$pdata$2$?ProcessGPUOutput@@YANPEAEPEAUGPUOutput@@IH@Z DD imagerel $LN165+82
	DD	imagerel $LN165+418
	DD	imagerel $chain$2$?ProcessGPUOutput@@YANPEAEPEAUGPUOutput@@IH@Z
pdata	ENDS
;	COMDAT pdata
pdata	SEGMENT
$pdata$4$?ProcessGPUOutput@@YANPEAEPEAUGPUOutput@@IH@Z DD imagerel $LN165+418
	DD	imagerel $LN165+751
	DD	imagerel $chain$4$?ProcessGPUOutput@@YANPEAEPEAUGPUOutput@@IH@Z
pdata	ENDS
;	COMDAT pdata
pdata	SEGMENT
$pdata$5$?ProcessGPUOutput@@YANPEAEPEAUGPUOutput@@IH@Z DD imagerel $LN165+751
	DD	imagerel $LN165+763
	DD	imagerel $chain$5$?ProcessGPUOutput@@YANPEAEPEAUGPUOutput@@IH@Z
pdata	ENDS
;	COMDAT pdata
pdata	SEGMENT
$pdata$?SetCharactersInTripcodeKeyForSHA1Tripcode@@YAXPEAE@Z DD imagerel $LN239
	DD	imagerel $LN239+276
	DD	imagerel $unwind$?SetCharactersInTripcodeKeyForSHA1Tripcode@@YAXPEAE@Z
pdata	ENDS
;	COMDAT pdata
pdata	SEGMENT
$pdata$0$?SetCharactersInTripcodeKeyForSHA1Tripcode@@YAXPEAE@Z DD imagerel $LN239+276
	DD	imagerel $LN239+296
	DD	imagerel $chain$0$?SetCharactersInTripcodeKeyForSHA1Tripcode@@YAXPEAE@Z
pdata	ENDS
;	COMDAT pdata
pdata	SEGMENT
$pdata$1$?SetCharactersInTripcodeKeyForSHA1Tripcode@@YAXPEAE@Z DD imagerel $LN239+296
	DD	imagerel $LN239+1050
	DD	imagerel $chain$1$?SetCharactersInTripcodeKeyForSHA1Tripcode@@YAXPEAE@Z
pdata	ENDS
;	COMDAT pdata
pdata	SEGMENT
$pdata$2$?SetCharactersInTripcodeKeyForSHA1Tripcode@@YAXPEAE@Z DD imagerel $LN239+1050
	DD	imagerel $LN239+1055
	DD	imagerel $chain$2$?SetCharactersInTripcodeKeyForSHA1Tripcode@@YAXPEAE@Z
pdata	ENDS
;	COMDAT pdata
pdata	SEGMENT
$pdata$3$?SetCharactersInTripcodeKeyForSHA1Tripcode@@YAXPEAE@Z DD imagerel $LN239+1055
	DD	imagerel $LN239+1064
	DD	imagerel $chain$3$?SetCharactersInTripcodeKeyForSHA1Tripcode@@YAXPEAE@Z
pdata	ENDS
;	COMDAT pdata
pdata	SEGMENT
$pdata$?GetPauseState@@YAHXZ DD imagerel $LN49
	DD	imagerel $LN49+60
	DD	imagerel $unwind$?GetPauseState@@YAHXZ
pdata	ENDS
;	COMDAT pdata
pdata	SEGMENT
$pdata$?AddToNumGeneratedTripcodesByCPU@@YAXI@Z DD imagerel $LN52
	DD	imagerel $LN52+135
	DD	imagerel $unwind$?AddToNumGeneratedTripcodesByCPU@@YAXI@Z
pdata	ENDS
;	COMDAT pdata
pdata	SEGMENT
$pdata$?IsValidKey@@YAHPEAE@Z DD imagerel $LN103
	DD	imagerel $LN103+40
	DD	imagerel $unwind$?IsValidKey@@YAHPEAE@Z
pdata	ENDS
;	COMDAT pdata
pdata	SEGMENT
$pdata$3$?IsValidKey@@YAHPEAE@Z DD imagerel $LN103+40
	DD	imagerel $LN103+629
	DD	imagerel $chain$3$?IsValidKey@@YAHPEAE@Z
pdata	ENDS
;	COMDAT pdata
pdata	SEGMENT
$pdata$5$?IsValidKey@@YAHPEAE@Z DD imagerel $LN103+629
	DD	imagerel $LN103+633
	DD	imagerel $chain$5$?IsValidKey@@YAHPEAE@Z
pdata	ENDS
;	COMDAT pdata
pdata	SEGMENT
$pdata$6$?IsValidKey@@YAHPEAE@Z DD imagerel $LN103+633
	DD	imagerel $LN103+654
	DD	imagerel $chain$6$?IsValidKey@@YAHPEAE@Z
pdata	ENDS
;	COMDAT pdata
pdata	SEGMENT
$pdata$?GetTerminationState@@YAHXZ DD imagerel $LN57
	DD	imagerel $LN57+356
	DD	imagerel $unwind$?GetTerminationState@@YAHXZ
pdata	ENDS
;	COMDAT pdata
pdata	SEGMENT
$pdata$?RandomByte@@YAEXZ DD imagerel $LN4
	DD	imagerel $LN4+24
	DD	imagerel $unwind$?RandomByte@@YAEXZ
pdata	ENDS
;	COMDAT pdata
pdata	SEGMENT
$pdata$?SetCharactersInTripcodeKey@@YAXPEAEH@Z DD imagerel $LN210
	DD	imagerel $LN210+142
	DD	imagerel $unwind$?SetCharactersInTripcodeKey@@YAXPEAEH@Z
pdata	ENDS
;	COMDAT pdata
pdata	SEGMENT
$pdata$0$?SetCharactersInTripcodeKey@@YAXPEAEH@Z DD imagerel $LN210+142
	DD	imagerel $LN210+275
	DD	imagerel $chain$0$?SetCharactersInTripcodeKey@@YAXPEAEH@Z
pdata	ENDS
;	COMDAT pdata
pdata	SEGMENT
$pdata$3$?SetCharactersInTripcodeKey@@YAXPEAEH@Z DD imagerel $LN210+275
	DD	imagerel $LN210+293
	DD	imagerel $chain$3$?SetCharactersInTripcodeKey@@YAXPEAEH@Z
pdata	ENDS
;	COMDAT pdata
pdata	SEGMENT
$pdata$4$?SetCharactersInTripcodeKey@@YAXPEAEH@Z DD imagerel $LN210+293
	DD	imagerel $LN210+956
	DD	imagerel $chain$4$?SetCharactersInTripcodeKey@@YAXPEAEH@Z
pdata	ENDS
;	COMDAT pdata
pdata	SEGMENT
$pdata$5$?SetCharactersInTripcodeKey@@YAXPEAEH@Z DD imagerel $LN210+956
	DD	imagerel $LN210+961
	DD	imagerel $chain$5$?SetCharactersInTripcodeKey@@YAXPEAEH@Z
pdata	ENDS
;	COMDAT pdata
pdata	SEGMENT
$pdata$2$?SetCharactersInTripcodeKey@@YAXPEAEH@Z DD imagerel $LN210+961
	DD	imagerel $LN210+966
	DD	imagerel $chain$2$?SetCharactersInTripcodeKey@@YAXPEAEH@Z
pdata	ENDS
;	COMDAT pdata
pdata	SEGMENT
$pdata$6$?SetCharactersInTripcodeKey@@YAXPEAEH@Z DD imagerel $LN210+966
	DD	imagerel $LN210+976
	DD	imagerel $chain$6$?SetCharactersInTripcodeKey@@YAXPEAEH@Z
pdata	ENDS
;	COMDAT xdata
xdata	SEGMENT
$chain$6$?SetCharactersInTripcodeKey@@YAXPEAEH@Z DD 021H
	DD	imagerel $LN210
	DD	imagerel $LN210+142
	DD	imagerel $unwind$?SetCharactersInTripcodeKey@@YAXPEAEH@Z
xdata	ENDS
;	COMDAT xdata
xdata	SEGMENT
$chain$2$?SetCharactersInTripcodeKey@@YAXPEAEH@Z DD 020021H
	DD	0c5400H
	DD	imagerel $LN210
	DD	imagerel $LN210+142
	DD	imagerel $unwind$?SetCharactersInTripcodeKey@@YAXPEAEH@Z
xdata	ENDS
;	COMDAT xdata
xdata	SEGMENT
$chain$5$?SetCharactersInTripcodeKey@@YAXPEAEH@Z DD 021H
	DD	imagerel $LN210+275
	DD	imagerel $LN210+293
	DD	imagerel $chain$3$?SetCharactersInTripcodeKey@@YAXPEAEH@Z
xdata	ENDS
;	COMDAT xdata
xdata	SEGMENT
$chain$4$?SetCharactersInTripcodeKey@@YAXPEAEH@Z DD 020521H
	DD	0dc405H
	DD	imagerel $LN210+275
	DD	imagerel $LN210+293
	DD	imagerel $chain$3$?SetCharactersInTripcodeKey@@YAXPEAEH@Z
xdata	ENDS
;	COMDAT xdata
xdata	SEGMENT
$chain$3$?SetCharactersInTripcodeKey@@YAXPEAEH@Z DD 020521H
	DD	06e405H
	DD	imagerel $LN210+961
	DD	imagerel $LN210+966
	DD	imagerel $chain$2$?SetCharactersInTripcodeKey@@YAXPEAEH@Z
xdata	ENDS
;	COMDAT xdata
xdata	SEGMENT
$chain$0$?SetCharactersInTripcodeKey@@YAXPEAEH@Z DD 020521H
	DD	0c5405H
	DD	imagerel $LN210
	DD	imagerel $LN210+142
	DD	imagerel $unwind$?SetCharactersInTripcodeKey@@YAXPEAEH@Z
xdata	ENDS
;	COMDAT xdata
xdata	SEGMENT
$unwind$?SetCharactersInTripcodeKey@@YAXPEAEH@Z DD 050a01H
	DD	0f006620aH
	DD	060037004H
	DD	03002H
xdata	ENDS
;	COMDAT xdata
xdata	SEGMENT
$unwind$?RandomByte@@YAEXZ DD 010401H
	DD	04204H
xdata	ENDS
;	COMDAT xdata
xdata	SEGMENT
$unwind$?GetTerminationState@@YAHXZ DD 010401H
	DD	04204H
xdata	ENDS
;	COMDAT xdata
xdata	SEGMENT
$chain$6$?IsValidKey@@YAHPEAE@Z DD 021H
	DD	imagerel $LN103
	DD	imagerel $LN103+40
	DD	imagerel $unwind$?IsValidKey@@YAHPEAE@Z
xdata	ENDS
;	COMDAT xdata
xdata	SEGMENT
$chain$5$?IsValidKey@@YAHPEAE@Z DD 080021H
	DD	09e400H
	DD	086400H
	DD	075400H
	DD	063400H
	DD	imagerel $LN103
	DD	imagerel $LN103+40
	DD	imagerel $unwind$?IsValidKey@@YAHPEAE@Z
xdata	ENDS
;	COMDAT xdata
xdata	SEGMENT
$chain$3$?IsValidKey@@YAHPEAE@Z DD 081d21H
	DD	09e41dH
	DD	086418H
	DD	075410H
	DD	063405H
	DD	imagerel $LN103
	DD	imagerel $LN103+40
	DD	imagerel $unwind$?IsValidKey@@YAHPEAE@Z
xdata	ENDS
;	COMDAT xdata
xdata	SEGMENT
$unwind$?IsValidKey@@YAHPEAE@Z DD 021519H
	DD	070023206H
	DD	imagerel __GSHandlerCheck
	DD	010H
xdata	ENDS
;	COMDAT xdata
xdata	SEGMENT
$unwind$?AddToNumGeneratedTripcodesByCPU@@YAXI@Z DD 020601H
	DD	030023206H
xdata	ENDS
;	COMDAT xdata
xdata	SEGMENT
$unwind$?GetPauseState@@YAHXZ DD 010401H
	DD	04204H
xdata	ENDS
;	COMDAT xdata
xdata	SEGMENT
$chain$3$?SetCharactersInTripcodeKeyForSHA1Tripcode@@YAXPEAE@Z DD 021H
	DD	imagerel $LN239
	DD	imagerel $LN239+276
	DD	imagerel $unwind$?SetCharactersInTripcodeKeyForSHA1Tripcode@@YAXPEAE@Z
xdata	ENDS
;	COMDAT xdata
xdata	SEGMENT
$chain$2$?SetCharactersInTripcodeKeyForSHA1Tripcode@@YAXPEAE@Z DD 021H
	DD	imagerel $LN239+276
	DD	imagerel $LN239+296
	DD	imagerel $chain$0$?SetCharactersInTripcodeKeyForSHA1Tripcode@@YAXPEAE@Z
xdata	ENDS
;	COMDAT xdata
xdata	SEGMENT
$chain$1$?SetCharactersInTripcodeKeyForSHA1Tripcode@@YAXPEAE@Z DD 020521H
	DD	06f405H
	DD	imagerel $LN239+276
	DD	imagerel $LN239+296
	DD	imagerel $chain$0$?SetCharactersInTripcodeKeyForSHA1Tripcode@@YAXPEAE@Z
xdata	ENDS
;	COMDAT xdata
xdata	SEGMENT
$chain$0$?SetCharactersInTripcodeKeyForSHA1Tripcode@@YAXPEAE@Z DD 020521H
	DD	0ce405H
	DD	imagerel $LN239
	DD	imagerel $LN239+276
	DD	imagerel $unwind$?SetCharactersInTripcodeKeyForSHA1Tripcode@@YAXPEAE@Z
xdata	ENDS
;	COMDAT xdata
xdata	SEGMENT
$unwind$?SetCharactersInTripcodeKeyForSHA1Tripcode@@YAXPEAE@Z DD 050901H
	DD	070056209H
	DD	050036004H
	DD	03002H
xdata	ENDS
;	COMDAT xdata
xdata	SEGMENT
$chain$5$?ProcessGPUOutput@@YANPEAEPEAUGPUOutput@@IH@Z DD 021H
	DD	imagerel $LN165
	DD	imagerel $LN165+82
	DD	imagerel $unwind$?ProcessGPUOutput@@YANPEAEPEAUGPUOutput@@IH@Z
xdata	ENDS
;	COMDAT xdata
xdata	SEGMENT
$chain$4$?ProcessGPUOutput@@YANPEAEPEAUGPUOutput@@IH@Z DD 060021H
	DD	0cf400H
	DD	0d7400H
	DD	0146400H
	DD	imagerel $LN165
	DD	imagerel $LN165+82
	DD	imagerel $unwind$?ProcessGPUOutput@@YANPEAEPEAUGPUOutput@@IH@Z
xdata	ENDS
;	COMDAT xdata
xdata	SEGMENT
$chain$2$?ProcessGPUOutput@@YANPEAEPEAUGPUOutput@@IH@Z DD 061321H
	DD	0cf413H
	DD	0d740bH
	DD	0146404H
	DD	imagerel $LN165
	DD	imagerel $LN165+82
	DD	imagerel $unwind$?ProcessGPUOutput@@YANPEAEPEAUGPUOutput@@IH@Z
xdata	ENDS
;	COMDAT xdata
xdata	SEGMENT
$unwind$?ProcessGPUOutput@@YANPEAEPEAUGPUOutput@@IH@Z DD 061f19H
	DD	056810H
	DD	0e007d20bH
	DD	030045005H
	DD	imagerel __GSHandlerCheck
	DD	040H
xdata	ENDS
;	COMDAT xdata
xdata	SEGMENT
$unwind$?show_cursor@@YAXXZ DD 010401H
	DD	04204H
xdata	ENDS
;	COMDAT xdata
xdata	SEGMENT
$unwind$?reset_cursor_pos@@YAXH@Z DD 021519H
	DD	030029206H
	DD	imagerel __GSHandlerCheck
	DD	040H
xdata	ENDS
;	COMDAT xdata
xdata	SEGMENT
$unwind$?GetErrorState@@YAHXZ DD 010401H
	DD	04204H
xdata	ENDS
;	COMDAT xdata
xdata	SEGMENT
$unwind$?UpdateOpenCLDeviceStatus@@YAXPEAUOpenCLDeviceSearchThreadInfo@@PEAD@Z DD 040a01H
	DD	07340aH
	DD	07006320aH
xdata	ENDS
;	COMDAT xdata
xdata	SEGMENT
$unwind$?SetErrorState@@YAXXZ DD 010401H
	DD	04204H
xdata	ENDS
;	COMDAT xdata
xdata	SEGMENT
$unwind$?UpdateOpenCLDeviceStatus_ChildProcess@@YAXPEAUOpenCLDeviceSearchThreadInfo@@PEADNNNIPEAVchild@windows@process@boost@@@Z DD 081401H
	DD	037814H
	DD	04680fH
	DD	0d340aH
	DD	07006920aH
xdata	ENDS
;	COMDAT xdata
xdata	SEGMENT
$chain$6$?ProcessInvalidTripcodePair@@YAXPEAE0@Z DD 021H
	DD	imagerel $LN247
	DD	imagerel $LN247+6
	DD	imagerel $unwind$?ProcessInvalidTripcodePair@@YAXPEAE0@Z
xdata	ENDS
;	COMDAT xdata
xdata	SEGMENT
$chain$5$?ProcessInvalidTripcodePair@@YAXPEAE0@Z DD 021H
	DD	imagerel $LN247+6
	DD	imagerel $LN247+182
	DD	imagerel $chain$1$?ProcessInvalidTripcodePair@@YAXPEAE0@Z
xdata	ENDS
;	COMDAT xdata
xdata	SEGMENT
$chain$4$?ProcessInvalidTripcodePair@@YAXPEAE0@Z DD 021H
	DD	imagerel $LN247+182
	DD	imagerel $LN247+187
	DD	imagerel $chain$2$?ProcessInvalidTripcodePair@@YAXPEAE0@Z
xdata	ENDS
;	COMDAT xdata
xdata	SEGMENT
$chain$3$?ProcessInvalidTripcodePair@@YAXPEAE0@Z DD 020521H
	DD	097405H
	DD	imagerel $LN247+182
	DD	imagerel $LN247+187
	DD	imagerel $chain$2$?ProcessInvalidTripcodePair@@YAXPEAE0@Z
xdata	ENDS
;	COMDAT xdata
xdata	SEGMENT
$chain$2$?ProcessInvalidTripcodePair@@YAXPEAE0@Z DD 020521H
	DD	063405H
	DD	imagerel $LN247+6
	DD	imagerel $LN247+182
	DD	imagerel $chain$1$?ProcessInvalidTripcodePair@@YAXPEAE0@Z
xdata	ENDS
;	COMDAT xdata
xdata	SEGMENT
$chain$1$?ProcessInvalidTripcodePair@@YAXPEAE0@Z DD 040a21H
	DD	08640aH
	DD	075405H
	DD	imagerel $LN247
	DD	imagerel $LN247+6
	DD	imagerel $unwind$?ProcessInvalidTripcodePair@@YAXPEAE0@Z
xdata	ENDS
;	COMDAT xdata
xdata	SEGMENT
$unwind$?ProcessInvalidTripcodePair@@YAXPEAE0@Z DD 020601H
	DD	0e0023206H
xdata	ENDS
;	COMDAT xdata
xdata	SEGMENT
$chain$3$?ProcessValidTripcodePair@@YAXPEAE0@Z DD 021H
	DD	imagerel $LN442
	DD	imagerel $LN442+522
	DD	imagerel $unwind$?ProcessValidTripcodePair@@YAXPEAE0@Z
xdata	ENDS
;	COMDAT xdata
xdata	SEGMENT
$chain$2$?ProcessValidTripcodePair@@YAXPEAE0@Z DD 021H
	DD	imagerel $LN442+522
	DD	imagerel $LN442+547
	DD	imagerel $chain$0$?ProcessValidTripcodePair@@YAXPEAE0@Z
xdata	ENDS
;	COMDAT xdata
xdata	SEGMENT
$chain$1$?ProcessValidTripcodePair@@YAXPEAE0@Z DD 020521H
	DD	065405H
	DD	imagerel $LN442+522
	DD	imagerel $LN442+547
	DD	imagerel $chain$0$?ProcessValidTripcodePair@@YAXPEAE0@Z
xdata	ENDS
;	COMDAT xdata
xdata	SEGMENT
$chain$0$?ProcessValidTripcodePair@@YAXPEAE0@Z DD 020521H
	DD	077405H
	DD	imagerel $LN442
	DD	imagerel $LN442+522
	DD	imagerel $unwind$?ProcessValidTripcodePair@@YAXPEAE0@Z
xdata	ENDS
;	COMDAT xdata
xdata	SEGMENT
$unwind$?ProcessValidTripcodePair@@YAXPEAE0@Z DD 061001H
	DD	096410H
	DD	083410H
	DD	0e00c3210H
xdata	ENDS
;	COMDAT xdata
xdata	SEGMENT
$unwind$?_Check_C_return@std@@YAHH@Z DD 020601H
	DD	030023206H
xdata	ENDS
;	COMDAT xdata
xdata	SEGMENT
$unwind$?_Thrd_detachX@std@@YAHU_Thrd_imp_t@@@Z DD 020601H
	DD	030025206H
xdata	ENDS
;	COMDAT xdata
xdata	SEGMENT
$unwind$??1thread@std@@QEAA@XZ DD 010401H
	DD	04204H
xdata	ENDS
;	COMDAT xdata
xdata	SEGMENT
$unwind$?detach@thread@std@@QEAAXXZ DD 020601H
	DD	030025206H
xdata	ENDS
;	COMDAT xdata
xdata	SEGMENT
$unwind$??__Eposix_category@system@boost@@YAXXZ DD 010401H
	DD	04204H
xdata	ENDS
;	COMDAT xdata
xdata	SEGMENT
$unwind$??__Eerrno_ecat@system@boost@@YAXXZ DD 010401H
	DD	04204H
xdata	ENDS
;	COMDAT xdata
xdata	SEGMENT
$unwind$??__Enative_ecat@system@boost@@YAXXZ DD 010401H
	DD	04204H
xdata	ENDS
;	COMDAT xdata
xdata	SEGMENT
$unwind$?ReleaseResources@@YAXXZ DD 020601H
	DD	030023206H
xdata	ENDS
;	COMDAT xdata
xdata	SEGMENT
$unwind$?hide_cursor@@YAXXZ DD 010401H
	DD	04204H
xdata	ENDS
;	COMDAT xdata
xdata	SEGMENT
$chain$4$?CreateKey8AndKey9@@YAXPEAE@Z DD 020021H
	DD	086400H
	DD	imagerel $LN146
	DD	imagerel $LN146+397
	DD	imagerel $unwind$?CreateKey8AndKey9@@YAXPEAE@Z
xdata	ENDS
;	COMDAT xdata
xdata	SEGMENT
$chain$2$?CreateKey8AndKey9@@YAXPEAE@Z DD 020021H
	DD	086400H
	DD	imagerel $LN146
	DD	imagerel $LN146+397
	DD	imagerel $unwind$?CreateKey8AndKey9@@YAXPEAE@Z
xdata	ENDS
;	COMDAT xdata
xdata	SEGMENT
$chain$0$?CreateKey8AndKey9@@YAXPEAE@Z DD 020521H
	DD	086405H
	DD	imagerel $LN146
	DD	imagerel $LN146+397
	DD	imagerel $unwind$?CreateKey8AndKey9@@YAXPEAE@Z
xdata	ENDS
;	COMDAT xdata
xdata	SEGMENT
$unwind$?CreateKey8AndKey9@@YAXPEAE@Z DD 030701H
	DD	070038207H
	DD	03002H
xdata	ENDS
;	COMDAT xdata
xdata	SEGMENT
$unwind$?CreateCharacterTables@@YAXXZ DD 081401H
	DD	096414H
	DD	085414H
	DD	073414H
	DD	070103214H
xdata	ENDS
;	COMDAT xdata
xdata	SEGMENT
$unwind$?DisplayCopyrights@@YAXXZ DD 010401H
	DD	04204H
xdata	ENDS
;	COMDAT xdata
xdata	SEGMENT
$unwind$?UpdateCUDADeviceStatus@@YAXPEAUCUDADeviceSearchThreadInfo@@PEAD@Z DD 040a01H
	DD	07340aH
	DD	07006320aH
xdata	ENDS
;	COMDAT xdata
xdata	SEGMENT
$ip2state$?CheckSearchThreads@@YAXXZ DD imagerel ?CheckSearchThreads@@YAXXZ
	DD	0ffffffffH
	DD	imagerel ?CheckSearchThreads@@YAXXZ+340
	DD	00H
	DD	imagerel ?CheckSearchThreads@@YAXXZ+423
	DD	01H
	DD	imagerel ?CheckSearchThreads@@YAXXZ+436
	DD	00H
	DD	imagerel ?CheckSearchThreads@@YAXXZ+450
	DD	0ffffffffH
	DD	imagerel ?CheckSearchThreads@@YAXXZ+911
	DD	02H
	DD	imagerel ?CheckSearchThreads@@YAXXZ+995
	DD	03H
	DD	imagerel ?CheckSearchThreads@@YAXXZ+1008
	DD	02H
	DD	imagerel ?CheckSearchThreads@@YAXXZ+1022
	DD	0ffffffffH
xdata	ENDS
;	COMDAT xdata
xdata	SEGMENT
$stateUnwindMap$?CheckSearchThreads@@YAXXZ DD 0ffffffffH
	DD	imagerel ?dtor$0@?0??CheckSearchThreads@@YAXXZ@4HA
	DD	00H
	DD	imagerel ?dtor$2@?0??CheckSearchThreads@@YAXXZ@4HA
	DD	0ffffffffH
	DD	imagerel ?dtor$1@?0??CheckSearchThreads@@YAXXZ@4HA
	DD	02H
	DD	imagerel ?dtor$4@?0??CheckSearchThreads@@YAXXZ@4HA
xdata	ENDS
;	COMDAT CONST
CONST	SEGMENT
$cppxdata$?CheckSearchThreads@@YAXXZ DD 019930522H
	DD	04H
	DD	imagerel $stateUnwindMap$?CheckSearchThreads@@YAXXZ
	DD	00H
	DD	00H
	DD	09H
	DD	imagerel $ip2state$?CheckSearchThreads@@YAXXZ
	DD	030H
	DD	00H
	DD	01H
CONST	ENDS
;	COMDAT xdata
xdata	SEGMENT
$unwind$?CheckSearchThreads@@YAXXZ DD 0a2211H
	DD	01b0119H
	DD	0e00bf00dH
	DD	0c007d009H
	DD	060047005H
	DD	050023003H
	DD	imagerel __CxxFrameHandler3
	DD	imagerel $cppxdata$?CheckSearchThreads@@YAXXZ
xdata	ENDS
;	COMDAT xdata
xdata	SEGMENT
$unwind$??_Gthread@std@@QEAAPEAXI@Z DD 020601H
	DD	030023206H
xdata	ENDS
;	COMDAT xdata
xdata	SEGMENT
$unwind$?KeepSearchThreadsAlive@@YAXXZ DD 063a01H
	DD	08743aH
	DD	09340aH
	DD	05006320aH
xdata	ENDS
;	COMDAT xdata
xdata	SEGMENT
$chain$18$?PrintStatus@@YAXXZ DD 021H
	DD	imagerel $LN332
	DD	imagerel $LN332+120
	DD	imagerel $unwind$?PrintStatus@@YAXXZ
xdata	ENDS
;	COMDAT xdata
xdata	SEGMENT
$chain$17$?PrintStatus@@YAXXZ DD 01a0021H
	DD	0a0bf800H
	DD	0a0ce800H
	DD	0a0dd800H
	DD	0a0ec800H
	DD	0a0fb800H
	DD	0a10a800H
	DD	0a119800H
	DD	0a128800H
	DD	0a137800H
	DD	0a146800H
	DD	0142af400H
	DD	014327400H
	DD	014303400H
	DD	imagerel $LN332
	DD	imagerel $LN332+120
	DD	imagerel $unwind$?PrintStatus@@YAXXZ
xdata	ENDS
;	COMDAT xdata
xdata	SEGMENT
$chain$16$?PrintStatus@@YAXXZ DD 021H
	DD	imagerel $LN332+1571
	DD	imagerel $LN332+1682
	DD	imagerel $chain$13$?PrintStatus@@YAXXZ
xdata	ENDS
;	COMDAT xdata
xdata	SEGMENT
$chain$15$?PrintStatus@@YAXXZ DD 041021H
	DD	0142be410H
	DD	014316408H
	DD	imagerel $LN332+1571
	DD	imagerel $LN332+1682
	DD	imagerel $chain$13$?PrintStatus@@YAXXZ
xdata	ENDS
;	COMDAT xdata
xdata	SEGMENT
$chain$13$?PrintStatus@@YAXXZ DD 0a6421H
	DD	0a0ce864H
	DD	0a0ec85bH
	DD	0a0fb852H
	DD	0a119849H
	DD	0a10a809H
	DD	imagerel $LN332+686
	DD	imagerel $LN332+1571
	DD	imagerel $chain$8$?PrintStatus@@YAXXZ
xdata	ENDS
;	COMDAT xdata
xdata	SEGMENT
$chain$8$?PrintStatus@@YAXXZ DD 020821H
	DD	014327408H
	DD	imagerel $LN332+395
	DD	imagerel $LN332+686
	DD	imagerel $chain$7$?PrintStatus@@YAXXZ
xdata	ENDS
;	COMDAT xdata
xdata	SEGMENT
$chain$7$?PrintStatus@@YAXXZ DD 041021H
	DD	0142af410H
	DD	014303408H
	DD	imagerel $LN332+120
	DD	imagerel $LN332+395
	DD	imagerel $chain$5$?PrintStatus@@YAXXZ
xdata	ENDS
;	COMDAT xdata
xdata	SEGMENT
$chain$5$?PrintStatus@@YAXXZ DD 0c3321H
	DD	0a0bf833H
	DD	0a0dd82aH
	DD	0a128821H
	DD	0a137818H
	DD	0a146810H
	DD	0142cc408H
	DD	imagerel $LN332
	DD	imagerel $LN332+120
	DD	imagerel $unwind$?PrintStatus@@YAXXZ
xdata	ENDS
;	COMDAT xdata
xdata	SEGMENT
$unwind$?PrintStatus@@YAXXZ DD 042a19H
	DD	0142d0119H
	DD	05002d004H
	DD	imagerel __GSHandlerCheck
	DD	0a0a0H
xdata	ENDS
;	COMDAT xdata
xdata	SEGMENT
$unwind$?ControlHandler@@YAHK@Z DD 010401H
	DD	04204H
xdata	ENDS
;	COMDAT xdata
xdata	SEGMENT
$unwind$?InitProcess@@YAXXZ DD 010401H
	DD	04204H
xdata	ENDS
;	COMDAT xdata
xdata	SEGMENT
$unwind$?ListCUDADevices@@YAXXZ DD 031b19H
	DD	0560109H
	DD	03002H
	DD	imagerel __GSHandlerCheck
	DD	02a0H
xdata	ENDS
;	COMDAT xdata
xdata	SEGMENT
$chain$9$?CountOpenCLDevices@@YAXXZ DD 0e0021H
	DD	08cf400H
	DD	08de400H
	DD	08ed400H
	DD	08fc400H
	DD	0946400H
	DD	0935400H
	DD	0923400H
	DD	imagerel $LN376
	DD	imagerel $LN376+58
	DD	imagerel $unwind$?CountOpenCLDevices@@YAXXZ
xdata	ENDS
;	COMDAT xdata
xdata	SEGMENT
$chain$8$?CountOpenCLDevices@@YAXXZ DD 021H
	DD	imagerel $LN376
	DD	imagerel $LN376+58
	DD	imagerel $unwind$?CountOpenCLDevices@@YAXXZ
xdata	ENDS
;	COMDAT xdata
xdata	SEGMENT
$chain$7$?CountOpenCLDevices@@YAXXZ DD 021H
	DD	imagerel $LN376+58
	DD	imagerel $LN376+80
	DD	imagerel $chain$0$?CountOpenCLDevices@@YAXXZ
xdata	ENDS
;	COMDAT xdata
xdata	SEGMENT
$chain$6$?CountOpenCLDevices@@YAXXZ DD 082221H
	DD	08cf422H
	DD	08ed418H
	DD	08fc410H
	DD	0935408H
	DD	imagerel $LN376+80
	DD	imagerel $LN376+591
	DD	imagerel $chain$2$?CountOpenCLDevices@@YAXXZ
xdata	ENDS
;	COMDAT xdata
xdata	SEGMENT
$chain$2$?CountOpenCLDevices@@YAXXZ DD 041021H
	DD	08de410H
	DD	0946408H
	DD	imagerel $LN376+58
	DD	imagerel $LN376+80
	DD	imagerel $chain$0$?CountOpenCLDevices@@YAXXZ
xdata	ENDS
;	COMDAT xdata
xdata	SEGMENT
$chain$0$?CountOpenCLDevices@@YAXXZ DD 020821H
	DD	0923408H
	DD	imagerel $LN376
	DD	imagerel $LN376+58
	DD	imagerel $unwind$?CountOpenCLDevices@@YAXXZ
xdata	ENDS
;	COMDAT xdata
xdata	SEGMENT
$unwind$?CountOpenCLDevices@@YAXXZ DD 031b19H
	DD	0900109H
	DD	07002H
	DD	imagerel __GSHandlerCheck
	DD	0450H
xdata	ENDS
;	COMDAT xdata
xdata	SEGMENT
$chain$3$?ListOpenCLDevices@@YAXXZ DD 040021H
	DD	010f7400H
	DD	010e3400H
	DD	imagerel $LN394
	DD	imagerel $LN394+52
	DD	imagerel $unwind$?ListOpenCLDevices@@YAXXZ
xdata	ENDS
;	COMDAT xdata
xdata	SEGMENT
$chain$2$?ListOpenCLDevices@@YAXXZ DD 021H
	DD	imagerel $LN394
	DD	imagerel $LN394+52
	DD	imagerel $unwind$?ListOpenCLDevices@@YAXXZ
xdata	ENDS
;	COMDAT xdata
xdata	SEGMENT
$chain$1$?ListOpenCLDevices@@YAXXZ DD 041021H
	DD	010f7410H
	DD	010e3408H
	DD	imagerel $LN394
	DD	imagerel $LN394+52
	DD	imagerel $unwind$?ListOpenCLDevices@@YAXXZ
xdata	ENDS
;	COMDAT xdata
xdata	SEGMENT
$unwind$?ListOpenCLDevices@@YAXXZ DD 051f19H
	DD	0110540dH
	DD	010c010dH
	DD	06006H
	DD	imagerel __GSHandlerCheck
	DD	0850H
xdata	ENDS
;	COMDAT xdata
xdata	SEGMENT
$unwind$?ListGPUsAndExit@@YAXXZ DD 010401H
	DD	04204H
xdata	ENDS
;	COMDAT xdata
xdata	SEGMENT
$chain$4$?InitSearchDevices@@YAXH@Z DD 021H
	DD	imagerel $LN1084+761
	DD	imagerel $LN1084+841
	DD	imagerel $chain$2$?InitSearchDevices@@YAXH@Z
xdata	ENDS
;	COMDAT xdata
xdata	SEGMENT
$chain$3$?InitSearchDevices@@YAXH@Z DD 020821H
	DD	01366808H
	DD	imagerel $LN1084+761
	DD	imagerel $LN1084+841
	DD	imagerel $chain$2$?InitSearchDevices@@YAXH@Z
xdata	ENDS
;	COMDAT xdata
xdata	SEGMENT
$chain$2$?InitSearchDevices@@YAXH@Z DD 041721H
	DD	02747417H
	DD	02736408H
	DD	imagerel $LN1084
	DD	imagerel $LN1084+761
	DD	imagerel $unwind$?InitSearchDevices@@YAXH@Z
xdata	ENDS
;	COMDAT xdata
xdata	SEGMENT
$unwind$?InitSearchDevices@@YAXH@Z DD 075919H
	DD	02723459H
	DD	026e011bH
	DD	0e004f006H
	DD	05002H
	DD	imagerel __GSHandlerCheck
	DD	01350H
xdata	ENDS
;	COMDAT xdata
xdata	SEGMENT
$chain$5$?ObtainOptions@@YAXHPEAPEAD@Z DD 021H
	DD	imagerel $LN1438
	DD	imagerel $LN1438+178
	DD	imagerel $unwind$?ObtainOptions@@YAXHPEAPEAD@Z
xdata	ENDS
;	COMDAT xdata
xdata	SEGMENT
$chain$4$?ObtainOptions@@YAXHPEAPEAD@Z DD 060021H
	DD	019bf400H
	DD	019ad400H
	DD	01987400H
	DD	imagerel $LN1438
	DD	imagerel $LN1438+178
	DD	imagerel $unwind$?ObtainOptions@@YAXHPEAPEAD@Z
xdata	ENDS
;	COMDAT xdata
xdata	SEGMENT
$chain$2$?ObtainOptions@@YAXHPEAPEAD@Z DD 062f21H
	DD	019bf42fH
	DD	019ad410H
	DD	01987408H
	DD	imagerel $LN1438
	DD	imagerel $LN1438+178
	DD	imagerel $unwind$?ObtainOptions@@YAXHPEAPEAD@Z
xdata	ENDS
;	COMDAT xdata
xdata	SEGMENT
$unwind$?ObtainOptions@@YAXHPEAPEAD@Z DD 072819H
	DD	01920117H
	DD	0c006e008H
	DD	030036004H
	DD	05002H
	DD	imagerel __GSHandlerCheck
	DD	0c80H
xdata	ENDS
;	COMDAT xdata
xdata	SEGMENT
$unwind$?OpenTripcodeFile@@YAXXZ DD 010401H
	DD	04204H
xdata	ENDS
;	COMDAT xdata
xdata	SEGMENT
$unwind$?AddToNumGeneratedTripcodesByGPU@@YAXI@Z DD 020601H
	DD	030023206H
xdata	ENDS
;	COMDAT xdata
xdata	SEGMENT
$unwind$?GetNumGeneratedTripcodesByCPU@@YANXZ DD 010401H
	DD	04204H
xdata	ENDS
;	COMDAT xdata
xdata	SEGMENT
$unwind$?GetNumGeneratedTripcodesByGPU@@YANXZ DD 010401H
	DD	04204H
xdata	ENDS
;	COMDAT xdata
xdata	SEGMENT
$unwind$?SetPauseState@@YAXH@Z DD 020601H
	DD	030023206H
xdata	ENDS
;	COMDAT xdata
xdata	SEGMENT
$unwind$?SetTerminationState@@YAXXZ DD 010401H
	DD	04204H
xdata	ENDS
;	COMDAT xdata
xdata	SEGMENT
$unwind$?UpdateCurrentStatus@@YAN_K@Z DD 081701H
	DD	027817H
	DD	03680fH
	DD	0b340aH
	DD	07006720aH
xdata	ENDS
;	COMDAT xdata
xdata	SEGMENT
$unwind$?dtor$2@?0??StartCUDADeviceSearchThreads@@YAXXZ@4HA DD 020601H
	DD	050023206H
xdata	ENDS
;	COMDAT xdata
xdata	SEGMENT
$unwind$?dtor$1@?0??StartCUDADeviceSearchThreads@@YAXXZ@4HA DD 020601H
	DD	050023206H
xdata	ENDS
;	COMDAT xdata
xdata	SEGMENT
$unwind$?dtor$0@?0??StartCUDADeviceSearchThreads@@YAXXZ@4HA DD 020601H
	DD	050023206H
xdata	ENDS
;	COMDAT xdata
xdata	SEGMENT
$ip2state$?StartCUDADeviceSearchThreads@@YAXXZ DD imagerel ?StartCUDADeviceSearchThreads@@YAXXZ
	DD	0ffffffffH
	DD	imagerel ?StartCUDADeviceSearchThreads@@YAXXZ+2601
	DD	00H
	DD	imagerel ?StartCUDADeviceSearchThreads@@YAXXZ+2652
	DD	01H
	DD	imagerel ?StartCUDADeviceSearchThreads@@YAXXZ+2665
	DD	00H
	DD	imagerel ?StartCUDADeviceSearchThreads@@YAXXZ+2679
	DD	0ffffffffH
	DD	imagerel ?StartCUDADeviceSearchThreads@@YAXXZ+3403
	DD	02H
	DD	imagerel ?StartCUDADeviceSearchThreads@@YAXXZ+3456
	DD	03H
	DD	imagerel ?StartCUDADeviceSearchThreads@@YAXXZ+3469
	DD	02H
	DD	imagerel ?StartCUDADeviceSearchThreads@@YAXXZ+3482
	DD	0ffffffffH
	DD	imagerel ?StartCUDADeviceSearchThreads@@YAXXZ+3497
	DD	04H
	DD	imagerel ?StartCUDADeviceSearchThreads@@YAXXZ+3564
	DD	05H
	DD	imagerel ?StartCUDADeviceSearchThreads@@YAXXZ+3577
	DD	04H
	DD	imagerel ?StartCUDADeviceSearchThreads@@YAXXZ+3590
	DD	0ffffffffH
xdata	ENDS
;	COMDAT xdata
xdata	SEGMENT
$stateUnwindMap$?StartCUDADeviceSearchThreads@@YAXXZ DD 0ffffffffH
	DD	imagerel ?dtor$0@?0??StartCUDADeviceSearchThreads@@YAXXZ@4HA
	DD	00H
	DD	imagerel ?dtor$3@?0??StartCUDADeviceSearchThreads@@YAXXZ@4HA
	DD	0ffffffffH
	DD	imagerel ?dtor$1@?0??StartCUDADeviceSearchThreads@@YAXXZ@4HA
	DD	02H
	DD	imagerel ?dtor$5@?0??StartCUDADeviceSearchThreads@@YAXXZ@4HA
	DD	0ffffffffH
	DD	imagerel ?dtor$2@?0??StartCUDADeviceSearchThreads@@YAXXZ@4HA
	DD	04H
	DD	imagerel ?dtor$7@?0??StartCUDADeviceSearchThreads@@YAXXZ@4HA
xdata	ENDS
;	COMDAT CONST
CONST	SEGMENT
$cppxdata$?StartCUDADeviceSearchThreads@@YAXXZ DD 019930522H
	DD	06H
	DD	imagerel $stateUnwindMap$?StartCUDADeviceSearchThreads@@YAXXZ
	DD	00H
	DD	00H
	DD	0dH
	DD	imagerel $ip2state$?StartCUDADeviceSearchThreads@@YAXXZ
	DD	0b8H
	DD	00H
	DD	01H
CONST	ENDS
;	COMDAT xdata
xdata	SEGMENT
$unwind$?StartCUDADeviceSearchThreads@@YAXXZ DD 0a2111H
	DD	0270119H
	DD	0e00bf00dH
	DD	0c007d009H
	DD	060047005H
	DD	050023003H
	DD	imagerel __CxxFrameHandler3
	DD	imagerel $cppxdata$?StartCUDADeviceSearchThreads@@YAXXZ
xdata	ENDS
;	COMDAT xdata
xdata	SEGMENT
$ip2state$?StartOpenCLDeviceSearchThreads@@YAXXZ DD imagerel ?StartOpenCLDeviceSearchThreads@@YAXXZ
	DD	0ffffffffH
	DD	imagerel ?StartOpenCLDeviceSearchThreads@@YAXXZ+4503
	DD	00H
	DD	imagerel ?StartOpenCLDeviceSearchThreads@@YAXXZ+4584
	DD	01H
	DD	imagerel ?StartOpenCLDeviceSearchThreads@@YAXXZ+4597
	DD	00H
	DD	imagerel ?StartOpenCLDeviceSearchThreads@@YAXXZ+4610
	DD	0ffffffffH
	DD	imagerel ?StartOpenCLDeviceSearchThreads@@YAXXZ+5266
	DD	02H
	DD	imagerel ?StartOpenCLDeviceSearchThreads@@YAXXZ+5347
	DD	03H
	DD	imagerel ?StartOpenCLDeviceSearchThreads@@YAXXZ+5360
	DD	02H
	DD	imagerel ?StartOpenCLDeviceSearchThreads@@YAXXZ+5373
	DD	0ffffffffH
xdata	ENDS
;	COMDAT xdata
xdata	SEGMENT
$stateUnwindMap$?StartOpenCLDeviceSearchThreads@@YAXXZ DD 0ffffffffH
	DD	imagerel ?dtor$0@?0??StartOpenCLDeviceSearchThreads@@YAXXZ@4HA
	DD	00H
	DD	imagerel ?dtor$2@?0??StartOpenCLDeviceSearchThreads@@YAXXZ@4HA
	DD	0ffffffffH
	DD	imagerel ?dtor$1@?0??StartOpenCLDeviceSearchThreads@@YAXXZ@4HA
	DD	02H
	DD	imagerel ?dtor$4@?0??StartOpenCLDeviceSearchThreads@@YAXXZ@4HA
xdata	ENDS
;	COMDAT CONST
CONST	SEGMENT
$cppxdata$?StartOpenCLDeviceSearchThreads@@YAXXZ DD 019930522H
	DD	04H
	DD	imagerel $stateUnwindMap$?StartOpenCLDeviceSearchThreads@@YAXXZ
	DD	00H
	DD	00H
	DD	09H
	DD	imagerel $ip2state$?StartOpenCLDeviceSearchThreads@@YAXXZ
	DD	088H
	DD	00H
	DD	01H
CONST	ENDS
;	COMDAT xdata
xdata	SEGMENT
$unwind$?StartOpenCLDeviceSearchThreads@@YAXXZ DD 0d3f19H
	DD	0b2742eH
	DD	0b1642aH
	DD	0b03426H
	DD	0aa011aH
	DD	0e00af00cH
	DD	0c006d008H
	DD	05004H
	DD	imagerel __GSHandlerCheck_EH
	DD	imagerel $cppxdata$?StartOpenCLDeviceSearchThreads@@YAXXZ
	DD	0542H
xdata	ENDS
;	COMDAT xdata
xdata	SEGMENT
$unwind$?StartGPUSearchThreads@@YAXXZ DD 010401H
	DD	04204H
xdata	ENDS
;	COMDAT xdata
xdata	SEGMENT
$unwind$?dtor$1@?0??StartCPUSearchThreads@@YAXXZ@4HA DD 020601H
	DD	050023206H
xdata	ENDS
;	COMDAT xdata
xdata	SEGMENT
$unwind$?dtor$0@?0??StartCPUSearchThreads@@YAXXZ@4HA DD 020601H
	DD	050023206H
xdata	ENDS
;	COMDAT xdata
xdata	SEGMENT
$ip2state$?StartCPUSearchThreads@@YAXXZ DD imagerel ?StartCPUSearchThreads@@YAXXZ
	DD	0ffffffffH
	DD	imagerel ?StartCPUSearchThreads@@YAXXZ+773
	DD	00H
	DD	imagerel ?StartCPUSearchThreads@@YAXXZ+795
	DD	01H
	DD	imagerel ?StartCPUSearchThreads@@YAXXZ+808
	DD	00H
	DD	imagerel ?StartCPUSearchThreads@@YAXXZ+822
	DD	0ffffffffH
	DD	imagerel ?StartCPUSearchThreads@@YAXXZ+912
	DD	02H
	DD	imagerel ?StartCPUSearchThreads@@YAXXZ+934
	DD	03H
	DD	imagerel ?StartCPUSearchThreads@@YAXXZ+947
	DD	02H
	DD	imagerel ?StartCPUSearchThreads@@YAXXZ+961
	DD	0ffffffffH
xdata	ENDS
;	COMDAT xdata
xdata	SEGMENT
$stateUnwindMap$?StartCPUSearchThreads@@YAXXZ DD 0ffffffffH
	DD	imagerel ?dtor$0@?0??StartCPUSearchThreads@@YAXXZ@4HA
	DD	00H
	DD	imagerel ?dtor$2@?0??StartCPUSearchThreads@@YAXXZ@4HA
	DD	0ffffffffH
	DD	imagerel ?dtor$1@?0??StartCPUSearchThreads@@YAXXZ@4HA
	DD	02H
	DD	imagerel ?dtor$4@?0??StartCPUSearchThreads@@YAXXZ@4HA
xdata	ENDS
;	COMDAT CONST
CONST	SEGMENT
$cppxdata$?StartCPUSearchThreads@@YAXXZ DD 019930522H
	DD	04H
	DD	imagerel $stateUnwindMap$?StartCPUSearchThreads@@YAXXZ
	DD	00H
	DD	00H
	DD	09H
	DD	imagerel $ip2state$?StartCPUSearchThreads@@YAXXZ
	DD	020H
	DD	00H
	DD	01H
CONST	ENDS
;	COMDAT xdata
xdata	SEGMENT
$unwind$?StartCPUSearchThreads@@YAXXZ DD 0a2111H
	DD	0130119H
	DD	0e00bf00dH
	DD	0c007d009H
	DD	060047005H
	DD	050023003H
	DD	imagerel __CxxFrameHandler3
	DD	imagerel $cppxdata$?StartCPUSearchThreads@@YAXXZ
xdata	ENDS
;	COMDAT xdata
xdata	SEGMENT
$unwind$?GetParentProcessID@@YAHXZ DD 072419H
	DD	0516412H
	DD	0503412H
	DD	04e0112H
	DD	0700bH
	DD	imagerel __GSHandlerCheck
	DD	0260H
xdata	ENDS
;	COMDAT xdata
xdata	SEGMENT
$chain$1$?ListExpandedPatterns@@YAXXZ DD 021H
	DD	imagerel $LN11
	DD	imagerel $LN11+16
	DD	imagerel $unwind$?ListExpandedPatterns@@YAXXZ
xdata	ENDS
;	COMDAT xdata
xdata	SEGMENT
$chain$0$?ListExpandedPatterns@@YAXXZ DD 020521H
	DD	067405H
	DD	imagerel $LN11
	DD	imagerel $LN11+16
	DD	imagerel $unwind$?ListExpandedPatterns@@YAXXZ
xdata	ENDS
;	COMDAT xdata
xdata	SEGMENT
$unwind$?ListExpandedPatterns@@YAXXZ DD 020601H
	DD	030023206H
xdata	ENDS
;	COMDAT xdata
xdata	SEGMENT
$chain$2$main DD 021H
	DD	imagerel $LN664
	DD	imagerel $LN664+850
	DD	imagerel $unwind$main
xdata	ENDS
;	COMDAT xdata
xdata	SEGMENT
$chain$1$main DD 020521H
	DD	036805H
	DD	imagerel $LN664
	DD	imagerel $LN664+850
	DD	imagerel $unwind$main
xdata	ENDS
;	COMDAT xdata
xdata	SEGMENT
$unwind$main DD	085001H
	DD	0ef450H
	DD	0e007720bH
	DD	060047005H
	DD	030025003H
xdata	ENDS
;	COMDAT xdata
xdata	SEGMENT
$ip2state$??$?0A6AXPEAUCUDADeviceSearchThreadInfo@@@ZPEAU0@@thread@std@@QEAA@A6AXPEAUCUDADeviceSearchThreadInfo@@@Z$$QEAPEAU2@@Z DD imagerel ??$?0A6AXPEAUCUDADeviceSearchThreadInfo@@@ZPEAU0@@thread@std@@QEAA@A6AXPEAUCUDADeviceSearchThreadInfo@@@Z$$QEAPEAU2@@Z
	DD	0ffffffffH
	DD	imagerel ??$?0A6AXPEAUCUDADeviceSearchThreadInfo@@@ZPEAU0@@thread@std@@QEAA@A6AXPEAUCUDADeviceSearchThreadInfo@@@Z$$QEAPEAU2@@Z+66
	DD	00H
	DD	imagerel ??$?0A6AXPEAUCUDADeviceSearchThreadInfo@@@ZPEAU0@@thread@std@@QEAA@A6AXPEAUCUDADeviceSearchThreadInfo@@@Z$$QEAPEAU2@@Z+80
	DD	0ffffffffH
xdata	ENDS
;	COMDAT xdata
xdata	SEGMENT
$stateUnwindMap$??$?0A6AXPEAUCUDADeviceSearchThreadInfo@@@ZPEAU0@@thread@std@@QEAA@A6AXPEAUCUDADeviceSearchThreadInfo@@@Z$$QEAPEAU2@@Z DD 0ffffffffH
	DD	imagerel ?dtor$0@?0???$?0A6AXPEAUCUDADeviceSearchThreadInfo@@@ZPEAU0@@thread@std@@QEAA@A6AXPEAUCUDADeviceSearchThreadInfo@@@Z$$QEAPEAU2@@Z@4HA
xdata	ENDS
;	COMDAT CONST
CONST	SEGMENT
$cppxdata$??$?0A6AXPEAUCUDADeviceSearchThreadInfo@@@ZPEAU0@@thread@std@@QEAA@A6AXPEAUCUDADeviceSearchThreadInfo@@@Z$$QEAPEAU2@@Z DD 019930522H
	DD	01H
	DD	imagerel $stateUnwindMap$??$?0A6AXPEAUCUDADeviceSearchThreadInfo@@@ZPEAU0@@thread@std@@QEAA@A6AXPEAUCUDADeviceSearchThreadInfo@@@Z$$QEAPEAU2@@Z
	DD	00H
	DD	00H
	DD	03H
	DD	imagerel $ip2state$??$?0A6AXPEAUCUDADeviceSearchThreadInfo@@@ZPEAU0@@thread@std@@QEAA@A6AXPEAUCUDADeviceSearchThreadInfo@@@Z$$QEAPEAU2@@Z
	DD	020H
	DD	00H
	DD	01H
CONST	ENDS
;	COMDAT xdata
xdata	SEGMENT
$unwind$??$?0A6AXPEAUCUDADeviceSearchThreadInfo@@@ZPEAU0@@thread@std@@QEAA@A6AXPEAUCUDADeviceSearchThreadInfo@@@Z$$QEAPEAU2@@Z DD 061911H
	DD	0f6419H
	DD	0e3414H
	DD	07002b206H
	DD	imagerel __CxxFrameHandler3
	DD	imagerel $cppxdata$??$?0A6AXPEAUCUDADeviceSearchThreadInfo@@@ZPEAU0@@thread@std@@QEAA@A6AXPEAUCUDADeviceSearchThreadInfo@@@Z$$QEAPEAU2@@Z
xdata	ENDS
;	COMDAT xdata
xdata	SEGMENT
$ip2state$??$?0A6AXPEAUOpenCLDeviceSearchThreadInfo@@@ZPEAU0@@thread@std@@QEAA@A6AXPEAUOpenCLDeviceSearchThreadInfo@@@Z$$QEAPEAU2@@Z DD imagerel ??$?0A6AXPEAUOpenCLDeviceSearchThreadInfo@@@ZPEAU0@@thread@std@@QEAA@A6AXPEAUOpenCLDeviceSearchThreadInfo@@@Z$$QEAPEAU2@@Z
	DD	0ffffffffH
	DD	imagerel ??$?0A6AXPEAUOpenCLDeviceSearchThreadInfo@@@ZPEAU0@@thread@std@@QEAA@A6AXPEAUOpenCLDeviceSearchThreadInfo@@@Z$$QEAPEAU2@@Z+66
	DD	00H
	DD	imagerel ??$?0A6AXPEAUOpenCLDeviceSearchThreadInfo@@@ZPEAU0@@thread@std@@QEAA@A6AXPEAUOpenCLDeviceSearchThreadInfo@@@Z$$QEAPEAU2@@Z+80
	DD	0ffffffffH
xdata	ENDS
;	COMDAT xdata
xdata	SEGMENT
$stateUnwindMap$??$?0A6AXPEAUOpenCLDeviceSearchThreadInfo@@@ZPEAU0@@thread@std@@QEAA@A6AXPEAUOpenCLDeviceSearchThreadInfo@@@Z$$QEAPEAU2@@Z DD 0ffffffffH
	DD	imagerel ?dtor$0@?0???$?0A6AXPEAUOpenCLDeviceSearchThreadInfo@@@ZPEAU0@@thread@std@@QEAA@A6AXPEAUOpenCLDeviceSearchThreadInfo@@@Z$$QEAPEAU2@@Z@4HA
xdata	ENDS
;	COMDAT CONST
CONST	SEGMENT
$cppxdata$??$?0A6AXPEAUOpenCLDeviceSearchThreadInfo@@@ZPEAU0@@thread@std@@QEAA@A6AXPEAUOpenCLDeviceSearchThreadInfo@@@Z$$QEAPEAU2@@Z DD 019930522H
	DD	01H
	DD	imagerel $stateUnwindMap$??$?0A6AXPEAUOpenCLDeviceSearchThreadInfo@@@ZPEAU0@@thread@std@@QEAA@A6AXPEAUOpenCLDeviceSearchThreadInfo@@@Z$$QEAPEAU2@@Z
	DD	00H
	DD	00H
	DD	03H
	DD	imagerel $ip2state$??$?0A6AXPEAUOpenCLDeviceSearchThreadInfo@@@ZPEAU0@@thread@std@@QEAA@A6AXPEAUOpenCLDeviceSearchThreadInfo@@@Z$$QEAPEAU2@@Z
	DD	020H
	DD	00H
	DD	01H
CONST	ENDS
;	COMDAT xdata
xdata	SEGMENT
$unwind$??$?0A6AXPEAUOpenCLDeviceSearchThreadInfo@@@ZPEAU0@@thread@std@@QEAA@A6AXPEAUOpenCLDeviceSearchThreadInfo@@@Z$$QEAPEAU2@@Z DD 061911H
	DD	0f6419H
	DD	0e3414H
	DD	07002b206H
	DD	imagerel __CxxFrameHandler3
	DD	imagerel $cppxdata$??$?0A6AXPEAUOpenCLDeviceSearchThreadInfo@@@ZPEAU0@@thread@std@@QEAA@A6AXPEAUOpenCLDeviceSearchThreadInfo@@@Z$$QEAPEAU2@@Z
xdata	ENDS
;	COMDAT xdata
xdata	SEGMENT
$ip2state$??$?0A6AXXZ$$$V@thread@std@@QEAA@A6AXXZ@Z DD imagerel ??$?0A6AXXZ$$$V@thread@std@@QEAA@A6AXXZ@Z
	DD	0ffffffffH
	DD	imagerel ??$?0A6AXXZ$$$V@thread@std@@QEAA@A6AXXZ@Z+53
	DD	00H
	DD	imagerel ??$?0A6AXXZ$$$V@thread@std@@QEAA@A6AXXZ@Z+67
	DD	0ffffffffH
xdata	ENDS
;	COMDAT xdata
xdata	SEGMENT
$stateUnwindMap$??$?0A6AXXZ$$$V@thread@std@@QEAA@A6AXXZ@Z DD 0ffffffffH
	DD	imagerel ?dtor$0@?0???$?0A6AXXZ$$$V@thread@std@@QEAA@A6AXXZ@Z@4HA
xdata	ENDS
;	COMDAT CONST
CONST	SEGMENT
$cppxdata$??$?0A6AXXZ$$$V@thread@std@@QEAA@A6AXXZ@Z DD 019930522H
	DD	01H
	DD	imagerel $stateUnwindMap$??$?0A6AXXZ$$$V@thread@std@@QEAA@A6AXXZ@Z
	DD	00H
	DD	00H
	DD	03H
	DD	imagerel $ip2state$??$?0A6AXXZ$$$V@thread@std@@QEAA@A6AXXZ@Z
	DD	020H
	DD	00H
	DD	01H
CONST	ENDS
;	COMDAT xdata
xdata	SEGMENT
$unwind$??$?0A6AXXZ$$$V@thread@std@@QEAA@A6AXXZ@Z DD 041411H
	DD	0e3414H
	DD	07002b206H
	DD	imagerel __CxxFrameHandler3
	DD	imagerel $cppxdata$??$?0A6AXXZ$$$V@thread@std@@QEAA@A6AXXZ@Z
xdata	ENDS
;	COMDAT xdata
xdata	SEGMENT
$ip2state$??$_Launch@V?$_Bind@$00XQ6AXPEAUCUDADeviceSearchThreadInfo@@@ZPEAU1@@std@@@std@@YAXPEAU_Thrd_imp_t@@$$QEAV?$_Bind@$00XQ6AXPEAUCUDADeviceSearchThreadInfo@@@ZPEAU1@@0@@Z DD imagerel ??$_Launch@V?$_Bind@$00XQ6AXPEAUCUDADeviceSearchThreadInfo@@@ZPEAU1@@std@@@std@@YAXPEAU_Thrd_imp_t@@$$QEAV?$_Bind@$00XQ6AXPEAUCUDADeviceSearchThreadInfo@@@ZPEAU1@@0@@Z
	DD	0ffffffffH
	DD	imagerel ??$_Launch@V?$_Bind@$00XQ6AXPEAUCUDADeviceSearchThreadInfo@@@ZPEAU1@@std@@@std@@YAXPEAU_Thrd_imp_t@@$$QEAV?$_Bind@$00XQ6AXPEAUCUDADeviceSearchThreadInfo@@@ZPEAU1@@0@@Z+65
	DD	00H
	DD	imagerel ??$_Launch@V?$_Bind@$00XQ6AXPEAUCUDADeviceSearchThreadInfo@@@ZPEAU1@@std@@@std@@YAXPEAU_Thrd_imp_t@@$$QEAV?$_Bind@$00XQ6AXPEAUCUDADeviceSearchThreadInfo@@@ZPEAU1@@0@@Z+79
	DD	0ffffffffH
xdata	ENDS
;	COMDAT xdata
xdata	SEGMENT
$stateUnwindMap$??$_Launch@V?$_Bind@$00XQ6AXPEAUCUDADeviceSearchThreadInfo@@@ZPEAU1@@std@@@std@@YAXPEAU_Thrd_imp_t@@$$QEAV?$_Bind@$00XQ6AXPEAUCUDADeviceSearchThreadInfo@@@ZPEAU1@@0@@Z DD 0ffffffffH
	DD	imagerel ?dtor$0@?0???$_Launch@V?$_Bind@$00XQ6AXPEAUCUDADeviceSearchThreadInfo@@@ZPEAU1@@std@@@std@@YAXPEAU_Thrd_imp_t@@$$QEAV?$_Bind@$00XQ6AXPEAUCUDADeviceSearchThreadInfo@@@ZPEAU1@@0@@Z@4HA
xdata	ENDS
;	COMDAT CONST
CONST	SEGMENT
$cppxdata$??$_Launch@V?$_Bind@$00XQ6AXPEAUCUDADeviceSearchThreadInfo@@@ZPEAU1@@std@@@std@@YAXPEAU_Thrd_imp_t@@$$QEAV?$_Bind@$00XQ6AXPEAUCUDADeviceSearchThreadInfo@@@ZPEAU1@@0@@Z DD 019930522H
	DD	01H
	DD	imagerel $stateUnwindMap$??$_Launch@V?$_Bind@$00XQ6AXPEAUCUDADeviceSearchThreadInfo@@@ZPEAU1@@std@@@std@@YAXPEAU_Thrd_imp_t@@$$QEAV?$_Bind@$00XQ6AXPEAUCUDADeviceSearchThreadInfo@@@ZPEAU1@@0@@Z
	DD	00H
	DD	00H
	DD	03H
	DD	imagerel $ip2state$??$_Launch@V?$_Bind@$00XQ6AXPEAUCUDADeviceSearchThreadInfo@@@ZPEAU1@@std@@@std@@YAXPEAU_Thrd_imp_t@@$$QEAV?$_Bind@$00XQ6AXPEAUCUDADeviceSearchThreadInfo@@@ZPEAU1@@0@@Z
	DD	020H
	DD	00H
	DD	01H
CONST	ENDS
;	COMDAT xdata
xdata	SEGMENT
$unwind$??$_Launch@V?$_Bind@$00XQ6AXPEAUCUDADeviceSearchThreadInfo@@@ZPEAU1@@std@@@std@@YAXPEAU_Thrd_imp_t@@$$QEAV?$_Bind@$00XQ6AXPEAUCUDADeviceSearchThreadInfo@@@ZPEAU1@@0@@Z DD 041411H
	DD	0e3414H
	DD	07002b206H
	DD	imagerel __CxxFrameHandler3
	DD	imagerel $cppxdata$??$_Launch@V?$_Bind@$00XQ6AXPEAUCUDADeviceSearchThreadInfo@@@ZPEAU1@@std@@@std@@YAXPEAU_Thrd_imp_t@@$$QEAV?$_Bind@$00XQ6AXPEAUCUDADeviceSearchThreadInfo@@@ZPEAU1@@0@@Z
xdata	ENDS
;	COMDAT xdata
xdata	SEGMENT
$ip2state$??$_Launch@V?$_Bind@$00XQ6AXPEAUOpenCLDeviceSearchThreadInfo@@@ZPEAU1@@std@@@std@@YAXPEAU_Thrd_imp_t@@$$QEAV?$_Bind@$00XQ6AXPEAUOpenCLDeviceSearchThreadInfo@@@ZPEAU1@@0@@Z DD imagerel ??$_Launch@V?$_Bind@$00XQ6AXPEAUOpenCLDeviceSearchThreadInfo@@@ZPEAU1@@std@@@std@@YAXPEAU_Thrd_imp_t@@$$QEAV?$_Bind@$00XQ6AXPEAUOpenCLDeviceSearchThreadInfo@@@ZPEAU1@@0@@Z
	DD	0ffffffffH
	DD	imagerel ??$_Launch@V?$_Bind@$00XQ6AXPEAUOpenCLDeviceSearchThreadInfo@@@ZPEAU1@@std@@@std@@YAXPEAU_Thrd_imp_t@@$$QEAV?$_Bind@$00XQ6AXPEAUOpenCLDeviceSearchThreadInfo@@@ZPEAU1@@0@@Z+65
	DD	00H
	DD	imagerel ??$_Launch@V?$_Bind@$00XQ6AXPEAUOpenCLDeviceSearchThreadInfo@@@ZPEAU1@@std@@@std@@YAXPEAU_Thrd_imp_t@@$$QEAV?$_Bind@$00XQ6AXPEAUOpenCLDeviceSearchThreadInfo@@@ZPEAU1@@0@@Z+79
	DD	0ffffffffH
xdata	ENDS
;	COMDAT xdata
xdata	SEGMENT
$stateUnwindMap$??$_Launch@V?$_Bind@$00XQ6AXPEAUOpenCLDeviceSearchThreadInfo@@@ZPEAU1@@std@@@std@@YAXPEAU_Thrd_imp_t@@$$QEAV?$_Bind@$00XQ6AXPEAUOpenCLDeviceSearchThreadInfo@@@ZPEAU1@@0@@Z DD 0ffffffffH
	DD	imagerel ?dtor$0@?0???$_Launch@V?$_Bind@$00XQ6AXPEAUOpenCLDeviceSearchThreadInfo@@@ZPEAU1@@std@@@std@@YAXPEAU_Thrd_imp_t@@$$QEAV?$_Bind@$00XQ6AXPEAUOpenCLDeviceSearchThreadInfo@@@ZPEAU1@@0@@Z@4HA
xdata	ENDS
;	COMDAT CONST
CONST	SEGMENT
$cppxdata$??$_Launch@V?$_Bind@$00XQ6AXPEAUOpenCLDeviceSearchThreadInfo@@@ZPEAU1@@std@@@std@@YAXPEAU_Thrd_imp_t@@$$QEAV?$_Bind@$00XQ6AXPEAUOpenCLDeviceSearchThreadInfo@@@ZPEAU1@@0@@Z DD 019930522H
	DD	01H
	DD	imagerel $stateUnwindMap$??$_Launch@V?$_Bind@$00XQ6AXPEAUOpenCLDeviceSearchThreadInfo@@@ZPEAU1@@std@@@std@@YAXPEAU_Thrd_imp_t@@$$QEAV?$_Bind@$00XQ6AXPEAUOpenCLDeviceSearchThreadInfo@@@ZPEAU1@@0@@Z
	DD	00H
	DD	00H
	DD	03H
	DD	imagerel $ip2state$??$_Launch@V?$_Bind@$00XQ6AXPEAUOpenCLDeviceSearchThreadInfo@@@ZPEAU1@@std@@@std@@YAXPEAU_Thrd_imp_t@@$$QEAV?$_Bind@$00XQ6AXPEAUOpenCLDeviceSearchThreadInfo@@@ZPEAU1@@0@@Z
	DD	020H
	DD	00H
	DD	01H
CONST	ENDS
;	COMDAT xdata
xdata	SEGMENT
$unwind$??$_Launch@V?$_Bind@$00XQ6AXPEAUOpenCLDeviceSearchThreadInfo@@@ZPEAU1@@std@@@std@@YAXPEAU_Thrd_imp_t@@$$QEAV?$_Bind@$00XQ6AXPEAUOpenCLDeviceSearchThreadInfo@@@ZPEAU1@@0@@Z DD 041411H
	DD	0e3414H
	DD	07002b206H
	DD	imagerel __CxxFrameHandler3
	DD	imagerel $cppxdata$??$_Launch@V?$_Bind@$00XQ6AXPEAUOpenCLDeviceSearchThreadInfo@@@ZPEAU1@@std@@@std@@YAXPEAU_Thrd_imp_t@@$$QEAV?$_Bind@$00XQ6AXPEAUOpenCLDeviceSearchThreadInfo@@@ZPEAU1@@0@@Z
xdata	ENDS
;	COMDAT xdata
xdata	SEGMENT
$ip2state$??$_Launch@V?$_Bind@$00XQ6AXXZ$$$V@std@@@std@@YAXPEAU_Thrd_imp_t@@$$QEAV?$_Bind@$00XQ6AXXZ$$$V@0@@Z DD imagerel ??$_Launch@V?$_Bind@$00XQ6AXXZ$$$V@std@@@std@@YAXPEAU_Thrd_imp_t@@$$QEAV?$_Bind@$00XQ6AXXZ$$$V@0@@Z
	DD	0ffffffffH
	DD	imagerel ??$_Launch@V?$_Bind@$00XQ6AXXZ$$$V@std@@@std@@YAXPEAU_Thrd_imp_t@@$$QEAV?$_Bind@$00XQ6AXXZ$$$V@0@@Z+56
	DD	00H
	DD	imagerel ??$_Launch@V?$_Bind@$00XQ6AXXZ$$$V@std@@@std@@YAXPEAU_Thrd_imp_t@@$$QEAV?$_Bind@$00XQ6AXXZ$$$V@0@@Z+70
	DD	0ffffffffH
xdata	ENDS
;	COMDAT xdata
xdata	SEGMENT
$stateUnwindMap$??$_Launch@V?$_Bind@$00XQ6AXXZ$$$V@std@@@std@@YAXPEAU_Thrd_imp_t@@$$QEAV?$_Bind@$00XQ6AXXZ$$$V@0@@Z DD 0ffffffffH
	DD	imagerel ?dtor$0@?0???$_Launch@V?$_Bind@$00XQ6AXXZ$$$V@std@@@std@@YAXPEAU_Thrd_imp_t@@$$QEAV?$_Bind@$00XQ6AXXZ$$$V@0@@Z@4HA
xdata	ENDS
;	COMDAT CONST
CONST	SEGMENT
$cppxdata$??$_Launch@V?$_Bind@$00XQ6AXXZ$$$V@std@@@std@@YAXPEAU_Thrd_imp_t@@$$QEAV?$_Bind@$00XQ6AXXZ$$$V@0@@Z DD 019930522H
	DD	01H
	DD	imagerel $stateUnwindMap$??$_Launch@V?$_Bind@$00XQ6AXXZ$$$V@std@@@std@@YAXPEAU_Thrd_imp_t@@$$QEAV?$_Bind@$00XQ6AXXZ$$$V@0@@Z
	DD	00H
	DD	00H
	DD	03H
	DD	imagerel $ip2state$??$_Launch@V?$_Bind@$00XQ6AXXZ$$$V@std@@@std@@YAXPEAU_Thrd_imp_t@@$$QEAV?$_Bind@$00XQ6AXXZ$$$V@0@@Z
	DD	020H
	DD	00H
	DD	01H
CONST	ENDS
;	COMDAT xdata
xdata	SEGMENT
$unwind$??$_Launch@V?$_Bind@$00XQ6AXXZ$$$V@std@@@std@@YAXPEAU_Thrd_imp_t@@$$QEAV?$_Bind@$00XQ6AXXZ$$$V@0@@Z DD 041411H
	DD	0e3414H
	DD	07002b206H
	DD	imagerel __CxxFrameHandler3
	DD	imagerel $cppxdata$??$_Launch@V?$_Bind@$00XQ6AXXZ$$$V@std@@@std@@YAXPEAU_Thrd_imp_t@@$$QEAV?$_Bind@$00XQ6AXXZ$$$V@0@@Z
xdata	ENDS
;	COMDAT xdata
xdata	SEGMENT
$unwind$?_Go@?$_LaunchPad@V?$_Bind@$00XQ6AXPEAUCUDADeviceSearchThreadInfo@@@ZPEAU1@@std@@@std@@UEAAIXZ DD 040a01H
	DD	06340aH
	DD	07006320aH
xdata	ENDS
;	COMDAT xdata
xdata	SEGMENT
$unwind$?_Go@?$_LaunchPad@V?$_Bind@$00XQ6AXPEAUOpenCLDeviceSearchThreadInfo@@@ZPEAU1@@std@@@std@@UEAAIXZ DD 040a01H
	DD	06340aH
	DD	07006320aH
xdata	ENDS
;	COMDAT xdata
xdata	SEGMENT
$unwind$?_Go@?$_LaunchPad@V?$_Bind@$00XQ6AXXZ$$$V@std@@@std@@UEAAIXZ DD 020601H
	DD	030023206H
xdata	ENDS
;	COMDAT xdata
xdata	SEGMENT
$unwind$?_Run@?$_LaunchPad@V?$_Bind@$00XQ6AXPEAUCUDADeviceSearchThreadInfo@@@ZPEAU1@@std@@@std@@CAIPEAV12@@Z DD 040a01H
	DD	06340aH
	DD	07006320aH
xdata	ENDS
;	COMDAT xdata
xdata	SEGMENT
$unwind$?_Run@?$_LaunchPad@V?$_Bind@$00XQ6AXPEAUOpenCLDeviceSearchThreadInfo@@@ZPEAU1@@std@@@std@@CAIPEAV12@@Z DD 040a01H
	DD	06340aH
	DD	07006320aH
xdata	ENDS
;	COMDAT xdata
xdata	SEGMENT
$unwind$?_Run@?$_LaunchPad@V?$_Bind@$00XQ6AXXZ$$$V@std@@@std@@CAIPEAV12@@Z DD 020601H
	DD	030023206H
xdata	ENDS
;	COMDAT xdata
xdata	SEGMENT
$unwind$??$?0V?$_Bind@$00XQ6AXPEAUCUDADeviceSearchThreadInfo@@@ZPEAU1@@std@@@?$_LaunchPad@V?$_Bind@$00XQ6AXPEAUCUDADeviceSearchThreadInfo@@@ZPEAU1@@std@@@std@@QEAA@$$QEAV?$_Bind@$00XQ6AXPEAUCUDADeviceSearchThreadInfo@@@ZPEAU1@@1@@Z DD 040a01H
	DD	06340aH
	DD	07006320aH
xdata	ENDS
;	COMDAT xdata
xdata	SEGMENT
$unwind$??$?0V?$_Bind@$00XQ6AXPEAUOpenCLDeviceSearchThreadInfo@@@ZPEAU1@@std@@@?$_LaunchPad@V?$_Bind@$00XQ6AXPEAUOpenCLDeviceSearchThreadInfo@@@ZPEAU1@@std@@@std@@QEAA@$$QEAV?$_Bind@$00XQ6AXPEAUOpenCLDeviceSearchThreadInfo@@@ZPEAU1@@1@@Z DD 040a01H
	DD	06340aH
	DD	07006320aH
xdata	ENDS
;	COMDAT xdata
xdata	SEGMENT
$unwind$??$?0V?$_Bind@$00XQ6AXXZ$$$V@std@@@?$_LaunchPad@V?$_Bind@$00XQ6AXXZ$$$V@std@@@std@@QEAA@$$QEAV?$_Bind@$00XQ6AXXZ$$$V@1@@Z DD 040a01H
	DD	06340aH
	DD	07006320aH
xdata	ENDS
;	COMDAT xdata
xdata	SEGMENT
$unwind$??$_Do_call@$$$V$0A@@?$_Bind@$00XQ6AXPEAUCUDADeviceSearchThreadInfo@@@ZPEAU1@@std@@QEAAXV?$tuple@$$$V@1@U?$_Arg_idx@$0A@@1@@Z DD 010401H
	DD	04204H
xdata	ENDS
;	COMDAT xdata
xdata	SEGMENT
$unwind$??$_Do_call@$$$V$0A@@?$_Bind@$00XQ6AXPEAUOpenCLDeviceSearchThreadInfo@@@ZPEAU1@@std@@QEAAXV?$tuple@$$$V@1@U?$_Arg_idx@$0A@@1@@Z DD 010401H
	DD	04204H
xdata	ENDS
;	COMDAT xdata
xdata	SEGMENT
$unwind$??$_Do_call@$$$V$S@?$_Bind@$00XQ6AXXZ$$$V@std@@QEAAXV?$tuple@$$$V@1@U?$_Arg_idx@$S@1@@Z DD 010401H
	DD	04204H
posix_category$initializer$ DQ FLAT:??__Eposix_category@system@boost@@YAXXZ
errno_ecat$initializer$ DQ FLAT:??__Eerrno_ecat@system@boost@@YAXXZ
native_ecat$initializer$ DQ FLAT:??__Enative_ecat@system@boost@@YAXXZ
num_generated_tripcodes_spinlock$initializer$ DQ FLAT:??__Enum_generated_tripcodes_spinlock@@YAXXZ
process_tripcode_pair_spinlock$initializer$ DQ FLAT:??__Eprocess_tripcode_pair_spinlock@@YAXXZ
current_state_spinlock$initializer$ DQ FLAT:??__Ecurrent_state_spinlock@@YAXXZ
cuda_device_search_thread_info_array_spinlock$initializer$ DQ FLAT:??__Ecuda_device_search_thread_info_array_spinlock@@YAXXZ
opencl_device_search_thread_info_array_spinlock$initializer$ DQ FLAT:??__Eopencl_device_search_thread_info_array_spinlock@@YAXXZ
system_command_spinlock$initializer$ DQ FLAT:??__Esystem_command_spinlock@@YAXXZ
boost_process_spinlock$initializer$ DQ FLAT:??__Eboost_process_spinlock@@YAXXZ
; Function compile flags: /Ogtpy
; File z:\github\merikens-tripcode-engine\sourcefiles\main.cpp
;	COMDAT ?SetCharactersInTripcodeKey@@YAXPEAEH@Z
_TEXT	SEGMENT
randomValue$1 = 32
randomValue$2 = 36
key$ = 96
n$ = 104
randomValue$3 = 112
randomValue$4 = 112
randomValue$5 = 112
randomValue$6 = 120
randomValue$7 = 120
randomValue$8 = 120
?SetCharactersInTripcodeKey@@YAXPEAEH@Z PROC		; SetCharactersInTripcodeKey, COMDAT

; 1723 : {

$LN210:
	push	rbx
	push	rsi
	push	rdi
	push	r15
	sub	rsp, 56					; 00000038H

; 1724 : 	if (options.useOnlyASCIICharactersForKeys) {
; 1725 : 		for (int32_t i = 0; i < n; i++){

	xor	edi, edi
	mov	rsi, rcx
	movsxd	r15, edx
	cmp	DWORD PTR ?options@@3UOptions@@A+84, edi
	je	SHORT $LN72@SetCharact
	test	edx, edx
	jle	$LN188@SetCharact
	mov	rbx, 5764634383759704063		; 5000186dffffffffH
	npad	4
$LL71@SetCharact:

; 229  : 	rand_s(&randomValue);

	lea	rcx, QWORD PTR randomValue$5[rsp]
	call	rand_s

; 1726 : 			key[i] = RandomByte();

	movzx	eax, BYTE PTR randomValue$5[rsp]
$LN191@SetCharact:
	mov	BYTE PTR [rdi+rsi], al

; 1727 : 			while ((i == 0 && (key[i] == '#' || key[i] == '$')) || !IS_ASCII_KEY_CHAR(key[i]))

	test	rdi, rdi
	jne	SHORT $LN65@SetCharact
	movzx	eax, BYTE PTR [rsi]
	sub	al, 35					; 00000023H
	cmp	al, 1
	jbe	SHORT $LN61@SetCharact
$LN65@SetCharact:
	movzx	ecx, BYTE PTR [rdi+rsi]
	cmp	cl, 62					; 0000003eH
	ja	SHORT $LN145@SetCharact
	bt	rbx, rcx
	jb	SHORT $LN61@SetCharact
$LN145@SetCharact:
	cmp	cl, 127					; 0000007fH
	jb	SHORT $LN70@SetCharact
$LN61@SetCharact:

; 229  : 	rand_s(&randomValue);

	lea	rcx, QWORD PTR randomValue$8[rsp]
	call	rand_s

; 1728 : 				key[i] = (unsigned char)(RandomByte() & 0xff);

	movzx	eax, BYTE PTR randomValue$8[rsp]
	jmp	SHORT $LN191@SetCharact
$LN70@SetCharact:

; 1724 : 	if (options.useOnlyASCIICharactersForKeys) {
; 1725 : 		for (int32_t i = 0; i < n; i++){

	inc	rdi
	cmp	rdi, r15
	jl	SHORT $LL71@SetCharact

; 1750 : 			}
; 1751 : 		}
; 1752 : 	}
; 1753 : }

	add	rsp, 56					; 00000038H
	pop	r15
	pop	rdi
	pop	rsi
	pop	rbx
	ret	0
$LN72@SetCharact:

; 1729 : 		}
; 1730 : 	} else if (options.useOneByteCharactersForKeys) {

	cmp	DWORD PTR ?options@@3UOptions@@A+48, 0
	mov	QWORD PTR [rsp+96], rbp
	je	SHORT $LN59@SetCharact

; 1731 : 		for (int32_t i = 0; i < n; i++){

	test	edx, edx
	jle	$LN189@SetCharact
	mov	rbp, 26534307954687			; 00001821ffffffffH
	npad	9
$LL58@SetCharact:

; 229  : 	rand_s(&randomValue);

	lea	rcx, QWORD PTR randomValue$4[rsp]
	call	rand_s

; 1732 : 			key[i] = RandomByte();

	movzx	eax, BYTE PTR randomValue$4[rsp]
$LN192@SetCharact:
	mov	BYTE PTR [rdi+rsi], al

; 1733 : 			while ((i == 0 && (key[i] == '#' || key[i] == '$')) || !IS_ONE_BYTE_KEY_CHAR(key[i]))

	test	rdi, rdi
	jne	SHORT $LN52@SetCharact
	movzx	eax, BYTE PTR [rsi]
	sub	al, 35					; 00000023H
	cmp	al, 1
	jbe	SHORT $LN48@SetCharact
$LN52@SetCharact:
	movzx	ecx, BYTE PTR [rdi+rsi]
	lea	eax, DWORD PTR [rcx-127]
	cmp	al, 33					; 00000021H
	jbe	SHORT $LN48@SetCharact
	cmp	cl, 44					; 0000002cH
	ja	SHORT $LN148@SetCharact
	bt	rbp, rcx
	jb	SHORT $LN48@SetCharact
$LN148@SetCharact:
	cmp	cl, 224					; 000000e0H
	jb	SHORT $LN57@SetCharact
$LN48@SetCharact:

; 229  : 	rand_s(&randomValue);

	lea	rcx, QWORD PTR randomValue$7[rsp]
	call	rand_s

; 1734 : 				key[i] = (unsigned char)(RandomByte() & 0xff);

	movzx	eax, BYTE PTR randomValue$7[rsp]
	jmp	SHORT $LN192@SetCharact
$LN57@SetCharact:

; 1731 : 		for (int32_t i = 0; i < n; i++){

	inc	rdi
	cmp	rdi, r15
	jl	SHORT $LL58@SetCharact
	mov	rbp, QWORD PTR [rsp+96]

; 1750 : 			}
; 1751 : 		}
; 1752 : 	}
; 1753 : }

	add	rsp, 56					; 00000038H
	pop	r15
	pop	rdi
	pop	rsi
	pop	rbx
	ret	0
$LN59@SetCharact:
	mov	QWORD PTR [rsp+48], r14

; 1735 : 		}
; 1736 : 	} else {
; 1737 : 		BOOL isSecondByteSJIS = FALSE;

	mov	ebx, edi

; 1738 : 		for (int32_t i = 0; i < n; i++){

	mov	r14, rdi
	test	edx, edx
	jle	$LN190@SetCharact
	mov	QWORD PTR [rsp+104], r12
	mov	rbp, 26534307954687			; 00001821ffffffffH
	mov	r12d, 2147483535			; 7fffff8fH
	npad	6
$LL46@SetCharact:

; 1739 : 			if (!isSecondByteSJIS) {

	test	ebx, ebx
	jne	$LN43@SetCharact

; 229  : 	rand_s(&randomValue);

	lea	rcx, QWORD PTR randomValue$3[rsp]
	call	rand_s

; 1740 : 				key[i] = RandomByte();

	movzx	eax, BYTE PTR randomValue$3[rsp]
$LN194@SetCharact:
	mov	BYTE PTR [r14+rsi], al

; 1741 : 				while ((i == 0 && (key[i] == '#' || key[i] == '$')) || !(IS_ONE_BYTE_KEY_CHAR(key[i]) || IsFirstByteSJIS(key[i])))

	test	r14, r14
	jne	SHORT $LN39@SetCharact
	movzx	eax, BYTE PTR [rsi]
	sub	al, 35					; 00000023H
	cmp	al, 1
	jbe	SHORT $LN40@SetCharact
$LN39@SetCharact:
	movzx	ecx, BYTE PTR [r14+rsi]
	mov	edx, DWORD PTR ?options@@3UOptions@@A+88
	lea	eax, DWORD PTR [rcx-127]
	cmp	al, 33					; 00000021H
	jbe	SHORT $LN35@SetCharact
	cmp	cl, 44					; 0000002cH
	ja	SHORT $LN151@SetCharact
	movzx	eax, cl
	bt	rbp, rax
	jb	SHORT $LN35@SetCharact
$LN151@SetCharact:
	cmp	cl, 224					; 000000e0H
	jb	SHORT $LN91@SetCharact
$LN35@SetCharact:

; 230  : 	return (unsigned char)(randomValue & 0x000000ff);
; 231  : }
; 232  : 
; 233  : void ReleaseResources()
; 234  : {
; 235  : 	RELEASE_AND_SET_TO_NULL(expandedPatternArray, free);
; 236  : 	RELEASE_AND_SET_TO_NULL(tripcodeChunkArray,   free);
; 237  : 	RELEASE_AND_SET_TO_NULL(regexPatternArray,    free);
; 238  : 	if (tripcodeFile) {
; 239  : 		RELEASE_AND_SET_TO_NULL(tripcodeFile,     fclose);
; 240  : 	}
; 241  : 	if (eventForTerminating) {
; 242  : 		CloseHandle(eventForTerminating);
; 243  : 		eventForTerminating = NULL;
; 244  : 	}
; 245  : }
; 246  : 
; 247  : void PrintUsage()
; 248  : {
; 249  : 	printf("Usage: %s [-c] [-g] [-d device_no] [-x blocks_per_SM] [-y global_work_size] [-z local_work_size] [-o tripcode_file] [-f pattern_file] [-i] [-w]\n", COMMAND);
; 250  : 	getchar();
; 251  : 	exit(-1);
; 252  : }
; 253  : 
; 254  : void reset_cursor_pos(int n)
; 255  : {
; 256  : #ifdef _WINDOWS_
; 257  : 	CONSOLE_SCREEN_BUFFER_INFO scrnBufInfo;
; 258  : 	COORD                      cursorPos;
; 259  : 	if (!GetConsoleScreenBufferInfo(GetStdHandle(STD_OUTPUT_HANDLE), &scrnBufInfo))
; 260  : 		return;
; 261  : 	cursorPos.X = 0;
; 262  : 	cursorPos.Y = (scrnBufInfo.dwCursorPosition.Y + n) >= 0
; 263  : 		? (scrnBufInfo.dwCursorPosition.Y + n)
; 264  : 		: 0;
; 265  : 	SetConsoleCursorPosition(GetStdHandle(STD_OUTPUT_HANDLE), cursorPos);
; 266  : #else
; 267  : 	if (n >= 0) {
; 268  : 		std::cout << "\033[" << n << "B";
; 269  : 	} else {
; 270  : 		std::cout << "\033[" << -n << "A";
; 271  : 	}
; 272  : #endif
; 273  : }
; 274  : 
; 275  : #ifdef _WINDOWS_
; 276  : 
; 277  : void hide_cursor()
; 278  : {
; 279  : 	CONSOLE_CURSOR_INFO info;
; 280  : 
; 281  : 	info.bVisible = false;
; 282  : 	info.dwSize = 100;
; 283  : 	SetConsoleCursorInfo((HWND)GetStdHandle(STD_OUTPUT_HANDLE), &info);
; 284  : }
; 285  : 
; 286  : void show_cursor()
; 287  : {
; 288  : 	CONSOLE_CURSOR_INFO info;
; 289  : 
; 290  : 	info.bVisible = true;
; 291  : 	info.dwSize = 100;
; 292  : 	SetConsoleCursorInfo((HWND)GetStdHandle(STD_OUTPUT_HANDLE), &info); 
; 293  : }
; 294  : 
; 295  : #else
; 296  : 
; 297  : void hide_cursor()
; 298  : {
; 299  : }
; 300  : 
; 301  : void show_cursor()
; 302  : {
; 303  : }
; 304  : 
; 305  : #endif
; 306  : 
; 307  : void CreateKey8AndKey9(unsigned char *key)
; 308  : {
; 309  : 	ASSERT(lenTripcode == 10);
; 310  : 	if (options.useOneByteCharactersForKeys) {
; 311  : 		key[8] = keyCharTable_OneByte[RandomByte()];
; 312  : 		key[9] = keyCharTable_OneByte[RandomByte()];
; 313  : 	} else {
; 314  : 		BOOL isSecondByte = FALSE;
; 315  : 		for (int32_t i = 0; i < 8; ++i) {
; 316  : 			if (!isSecondByte) {
; 317  : 				isSecondByte = IS_FIRST_BYTE_SJIS_FULL(key[i]);
; 318  : 			} else {
; 319  : 				isSecondByte = FALSE;
; 320  : 			}
; 321  : 		}
; 322  : 		if (isSecondByte) {
; 323  : 			key[8] = keyCharTable_SecondByte[RandomByte()];
; 324  : 			key[9] = keyCharTable_OneByte   [RandomByte()];
; 325  : 		} else {
; 326  : 			key[8] = keyCharTable_FirstByte[RandomByte()];
; 327  : 			key[9] = (IS_FIRST_BYTE_SJIS_FULL(key[8]))
; 328  : 							? keyCharTable_SecondByte[RandomByte()]
; 329  : 							: keyCharTable_OneByte   [RandomByte()];
; 330  : 		}
; 331  : 	}
; 332  : }
; 333  : 
; 334  : double ProcessGPUOutput(unsigned char *partialKey, GPUOutput *outputArray, uint32_t sizeOutputArray, BOOL newFormat)
; 335  : {
; 336  : 	unsigned char  tripcode[MAX_LEN_TRIPCODE     + 1];
; 337  : 	unsigned char  key     [MAX_LEN_TRIPCODE_KEY + 1];
; 338  : 	double numGeneratedTripcodesInThisOutput = 0;
; 339  : 	
; 340  : 	tripcode[lenTripcode   ] = '\0';
; 341  : 	key     [lenTripcodeKey] = '\0';
; 342  : 	memcpy(key, partialKey, lenTripcodeKey);
; 343  : 	for (uint32_t indexOutput = 0; indexOutput < sizeOutputArray; indexOutput++){
; 344  : 		GPUOutput *output = &outputArray[indexOutput];
; 345  : 		AddToNumGeneratedTripcodesByGPU(output->numGeneratedTripcodes);
; 346  : 		numGeneratedTripcodesInThisOutput += output->numGeneratedTripcodes;
; 347  : 		if (output->numMatchingTripcodes > 0) {
; 348  : 			memcpy(tripcode, output->pair.tripcode.c, lenTripcode);
; 349  : 			if (lenTripcode == 12 && newFormat) {
; 350  : 				memcpy(key, output->pair.key.c, 4);
; 351  : 				key[7]  = output->pair.key.c[7];
; 352  : 				key[11] = output->pair.key.c[11];
; 353  : 			} else if (lenTripcode == 12) {
; 354  : 				memcpy(key + 7,  output->pair.key.c + 7, lenTripcode - 7);
; 355  : 			} else {
; 356  : 				ASSERT(lenTripcode == 10);
; 357  : 				memcpy(key,  output->pair.key.c, 8);
; 358  : 				CreateKey8AndKey9(key);
; 359  : 			}
; 360  : 			//printf("{%s, %s}\n", tripcode, key);
; 361  : 			ERROR0(!IsTripcodeChunkValid(tripcode),
; 362  : 				   ERROR_TRIPCODE_VERIFICATION_FAILED, 
; 363  : 				   GetErrorMessage(ERROR_TRIPCODE_VERIFICATION_FAILED));
; 364  : 			ProcessPossibleMatch(tripcode, key);
; 365  : 		}
; 366  : 	}
; 367  : 	return numGeneratedTripcodesInThisOutput;
; 368  : }
; 369  : 
; 370  : BOOL IsValidKey(unsigned char *key)
; 371  : {
; 372  : 	int32_t i;
; 373  : 	BOOL isSecondByteSJIS = FALSE;
; 374  : 	char results[13] = {0x00, 0x00, 0x00, 0x00, 0x00, 0x00, 0x00, 0x00, 0x00, 0x00, 0x00, 0x00, 0x00};
; 375  : 	
; 376  : 	if (key[0] == '#' || key[0] == '$') {
; 377  : #ifdef DEBUG_PRINT_INVALID_KEY_INFO
; 378  : 		printf("  results: %c                                                     \n", key[0]);
; 379  : #endif
; 380  : 		return FALSE;
; 381  : 	}
; 382  : 
; 383  : 	for (i = 0; i < lenTripcode; ++i) {
; 384  : 		if (!isSecondByteSJIS && IS_ONE_BYTE_KEY_CHAR(key[i])) {
; 385  : 			// Don't do anything
; 386  : 			results[i] = 'O';
; 387  : 		} else if (!isSecondByteSJIS && i < lenTripcode - 1 && IS_FIRST_BYTE_SJIS_FULL(key[i])) {
; 388  : 			isSecondByteSJIS = TRUE;
; 389  : 			results[i] = '1';
; 390  : 		} else if (isSecondByteSJIS && IS_SECOND_BYTE_SJIS(key[i])) {
; 391  : 		    isSecondByteSJIS = FALSE;
; 392  : 		    if (!IS_VALID_SJIS_CHAR(key[i - 1], key[i])) {
; 393  : #ifdef DEBUG_PRINT_INVALID_KEY_INFO
; 394  : 				printf("  results: %sx                                                     \n", results);
; 395  : 				printf("  key[%2d]: 0x%02x ('%c')                                            \n", i, key[i], key[i]);
; 396  : #endif
; 397  : 				return FALSE;
; 398  : 			}
; 399  : 			results[i] = '2';
; 400  : 		} else {
; 401  : #ifdef DEBUG_PRINT_INVALID_KEY_INFO
; 402  : 			printf("  results: %sX                                                     \n", results);
; 403  : 			printf("  key[%2d]: 0x%02x ('%c')                                            \n", i, key[i], key[i]);
; 404  : #endif
; 405  : 			return FALSE;
; 406  : 		}
; 407  : 	}
; 408  : 	return TRUE;
; 409  : }
; 410  : 
; 411  : void CreateCharacterTables(void)
; 412  : {
; 413  : 	unsigned char keyChar;
; 414  : 	int32_t i;
; 415  : 
; 416  : #if FALSE
; 417  : 	for (i = 0; i < 64; ++i)
; 418  : 		base64CharTable[i] = i + ((i < 26) ?  'A'       :
; 419  : 		                          (i < 52) ? ('a' - 26) :
; 420  : 		                          (i < 62) ? ('0' - 52) :
; 421  : 		                                     ('.' - 62));
; 422  : #endif
; 423  : 
; 424  : 	numFirstByte = numSecondByte = numOneByte = 0;
; 425  : 
; 426  : 	// Set keyCharTable_OneByte[]
; 427  : 	if (options.useOnlyASCIICharactersForKeys) {
; 428  : 		do {
; 429  : 			keyChar = RandomByte();
; 430  : 		} while (!IS_ASCII_KEY_CHAR(keyChar));
; 431  : 		for (i = 0; i < SIZE_KEY_CHAR_TABLE; ++i) {
; 432  : 			keyChar = ((int32_t)keyChar + 1) & 0xff;
; 433  : 			while (!IS_ASCII_KEY_CHAR(keyChar))
; 434  : 				keyChar = ((int32_t)keyChar + 1) & 0xff;
; 435  : 			keyCharTable_OneByte[i] = keyChar;
; 436  : 		}
; 437  : 	} else {
; 438  : 		do {
; 439  : 			keyChar = RandomByte();
; 440  : 		} while (!IS_ONE_BYTE_KEY_CHAR(keyChar));
; 441  : 		for (i = 0; i < SIZE_KEY_CHAR_TABLE; ++i) {
; 442  : 			keyChar = ((int32_t)keyChar + 1) & 0xff;
; 443  : 			while (!IS_ONE_BYTE_KEY_CHAR(keyChar))
; 444  : 				keyChar = ((int32_t)keyChar + 1) & 0xff;
; 445  : 			keyCharTable_OneByte[i] = keyChar;
; 446  : 		}
; 447  : 	}
; 448  : 
; 449  : 	// Set keyCharTable_FirstByte[], keyCharTable_SecondByte[], and keyCharTable_SecondByteAndOneByte[].
; 450  : 	if (options.useOnlyASCIICharactersForKeys) {
; 451  : 		for (i = 0; i < SIZE_KEY_CHAR_TABLE; ++i) {
; 452  : 			keyCharTable_FirstByte [i]           = keyCharTable_OneByte[i];
; 453  : 			keyCharTable_SecondByte[i]           = keyCharTable_OneByte[i];
; 454  : 			keyCharTable_SecondByteAndOneByte[i] = keyCharTable_OneByte[i];
; 455  : 		}
; 456  : 		for (int32_t i = 0; i < 256; ++i) {
; 457  : 			if (IS_ASCII_KEY_CHAR(i)) {
; 458  : 				++numFirstByte;
; 459  : 				++numSecondByte;
; 460  : 				++numOneByte;
; 461  : 			}
; 462  : 		}
; 463  : 	} else if (options.useOneByteCharactersForKeys) {
; 464  : 		for (i = 0; i < SIZE_KEY_CHAR_TABLE; ++i) {
; 465  : 			keyCharTable_FirstByte           [i] = keyCharTable_OneByte[i];
; 466  : 			keyCharTable_SecondByte          [i] = keyCharTable_OneByte[i];
; 467  : 			keyCharTable_SecondByteAndOneByte[i] = keyCharTable_OneByte[i];
; 468  : 		}
; 469  : 		for (int32_t i = 0; i < 256; ++i) {
; 470  : 			if (IS_ONE_BYTE_KEY_CHAR(i)) {
; 471  : 				++numFirstByte;
; 472  : 				++numSecondByte;
; 473  : 				++numOneByte;
; 474  : 			}
; 475  : 		}
; 476  : 	} else {
; 477  : 		// Set keyCharTable_FirstByte[].
; 478  : 		do {
; 479  : 			keyChar = RandomByte();
; 480  : 		} while (!(IS_ONE_BYTE_KEY_CHAR(keyChar) || IsFirstByteSJIS(keyChar)));
; 481  : 		for (i = 0; i < SIZE_KEY_CHAR_TABLE; ++i) {
; 482  : 			keyCharTable_FirstByte[i] = keyChar;
; 483  : 			do {
; 484  : 				keyChar = ((int32_t)keyChar + 1) & 0xff;
; 485  : 			} while (!(IS_ONE_BYTE_KEY_CHAR(keyChar) || IsFirstByteSJIS(keyChar)));
; 486  : 		}
; 487  : 
; 488  : 		// Set keyCharTable_SecondByte[].
; 489  : 		do {
; 490  : 			keyChar = RandomByte();
; 491  : 		} while (!IS_SECOND_BYTE_SJIS(keyChar));
; 492  : 		for (i = 0; i < SIZE_KEY_CHAR_TABLE; ++i) {
; 493  : 			keyCharTable_SecondByte[i] = keyChar;
; 494  : 			do {
; 495  : 				keyChar = ((int32_t)keyChar + 1) & 0xff;
; 496  : 			} while (!IS_SECOND_BYTE_SJIS(keyChar));
; 497  : 		}
; 498  : 
; 499  : 		// Set keyCharTable_SecondByteAndOneByte[].
; 500  : 		do {
; 501  : 			keyChar = RandomByte();
; 502  : 		} while (!(IS_SECOND_BYTE_SJIS(keyChar) && IS_ONE_BYTE_KEY_CHAR(keyChar)));
; 503  : 		for (i = 0; i < SIZE_KEY_CHAR_TABLE; ++i) {
; 504  : 			keyCharTable_SecondByteAndOneByte[i] = keyChar;
; 505  : 			do {
; 506  : 				keyChar = ((int32_t)keyChar + 1) & 0xff;
; 507  : 			} while (!(IS_SECOND_BYTE_SJIS(keyChar) && IS_ONE_BYTE_KEY_CHAR(keyChar)));
; 508  : 		}
; 509  : 
; 510  : 		// Count characters in each table.
; 511  : 		for (int32_t i = 0; i < 256; ++i) {
; 512  : 			if (IS_ONE_BYTE_KEY_CHAR(i) || IsFirstByteSJIS(i) ) ++numFirstByte;
; 513  : 			if (                           IS_SECOND_BYTE_SJIS(i)) ++numSecondByte;
; 514  : 			if (IS_ONE_BYTE_KEY_CHAR(i)                          ) ++numOneByte;
; 515  : 		}
; 516  : 	}
; 517  : #if FALSE
; 518  : 	printf("numFirstByte  = %d\n", numFirstByte);
; 519  : 	printf("numSecondByte = %d\n", numSecondByte);
; 520  : 	printf("numOneByte    = %d\n", numOneByte);
; 521  : #endif
; 522  : }
; 523  : 
; 524  : void DisplayCopyrights()
; 525  : {
; 526  : #ifdef ENGLISH_VERSION
; 527  : 	printf("%s English\n", PRODUCT_NAME);
; 528  : 	printf("[compiled at %s on %s (PST)]\n", __TIME__, __DATE__);
; 529  : 	printf("Copyright (C) 2014-2016 !/Meriken/. <meriken.ygch.net@gmail.com>\n");
; 530  : #else
; 531  : 	printf("%s\n", PRODUCT_NAME);
; 532  : 	printf("[compiled at %s on %s (PST)]\n", __TIME__, __DATE__);
; 533  : 	printf("Copyright (C) 2011-2016 %c%c/Meriken/. <meriken.ygch.net@gmail.com>\n", 0x81, 0x9f);
; 534  : #endif
; 535  : 	printf("This program comes with ABSOLUTELY NO WARRANTY.\n");
; 536  :     printf("This is free software, and you are welcome to redistribute it\n");
; 537  :     printf("under certain conditions.\n");
; 538  :     printf("\n");
; 539  : }
; 540  : 
; 541  : void UpdateCUDADeviceStatus(struct CUDADeviceSearchThreadInfo *info, char *status)
; 542  : {
; 543  : 	cuda_device_search_thread_info_array_spinlock.lock();
; 544  : 	strcpy(info->status, status);
; 545  : 	info->timeLastUpdated = TIME_SINCE_EPOCH_IN_MILLISECONDS;
; 546  : 	cuda_device_search_thread_info_array_spinlock.unlock();
; 547  : }
; 548  : 
; 549  : void UpdateOpenCLDeviceStatus(struct OpenCLDeviceSearchThreadInfo *info, char *status)
; 550  : {
; 551  : 	opencl_device_search_thread_info_array_spinlock.lock();
; 552  : 	ASSERT(!info->runChildProcess);
; 553  : 	strcpy(info->status, status);
; 554  : 	info->timeLastUpdated = TIME_SINCE_EPOCH_IN_MILLISECONDS;
; 555  : 	opencl_device_search_thread_info_array_spinlock.unlock();
; 556  : }
; 557  : 
; 558  : void UpdateOpenCLDeviceStatus_ChildProcess(struct OpenCLDeviceSearchThreadInfo *info, char *status, double currentSpeed, double averageSpeed, double totalNumGeneratedTripcodes, uint32_t numDiscardedTripcodes, boost::process::child *child_process)
; 559  : {
; 560  : 	opencl_device_search_thread_info_array_spinlock.lock();
; 561  : 	ASSERT(info->runChildProcess);
; 562  : 	strcpy(info->status, status);
; 563  : 	info->currentSpeed = currentSpeed;
; 564  : 	info->averageSpeed = averageSpeed;
; 565  : 	info->totalNumGeneratedTripcodes = totalNumGeneratedTripcodes;
; 566  : 	info->numDiscardedTripcodes = numDiscardedTripcodes;
; 567  : 	info->child_process = child_process;
; 568  : 	info->timeLastUpdated = TIME_SINCE_EPOCH_IN_MILLISECONDS;
; 569  : 	opencl_device_search_thread_info_array_spinlock.unlock();
; 570  : }
; 571  : 
; 572  : void CheckSearchThreads()
; 573  : {
; 574  : 	cuda_device_search_thread_info_array_spinlock.lock();
; 575  : 	for (int32_t index = 0; index < numCUDADeviceSearchThreads; ++index) {
; 576  : 		struct CUDADeviceSearchThreadInfo *info = &CUDADeviceSearchThreadInfoArray[index];
; 577  : 		uint64_t  currentTime = TIME_SINCE_EPOCH_IN_MILLISECONDS;
; 578  : 		uint64_t  deltaTime = currentTime - info->timeLastUpdated;
; 579  : 		// if (deltaTime > 60 * 1000)
; 580  : 		//	strcpy(info->status, "Search thread became unresponsive.");
; 581  : 		//ERROR0(deltaTime > 1 * 60 * 1000, ERROR_SEARCH_THREAD_UNRESPONSIVE, "Search thread became unresponsive.");
; 582  : 		///*
; 583  : 		if (deltaTime > 60 * 1000) {
; 584  : 			strcpy(info->status, "Restarting search thread...");
; 585  : 			auto native_handle = cuda_device_search_threads[index]->native_handle();
; 586  : 			cuda_device_search_threads[index]->detach();
; 587  : 			delete cuda_device_search_threads[index];
; 588  : #ifdef _WINDOWS_
; 589  : 			TerminateThread(native_handle, 0);
; 590  : #elif defined(_POSIX_THREADS)
; 591  : 			pthread_setcanceltype(PTHREAD_CANCEL_ASYNCHRONOUS, NULL);
; 592  : 			pthread_cancel(native_handle);
; 593  : #endif
; 594  : 			cuda_device_search_threads[index] = new std::thread((lenTripcode == 10) 
; 595  : 														          ? Thread_SearchForDESTripcodesOnCUDADevice
; 596  : 															      : Thread_SearchForSHA1TripcodesOnCUDADevice,
; 597  : 															    &(CUDADeviceSearchThreadInfoArray[index]));
; 598  : 		}
; 599  : 		//*/
; 600  : 	}
; 601  : 	cuda_device_search_thread_info_array_spinlock.unlock();
; 602  : 
; 603  : 	opencl_device_search_thread_info_array_spinlock.lock();
; 604  : 	for (int32_t index = 0; index < numOpenCLDeviceSearchThreads; ++index) {
; 605  : 		struct OpenCLDeviceSearchThreadInfo *info = &openCLDeviceSearchThreadInfoArray[index];
; 606  : 		uint64_t  currentTime = TIME_SINCE_EPOCH_IN_MILLISECONDS;
; 607  : 		uint64_t  deltaTime = currentTime - info->timeLastUpdated;
; 608  : 		//ERROR0(deltaTime > 1 * 60 * 1000, ERROR_SEARCH_THREAD_UNRESPONSIVE, "Search thread became unresponsive.");
; 609  : 		///*
; 610  : 		if (deltaTime > 60 * 1000) {
; 611  : 			// If we restart the search thread while the OpenCL kernel is running, amdocl64.dll may crash.
; 612  : 			ERROR0(!info->runChildProcess, ERROR_SEARCH_THREAD_UNRESPONSIVE, "Search thread became unresponsive.");
; 613  : 
; 614  : 			strcpy(info->status, "[process] Restarting search thread...");
; 615  : 			auto native_handle = opencl_device_search_threads[index]->native_handle();
; 616  : 			opencl_device_search_threads[index]->detach();
; 617  : 			delete opencl_device_search_threads[index];
; 618  : #if 0
; 619  : 			if (info->child_process) {
; 620  : 				boost_process_spinlock.lock();
; 621  : 				boost::process::terminate(*(info->child_process));
; 622  : 				boost_process_spinlock.unlock();
; 623  : 			}
; 624  : #endif
; 625  : 			info->child_process = NULL;
; 626  : #ifdef _WINDOWS_
; 627  : 			TerminateThread(native_handle, 0);
; 628  : #elif defined(_POSIX_THREADS)
; 629  : 			pthread_setcanceltype(PTHREAD_CANCEL_ASYNCHRONOUS, NULL);
; 630  : 			pthread_cancel(native_handle);
; 631  : #endif
; 632  : 			info->currentSpeed = 0;
; 633  : 			info->averageSpeed = 0;
; 634  : 			++info->numRestarts;
; 635  : 
; 636  : 			uint32_t winThreadID;
; 637  : 			opencl_device_search_threads[index] = new std::thread((lenTripcode == 10) 
; 638  : 																	       ? Thread_SearchForDESTripcodesOnOpenCLDevice
; 639  : 													                       : Thread_SearchForSHA1TripcodesOnOpenCLDevice,
; 640  : 																	   &(openCLDeviceSearchThreadInfoArray[index]));
; 641  : 		}
; 642  : 		//*/
; 643  : 	}
; 644  : 	opencl_device_search_thread_info_array_spinlock.unlock();
; 645  : }
; 646  : 
; 647  : void KeepSearchThreadsAlive()
; 648  : {
; 649  : 	cuda_device_search_thread_info_array_spinlock.lock();
; 650  : 	for (int32_t index = 0; index < numCUDADeviceSearchThreads; ++index)
; 651  : 		CUDADeviceSearchThreadInfoArray[index].timeLastUpdated = TIME_SINCE_EPOCH_IN_MILLISECONDS;
; 652  : 	cuda_device_search_thread_info_array_spinlock.unlock();
; 653  : 
; 654  : 	opencl_device_search_thread_info_array_spinlock.lock();
; 655  : 	for (int32_t index = 0; index < numOpenCLDeviceSearchThreads; ++index)
; 656  : 		openCLDeviceSearchThreadInfoArray[index].timeLastUpdated = TIME_SINCE_EPOCH_IN_MILLISECONDS;
; 657  : 	opencl_device_search_thread_info_array_spinlock.unlock();
; 658  : }
; 659  : 
; 660  : void PrintStatus()
; 661  : {
; 662  : 	if (GetErrorState() || GetTerminationState())
; 663  : 		return;
; 664  : 
; 665  : 	current_state_spinlock.lock();
; 666  : 
; 667  : 	char msg[MAX_NUM_LINES_STATUS_MSG][LEN_LINE_BUFFER_FOR_SCREEN];
; 668  : 	int32_t lineCount = 0;
; 669  : 
; 670  : #define NEXT_LINE &(msg[lineCount++][0])
; 671  : 
; 672  : 	sprintf(NEXT_LINE, "%-79s", "");
; 673  : 	sprintf(NEXT_LINE, "%-79s", "STATUS");
; 674  : 	sprintf(NEXT_LINE, "%-79s", "======");
; 675  : 	sprintf(NEXT_LINE, "  Performing a %s search on %s",
; 676  : 			(searchMode == SEARCH_MODE_FORWARD_MATCHING             ) ? "forward-matching"  :
; 677  : 			(searchMode == SEARCH_MODE_BACKWARD_MATCHING            ) ? "backward-matching" :
; 678  : 			(searchMode == SEARCH_MODE_FORWARD_AND_BACKWARD_MATCHING) ? "forward- and backward-matching" :
; 679  : 	                                                                    "flexible",
; 680  : 			(searchDevice == SEARCH_DEVICE_CPU) ? "CPU" :
; 681  : 			(searchDevice == SEARCH_DEVICE_GPU) ? "GPU(s)" :
; 682  : 	                                              "CPU and GPU(s)");
; 683  : 	if (minLenExpandedPattern != maxLenExpandedPattern) {
; 684  : 		sprintf(NEXT_LINE,
; 685  : 				"  for %d pattern%s (%d chunk%s) with %d to %d characters%s",
; 686  : 				numExpandedPatterns,
; 687  : 				(numExpandedPatterns == 1) ? "" : "s",
; 688  : 				numTripcodeChunk,
; 689  : 				(numTripcodeChunk == 1) ? "" : "s",
; 690  : 				minLenExpandedPattern,
; 691  : 				maxLenExpandedPattern,
; 692  : 				(searchDevice == SEARCH_DEVICE_CPU) ? "." : ":");
; 693  : 		
; 694  : 	} else {
; 695  : 		sprintf(NEXT_LINE,
; 696  : 				"  for %d pattern%s (%d chunk%s) with %d characters%s",
; 697  : 				numExpandedPatterns,
; 698  : 				(numExpandedPatterns == 1) ? "" : "s",
; 699  : 				numTripcodeChunk,
; 700  : 				(numTripcodeChunk == 1) ? "" : "s",
; 701  : 				minLenExpandedPattern,
; 702  : 				(searchDevice == SEARCH_DEVICE_CPU) ? "." : ":");
; 703  : 	}
; 704  : 	if (searchDevice != SEARCH_DEVICE_CPU && CUDADeviceSearchThreadInfoArray) {
; 705  : 		cuda_device_search_thread_info_array_spinlock.lock();
; 706  : 		if (numCUDADeviceSearchThreads == 1) {
; 707  : 			sprintf(NEXT_LINE, "      CUDA0:     %s", CUDADeviceSearchThreadInfoArray[0].status);
; 708  : 		} else {
; 709  : 			for (int32_t i = 0; i < numCUDADeviceSearchThreads; ++i)
; 710  : 				sprintf(NEXT_LINE, "      CUDA%d-%d:     %s", CUDADeviceSearchThreadInfoArray[i].CUDADeviceIndex, CUDADeviceSearchThreadInfoArray[i].subindex, CUDADeviceSearchThreadInfoArray[i].status);
; 711  : 		}
; 712  : 		cuda_device_search_thread_info_array_spinlock.unlock();
; 713  : 	}
; 714  : 	if (searchDevice != SEARCH_DEVICE_CPU && openCLDeviceSearchThreadInfoArray) {
; 715  : 		opencl_device_search_thread_info_array_spinlock.lock();
; 716  : 		if (numOpenCLDeviceSearchThreads == 1) {
; 717  : 			sprintf(NEXT_LINE, "      OpenCL0:   %s", openCLDeviceSearchThreadInfoArray[0].status);
; 718  : 		} else {
; 719  : 			for (int32_t i = 0; i < numOpenCLDeviceSearchThreads; ++i) {
; 720  : 				if (openCLDeviceSearchThreadInfoArray[i].subindex < 0) {
; 721  : 					sprintf(NEXT_LINE, "      OpenCL%d:   %s",  openCLDeviceSearchThreadInfoArray[i].index, openCLDeviceSearchThreadInfoArray[i].status);
; 722  : 				} else {
; 723  : 					sprintf(NEXT_LINE, "      OpenCL%d-%d: %s", openCLDeviceSearchThreadInfoArray[i].index, openCLDeviceSearchThreadInfoArray[i].subindex, openCLDeviceSearchThreadInfoArray[i].status);
; 724  : 				}
; 725  : 			}
; 726  : 		}
; 727  : 		opencl_device_search_thread_info_array_spinlock.unlock();
; 728  : 	}
; 729  : #if FALSE
; 730  : 	if (CUDADeviceSearchThreadInfoArray && IsCUDADeviceOptimizationInProgress())
; 731  : 		sprintf(NEXT_LINE, "      [optimization in progress]");
; 732  : #endif
; 733  : 
; 734  : 	double currentSpeed_childProcesses = 0;
; 735  : 	double averageSpeed_childProcesses = 0;
; 736  : 	double totalNumGeneratedTripcodes_childProcesses = 0;
; 737  : 	uint32_t numDiscardedTripcodes_childProcesses = 0;
; 738  : 	// printf("numOpenCLDeviceSearchThreads = %d\n", numOpenCLDeviceSearchThreads);
; 739  : 	if (openCLDeviceSearchThreadInfoArray && openCLRunChildProcesses) {
; 740  : 		opencl_device_search_thread_info_array_spinlock.lock();
; 741  : 		for (int32_t i = 0; i < numOpenCLDeviceSearchThreads; ++i) {
; 742  : 			// printf("deviceNo = %d\n", openCLDeviceSearchThreadInfoArray[i].deviceNo);
; 743  : 			if (!(openCLDeviceSearchThreadInfoArray[i].runChildProcess))
; 744  : 				continue;
; 745  : 			currentSpeed_childProcesses               += openCLDeviceSearchThreadInfoArray[i].currentSpeed;
; 746  : 			averageSpeed_childProcesses               += openCLDeviceSearchThreadInfoArray[i].averageSpeed;
; 747  : 			totalNumGeneratedTripcodes_childProcesses += openCLDeviceSearchThreadInfoArray[i].totalNumGeneratedTripcodes;
; 748  : 			numDiscardedTripcodes_childProcesses      += openCLDeviceSearchThreadInfoArray[i].numDiscardedTripcodes;
; 749  : 		}
; 750  : 		opencl_device_search_thread_info_array_spinlock.unlock();
; 751  : 	}
; 752  : 
; 753  : 	double averageSpeed;
; 754  : 	double averageSpeed_GPU;
; 755  : 	double averageSpeed_CPU;
; 756  : 	double timeForOneMatch;
; 757  : 	double actualMatchingProb;
; 758  : 	double matchingProbDiff;
; 759  : 	double invalidTripcodeRatio = (prevNumValidTripcodes + prevNumDiscardedTripcodes > 0)
; 760  : 			                            ? ((double)(prevNumDiscardedTripcodes) / (prevNumValidTripcodes + prevNumDiscardedTripcodes))
; 761  : 										: 0;
; 762  : 	if (totalTime > 0) {
; 763  : 		uint32_t remainingSeconds = (uint32_t)totalTime;
; 764  : 		uint32_t totalTimeDays    = remainingSeconds / (24 * 60 * 60); remainingSeconds -= totalTimeDays    * 24 * 60 * 60;
; 765  : 		uint32_t totalTimeHours   = remainingSeconds / (     60 * 60); remainingSeconds -= totalTimeHours        * 60 * 60;
; 766  : 		uint32_t totalTimeMinutes = remainingSeconds / (          60); remainingSeconds -= totalTimeMinutes           * 60;
; 767  : 		uint32_t totalTimeSeconds = remainingSeconds;
; 768  : 		
; 769  : 		sprintf(NEXT_LINE, "");
; 770  : 		sprintf(NEXT_LINE, "  %.3lfT tripcodes were generated in %dd %dh %dm %02ds at:",
; 771  : 				(prevTotalNumGeneratedTripcodes + totalNumGeneratedTripcodes_childProcesses) * 0.000000000001,
; 772  : 				totalTimeDays,
; 773  : 				totalTimeHours,
; 774  : 				totalTimeMinutes,
; 775  : 				totalTimeSeconds);
; 776  : 		sprintf(NEXT_LINE, "      %3.2lfM tripcode/s (current)", (currentSpeed_thisProcess + currentSpeed_childProcesses) / 1000000);
; 777  : 		if (searchDevice == SEARCH_DEVICE_GPU_AND_CPU) {
; 778  : 			sprintf(NEXT_LINE, "          GPU: %7.2lfM tripcode/s", (currentSpeed_thisProcess_GPU + currentSpeed_childProcesses) / 1000000);
; 779  : 			sprintf(NEXT_LINE, "          CPU: %7.2lfM tripcode/s", currentSpeed_CPU / 1000000);
; 780  : 		}
; 781  : #ifdef DISPLAY_MAXIMUM_SPEED
; 782  : 		sprintf(NEXT_LINE, "      %3.2lfM tripcode/s (maximum)", maximumSpeed);
; 783  : #endif
; 784  : 		averageSpeed     = prevTotalNumGeneratedTripcodes     / totalTime + averageSpeed_childProcesses;
; 785  : 		averageSpeed_GPU = prevTotalNumGeneratedTripcodes_GPU / totalTime + averageSpeed_childProcesses;
; 786  : 		averageSpeed_CPU = prevTotalNumGeneratedTripcodes_CPU / totalTime;
; 787  : 		sprintf(NEXT_LINE, "      %3.2lfM tripcode/s (average)",  averageSpeed / 1000000);
; 788  : 		if (searchDevice == SEARCH_DEVICE_GPU_AND_CPU) {
; 789  : 			sprintf(NEXT_LINE, "          GPU: %7.2lfM tripcode/s", averageSpeed_GPU / 1000000);
; 790  : 			sprintf(NEXT_LINE, "          CPU: %7.2lfM tripcode/s", averageSpeed_CPU / 1000000);
; 791  : 		}
; 792  : 		
; 793  : 		timeForOneMatch = numAverageTrialsForOneMatch / averageSpeed;
; 794  : 		if (averageSpeed > 0 && !searchForSpecialPatternsOnCPU) {
; 795  : 			if (timeForOneMatch >= 100.0 * 365 * 24 * 60 * 60) {
; 796  : 				sprintf(NEXT_LINE, "  On average, it takes %.1lf centuries to find one match at this speed.", timeForOneMatch / (100.0 * 365 * 24 * 60 * 60));			
; 797  : 			} else if (timeForOneMatch >= 365.0 * 24 * 60 * 60) {
; 798  : 				sprintf(NEXT_LINE, "  On average, it takes %.1lf years to find one match at this speed.", timeForOneMatch / (365.0 * 24 * 60 * 60));			
; 799  : 			} else if (timeForOneMatch >= 30.4 * 24 * 60 * 60) {
; 800  : 				sprintf(NEXT_LINE, "  On average, it takes %.1lf months to find one match at this speed.", timeForOneMatch / (30.4 * 24 * 60 * 60));			
; 801  : 			} else if (timeForOneMatch >= 24 * 60 * 60) {
; 802  : 				sprintf(NEXT_LINE, "  On average, it takes %.1lf days to find one match at this speed.", timeForOneMatch / (24 * 60 * 60));			
; 803  : 			} else if (timeForOneMatch >= 60 * 60) {
; 804  : 				sprintf(NEXT_LINE, "  On average, it takes %.1lf hours to find one match at this speed.", timeForOneMatch / (60 * 60));			
; 805  : 			} else if (timeForOneMatch >= 60) {
; 806  : 				sprintf(NEXT_LINE, "  On average, it takes %.1lf minutes to find one match at this speed.", timeForOneMatch / 60);			
; 807  : 			} else {
; 808  : 				sprintf(NEXT_LINE, "  On average, it takes %.1lf seconds to find one match at this speed.", timeForOneMatch);			
; 809  : 			}
; 810  : 		}
; 811  : 		sprintf(NEXT_LINE, "");
; 812  : 		if (numValidTripcodes <= 0) {
; 813  : 			sprintf(NEXT_LINE, "  No matches were found yet.");
; 814  : 		} else {
; 815  : 			if (prevNumValidTripcodes > 0) {
; 816  : 				sprintf(NEXT_LINE, "  %ld match%s found at %.2lf matches/h and %.2lfG tripcodes/match.",
; 817  : 						prevNumValidTripcodes,
; 818  : 						(prevNumValidTripcodes == 1) ? "" : "es",
; 819  : 						prevNumValidTripcodes / (totalTime / 3600),
; 820  : 						(double)(prevTotalNumGeneratedTripcodes + totalNumGeneratedTripcodes_childProcesses) / prevNumValidTripcodes * 0.000000001);
; 821  : 			}
; 822  : 			actualMatchingProb = (prevNumValidTripcodes + prevNumDiscardedTripcodes + numDiscardedTripcodes_childProcesses) / (prevTotalNumGeneratedTripcodes + totalNumGeneratedTripcodes_childProcesses);
; 823  : 			matchingProbDiff = (actualMatchingProb - matchingProb) / matchingProb;
; 824  : #ifdef DEBUG_DISPLAY_MATCHING_PROBABILITY
; 825  : 			sprintf(NEXT_LINE, "  The theoretical matching probability is %0.20lf%%.", matchingProb);
; 826  : #endif
; 827  : 			if (!searchForSpecialPatternsOnCPU) {
; 828  : 				if (matchingProbDiff > 0.01) {
; 829  : 					sprintf(NEXT_LINE, "  The actual matching probability is %.0f%% higher than expected.", matchingProbDiff * 100);
; 830  : 				} else if (matchingProbDiff < -0.01) {
; 831  : 					sprintf(NEXT_LINE, "  The actual matching probability is %.0f%% lower than expected.",
; 832  : 							-matchingProbDiff * 100);
; 833  : 				} else {
; 834  : 					sprintf(NEXT_LINE, "  The actual matching probability is about the same as expected.");
; 835  : 				}
; 836  : 			}
; 837  : 			if (prevNumValidTripcodes + prevNumDiscardedTripcodes > 0) {
; 838  : 				sprintf(NEXT_LINE, "  %.0f%% of matching tripcodes were invalid.",
; 839  : 						invalidTripcodeRatio * 100);
; 840  : 			}
; 841  : 		}
; 842  : 	}
; 843  : 	
; 844  : 	if (!options.redirection) {
; 845  : 		for (int32_t i = 0; i < lineCount; ++i)
; 846  : 			printf("%-79s\n", &(msg[i][0]));
; 847  : 		reset_cursor_pos(-lineCount);
; 848  : 		prevLineCount = lineCount;
; 849  : 	} else {
; 850  : 		if (totalTime > 0 && !searchForSpecialPatternsOnCPU) {
; 851  : 			printf("[status],%.0lf,%.0lf,%.0lf,%.0lf,%.0lf,%.1lf,%s%d%%,%.0lf,%ld,%d,%.0lf,%.0lf,%u,%.0f%%\n",
; 852  : 			       totalTime,
; 853  : 				   currentSpeed_thisProcess     + currentSpeed_childProcesses,
; 854  : 				   currentSpeed_thisProcess_GPU + currentSpeed_childProcesses,
; 855  : 				   currentSpeed_CPU,
; 856  : 				   averageSpeed,
; 857  : 				   timeForOneMatch,
; 858  : 				   ((int32_t)(matchingProbDiff * 100) > 0) ? "+" : "", // All I want to do here is to avoid "-0%" and "+0%".
; 859  : 				    (int32_t)(matchingProbDiff * 100),
; 860  : 				   prevTotalNumGeneratedTripcodes + totalNumGeneratedTripcodes_childProcesses,
; 861  : 				   prevNumValidTripcodes,
; 862  : 				   FALSE,
; 863  : 				   averageSpeed_GPU,
; 864  : 				   averageSpeed_CPU,
; 865  : 				   prevNumDiscardedTripcodes,
; 866  : 				   invalidTripcodeRatio * 100);
; 867  : 		} else if (totalTime > 0) {
; 868  : 			printf("[status],%.0lf,%.0lf,%.0lf,%.0lf,%.0lf,-,-,%.0lf,%ld,%d,%.0lf,%.0lf,%u,%.0f%%\n",
; 869  : 			       totalTime,
; 870  : 				   currentSpeed_thisProcess     + currentSpeed_childProcesses,
; 871  : 				   currentSpeed_thisProcess_GPU + currentSpeed_childProcesses,
; 872  : 				   currentSpeed_CPU,
; 873  : 				   averageSpeed,
; 874  : 				   prevTotalNumGeneratedTripcodes + totalNumGeneratedTripcodes_childProcesses,
; 875  : 				   prevNumValidTripcodes,
; 876  : 				   FALSE,
; 877  : 				   averageSpeed_GPU,
; 878  : 				   averageSpeed_CPU,
; 879  : 				   prevNumDiscardedTripcodes,
; 880  : 				   invalidTripcodeRatio * 100);
; 881  : 		}
; 882  : 		fflush(stdout);
; 883  : 	}
; 884  : 	
; 885  : 	current_state_spinlock.unlock();
; 886  : #undef NEXT_LINE
; 887  : }
; 888  : 
; 889  : BOOL WINAPI ControlHandler(_In_  DWORD dwCtrlType)
; 890  : {
; 891  : 	switch (dwCtrlType) {
; 892  : 	case CTRL_C_EVENT:
; 893  : 	case CTRL_CLOSE_EVENT:
; 894  : 	case CTRL_SHUTDOWN_EVENT:
; 895  : 	case CTRL_LOGOFF_EVENT:
; 896  : 		SetTerminationState();
; 897  : 		while (TRUE)
; 898  : 			Sleep(1000);
; 899  : 		return TRUE;
; 900  : 	default:
; 901  : 		return FALSE;
; 902  : 	}
; 903  : }
; 904  : 
; 905  : void InitProcess()
; 906  : {
; 907  : 	hide_cursor();
; 908  : 	SetConsoleCtrlHandler(ControlHandler, true);
; 909  : }
; 910  : 
; 911  : void ListCUDADevices()
; 912  : {
; 913  : 	int32_t i;
; 914  : 	cudaDeviceProp CUDADeviceProperties;
; 915  : 	
; 916  : 	cudaGetDeviceCount(&CUDADeviceCount);
; 917  : 
; 918  : 	for (i = 0; i < CUDADeviceCount; ++i) {
; 919  : 		cudaGetDeviceProperties(&CUDADeviceProperties, i);
; 920  : 		printf("NVIDIA %s (CUDA)\n", CUDADeviceProperties.name); 
; 921  : 	}
; 922  : }
; 923  : 
; 924  : void CountOpenCLDevices()
; 925  : {
; 926  :     cl_int        errorCode;
; 927  :     cl_uint       numPlatforms;
; 928  : 	cl_uint       deviceCount;
; 929  : 	cl_device_id *devices = NULL;
; 930  : 
; 931  : 	openCLDeviceCount = 0;
; 932  : 
; 933  : 	// Get a list of platforms
; 934  : 	errorCode = clGetPlatformIDs(0, NULL, &numPlatforms);
; 935  :     if (errorCode != CL_SUCCESS || numPlatforms <= 0)
; 936  : 		return;
; 937  : 	cl_platform_id* platforms = (cl_platform_id*)malloc(sizeof(cl_platform_id) * numPlatforms);
; 938  : 	ERROR0(platforms == NULL, ERROR_NO_MEMORY, GetErrorMessage(ERROR_NO_MEMORY));
; 939  :     errorCode = clGetPlatformIDs(numPlatforms, platforms, NULL);
; 940  :     OPENCL_ERROR(errorCode);
; 941  : 
; 942  : 	int32_t openCLDeviceIDArrayIndex = 0;
; 943  : 	for (int32_t pass = 0; pass <= 1; ++pass) {
; 944  : 		for (int32_t platformIndex = 0; platformIndex < numPlatforms; ++platformIndex) {
; 945  : 			// Skip CUDA devices.
; 946  : 			char platformVendor[LEN_LINE_BUFFER_FOR_SCREEN];
; 947  : 			errorCode = clGetPlatformInfo(platforms[platformIndex], CL_PLATFORM_VENDOR, sizeof(platformVendor), platformVendor, NULL);
; 948  : 			// OPENCL_ERROR(errorCode);
; 949  : 			if (errorCode != CL_SUCCESS)
; 950  : 				continue;
; 951  : 			if (   (strcmp(platformVendor, OPENCL_VENDOR_NVIDIA) == 0 && !options.useOpenCLForCUDADevices)
; 952  : 				||  strcmp(platformVendor, OPENCL_VENDOR_INTEL ) == 0                                     )
; 953  : 				continue;
; 954  : 		
; 955  : 			// Get a list of devices on the platform.
; 956  : 			errorCode = clGetDeviceIDs(platforms[platformIndex], CL_DEVICE_TYPE_ALL, 0, NULL, &deviceCount);
; 957  : 			// OPENCL_ERROR(errorCode);
; 958  : 			// if (errorCode == CL_DEVICE_NOT_FOUND)
; 959  : 			//	continue;
; 960  : 			if (errorCode != CL_SUCCESS)
; 961  : 				continue;
; 962  : 			devices = (cl_device_id*)malloc(sizeof(cl_device_id) * deviceCount);
; 963  : 			ERROR0(devices == NULL, ERROR_NO_MEMORY, GetErrorMessage(ERROR_NO_MEMORY));
; 964  : 			errorCode = clGetDeviceIDs(platforms[platformIndex], CL_DEVICE_TYPE_GPU | CL_DEVICE_TYPE_ACCELERATOR, deviceCount, devices, &deviceCount);
; 965  : 			if (errorCode != CL_DEVICE_NOT_FOUND) {
; 966  : 				OPENCL_ERROR(errorCode);
; 967  : 				for(int32_t deviceIndex = 0; deviceIndex < deviceCount; ++deviceIndex) {
; 968  : 					if (pass == 0) {
; 969  : 						++openCLDeviceCount;
; 970  : 					} else {
; 971  : 						openCLDeviceIDArray[openCLDeviceIDArrayIndex++] = devices[deviceIndex];
; 972  : 					}
; 973  : 				}
; 974  : 			}
; 975  : 			free(devices);
; 976  : 		}
; 977  : 		if (pass == 0) {
; 978  : 			openCLDeviceIDArray = (cl_device_id *)malloc(sizeof(cl_device_id) * openCLDeviceCount);
; 979  : 			ERROR0(openCLDeviceIDArray == NULL, ERROR_NO_MEMORY, GetErrorMessage(ERROR_NO_MEMORY));
; 980  : 		}
; 981  : 	}
; 982  : 
; 983  :     free(platforms);
; 984  : }
; 985  : 
; 986  : void ListOpenCLDevices()
; 987  : {
; 988  :     cl_int  errorCode;
; 989  :     cl_uint numPlatforms;
; 990  : 	cl_uint deviceCount;
; 991  : 	char    deviceVendor[LEN_LINE_BUFFER_FOR_SCREEN];
; 992  : 	char    deviceName  [LEN_LINE_BUFFER_FOR_SCREEN];
; 993  : 	cl_uint numComputeUnits;
; 994  : 
; 995  : 	CountOpenCLDevices();
; 996  : 
; 997  : 	for(int32_t deviceIndex = 0; deviceIndex < openCLDeviceCount; ++deviceIndex) {  
; 998  : 		OPENCL_ERROR(clGetDeviceInfo(openCLDeviceIDArray[deviceIndex], CL_DEVICE_VENDOR,            sizeof(deviceVendor),    &deviceVendor,    NULL));
; 999  : 		OPENCL_ERROR(clGetDeviceInfo(openCLDeviceIDArray[deviceIndex], CL_DEVICE_NAME,              sizeof(deviceName),      &deviceName,      NULL));
; 1000 : 		OPENCL_ERROR(clGetDeviceInfo(openCLDeviceIDArray[deviceIndex], CL_DEVICE_MAX_COMPUTE_UNITS, sizeof(numComputeUnits), &numComputeUnits, NULL));
; 1001 : 		// printf("%d: ", CUDADeviceCount + deviceIndex);
; 1002 : 		if (strcmp(deviceVendor, OPENCL_VENDOR_AMD) == 0) {
; 1003 : 			printf("AMD ");
; 1004 : 		} else if (strcmp(deviceVendor, OPENCL_VENDOR_INTEL) == 0) {
; 1005 : 			// Do not print anything.
; 1006 : 		} else if (strcmp(deviceVendor, OPENCL_VENDOR_NVIDIA) == 0) {
; 1007 : 			printf("NVIDIA ");
; 1008 : 		} else {
; 1009 : 			printf("%s ", deviceVendor);
; 1010 : 		}
; 1011 : 		char *productName = GetProductNameForOpenCLDevice(deviceVendor, deviceName, numComputeUnits);
; 1012 : 		if (productName) {
; 1013 : 			printf("%s", productName);
; 1014 : 		} else {
; 1015 : 			printf("%s", deviceName);
; 1016 : 		}
; 1017 : 		printf(" (OpenCL)\n");
; 1018 : 	}
; 1019 : }
; 1020 : 
; 1021 : void ListGPUsAndExit()
; 1022 : {
; 1023 : 	if (!options.useOpenCLForCUDADevices)
; 1024 : 		ListCUDADevices();
; 1025 : 	ListOpenCLDevices();
; 1026 : 	exit(0);
; 1027 : }
; 1028 : 
; 1029 : void InitSearchDevices(BOOL displayDeviceInformation)
; 1030 : {
; 1031 : 	int32_t i;
; 1032 : 	cudaDeviceProp CUDADeviceProperties;
; 1033 : 	
; 1034 : 	if (options.useOpenCLForCUDADevices) {
; 1035 : 		CUDADeviceCount = 0;
; 1036 : 	} else {
; 1037 : 		cudaGetDeviceCount(&CUDADeviceCount);
; 1038 : 	}
; 1039 : 	CountOpenCLDevices();
; 1040 : 	ERROR0(   options.GPUIndex != GPU_INDEX_ALL
; 1041 : 		   && (options.GPUIndex < 0 || CUDADeviceCount + openCLDeviceCount <= options.GPUIndex),
; 1042 : 			ERROR_INVALID_OPTION,
; 1043 : 			"An invalid device was specified.");
; 1044 : 	if (options.searchDevice == SEARCH_DEVICE_NIL) {
; 1045 : 		searchDevice = (CUDADeviceCount <= 0 && openCLDeviceCount <= 0) ? (SEARCH_DEVICE_CPU) : (SEARCH_DEVICE_GPU);
; 1046 : 	} else {
; 1047 : 		searchDevice = options.searchDevice;
; 1048 : 	}
; 1049 : #ifdef DEBUG_USE_CPU_ONLY
; 1050 : 	searchDevice = SEARCH_DEVICE_CPU;
; 1051 : #endif
; 1052 : 	
; 1053 : #if FALSE
; 1054 : 	if (displayDeviceInformation) {
; 1055 : 		if (searchDevice == SEARCH_DEVICE_CPU) {
; 1056 : 			printf("CPU will be used as a search device.\n\n");
; 1057 : 		} else if (searchDevice == SEARCH_DEVICE_GPU && CUDADeviceCount + openCLDeviceCount <= 1 || options.GPUIndex != GPU_INDEX_ALL) {
; 1058 : 			printf("GPU will be used as a search device.\n\n");
; 1059 : 		} else if (searchDevice == SEARCH_DEVICE_GPU) {
; 1060 : 			printf("GPUs will be used as search devices.\n\n");
; 1061 : 		} else {
; 1062 : 			printf("Both GPU(s) and CPU will be used as search devices.\n\n");
; 1063 : 		}
; 1064 : 	}
; 1065 : #endif
; 1066 : 	ERROR0((searchDevice == SEARCH_DEVICE_GPU || searchDevice == SEARCH_DEVICE_GPU_AND_CPU) && CUDADeviceCount <= 0 && openCLDeviceCount <= 0,
; 1067 : 		   ERROR_INVALID_OPTION, "There is no GPU.");
; 1068 : 		
; 1069 : 	numCUDADeviceSearchThreads   = 0;
; 1070 : 	numOpenCLDeviceSearchThreads = 0;
; 1071 : 	numCPUSearchThreads          = 0;
; 1072 : 
; 1073 : 	if (   (searchDevice == SEARCH_DEVICE_GPU || searchDevice == SEARCH_DEVICE_GPU_AND_CPU)
; 1074 : 		&& CUDADeviceCount > 0
; 1075 : 		&& !options.useOpenCLForCUDADevices
; 1076 : 		&& (options.GPUIndex == GPU_INDEX_ALL || options.GPUIndex < CUDADeviceCount)) {
; 1077 : 
; 1078 : 		if (displayDeviceInformation && CUDADeviceCount > 1 && options.GPUIndex == GPU_INDEX_ALL) {
; 1079 : 			printf("CUDA DEVICES\n");
; 1080 : 			printf("============\n");
; 1081 : 			printf(        "  CUDA Device Count:        %d\n\n", CUDADeviceCount);
; 1082 : 		} else if (displayDeviceInformation) {
; 1083 : 			printf("CUDA DEVICE\n");
; 1084 : 			printf("===========\n");
; 1085 : 		}
; 1086 : 		for (i = ((options.GPUIndex == GPU_INDEX_ALL) ? 0               :  options.GPUIndex     );
; 1087 : 		     i < ((options.GPUIndex == GPU_INDEX_ALL) ? CUDADeviceCount : (options.GPUIndex + 1));
; 1088 : 			 ++i) {
; 1089 : 			if (displayDeviceInformation) {
; 1090 : 				cudaGetDeviceProperties(&CUDADeviceProperties, i);
; 1091 : 				printf(    "  Device No.:               %d\n",      i);
; 1092 : 				printf(    "  Device Name:              %s\n",      CUDADeviceProperties.name);
; 1093 : 				printf(    "  Multiprocessor Count:     %d\n",      CUDADeviceProperties.multiProcessorCount);
; 1094 : 				printf(    "  Clock Rate:               %.0fMHz\n", CUDADeviceProperties.clockRate * 1e-3f);
; 1095 : 				printf(    "  Compute Capability:       %d.%d\n",   CUDADeviceProperties.major, CUDADeviceProperties.minor);
; 1096 : 				printf(    "  Compute Mode:             %s\n",
; 1097 : 					   (CUDADeviceProperties.computeMode == cudaComputeModeDefault         ) ? "cudaComputeModeDefault"          :
; 1098 : 					   (CUDADeviceProperties.computeMode == cudaComputeModeExclusive       ) ? "cudaComputeModeExclusive"        :
; 1099 : 					   (CUDADeviceProperties.computeMode == cudaComputeModeProhibited      ) ? "cudaComputeModeProhibited"       :
; 1100 : 					   (CUDADeviceProperties.computeMode == cudaComputeModeExclusiveProcess) ? "cudaComputeModeExclusiveProcess" :
; 1101 : 					                                                                           "(unknown)"                        );
; 1102 : 				printf("\n");
; 1103 : 			}
; 1104 : 			numCUDADeviceSearchThreads += CUDA_NUM_THREADS_PER_DEVICE;
; 1105 : 		}
; 1106 : 	}
; 1107 : 
; 1108 : 	if (   (searchDevice == SEARCH_DEVICE_GPU || searchDevice == SEARCH_DEVICE_GPU_AND_CPU)
; 1109 : 		&& openCLDeviceCount > 0
; 1110 : 		&& (options.GPUIndex == GPU_INDEX_ALL || CUDADeviceCount <= options.GPUIndex)) {
; 1111 : 
; 1112 : 		if (displayDeviceInformation && openCLDeviceCount > 1 && options.GPUIndex == GPU_INDEX_ALL) {
; 1113 : 			printf("OPENCL DEVICES\n");
; 1114 : 			printf("==============\n");
; 1115 : 			printf(        "  OpenCL Device Count:      %d\n\n", openCLDeviceCount);
; 1116 : 		} else if (displayDeviceInformation) {
; 1117 : 			printf("OPENCL DEVICE\n");
; 1118 : 			printf("=============\n");
; 1119 : 		}
; 1120 : 		openCLRunChildProcesses =    (   options.openCLRunChildProcesses
; 1121 : 		                              && (openCLDeviceCount > 1)
; 1122 : 			                          && (options.GPUIndex == GPU_INDEX_ALL))
; 1123 : 								  || options.openCLNumProcesses > 1;
; 1124 : 
; 1125 : 		// printf("openCLRunChildProcesses = %d\n", openCLRunChildProcesses);
; 1126 : 		for (i = ((options.GPUIndex == GPU_INDEX_ALL) ? CUDADeviceCount                     : (options.GPUIndex    ));
; 1127 : 		     i < ((options.GPUIndex == GPU_INDEX_ALL) ? CUDADeviceCount + openCLDeviceCount : (options.GPUIndex + 1));
; 1128 : 			 ++i) {
; 1129 : 			int32_t openCLDeviceIndex = i - CUDADeviceCount;
; 1130 : 			char deviceVendor [LEN_LINE_BUFFER_FOR_SCREEN];
; 1131 : 			char deviceName   [LEN_LINE_BUFFER_FOR_SCREEN];
; 1132 : 			char deviceVersion[LEN_LINE_BUFFER_FOR_SCREEN];
; 1133 : 			char driverVersion[LEN_LINE_BUFFER_FOR_SCREEN];
; 1134 : 			cl_ulong globalMemorySize;
; 1135 : 			cl_uint  clockFrequency;
; 1136 : 			cl_uint  numComputeUnits;
; 1137 : 			size_t maxWorkGroupSize;
; 1138 : 			OPENCL_ERROR(clGetDeviceInfo(openCLDeviceIDArray[openCLDeviceIndex], CL_DEVICE_VENDOR,              sizeof(deviceVendor),     &deviceVendor,     NULL));
; 1139 : 			OPENCL_ERROR(clGetDeviceInfo(openCLDeviceIDArray[openCLDeviceIndex], CL_DEVICE_NAME,                sizeof(deviceName),       &deviceName,       NULL));
; 1140 : 			OPENCL_ERROR(clGetDeviceInfo(openCLDeviceIDArray[openCLDeviceIndex], CL_DEVICE_VERSION,             sizeof(deviceVersion),    &deviceVersion,    NULL));
; 1141 : 			OPENCL_ERROR(clGetDeviceInfo(openCLDeviceIDArray[openCLDeviceIndex], CL_DRIVER_VERSION,             sizeof(driverVersion),    &driverVersion,    NULL));
; 1142 : 			OPENCL_ERROR(clGetDeviceInfo(openCLDeviceIDArray[openCLDeviceIndex], CL_DEVICE_GLOBAL_MEM_SIZE,     sizeof(globalMemorySize), &globalMemorySize, NULL));
; 1143 : 			OPENCL_ERROR(clGetDeviceInfo(openCLDeviceIDArray[openCLDeviceIndex], CL_DEVICE_MAX_CLOCK_FREQUENCY, sizeof(clockFrequency),   &clockFrequency,   NULL));
; 1144 : 			OPENCL_ERROR(clGetDeviceInfo(openCLDeviceIDArray[openCLDeviceIndex], CL_DEVICE_MAX_COMPUTE_UNITS,   sizeof(numComputeUnits),  &numComputeUnits,  NULL));
; 1145 : 			OPENCL_ERROR(clGetDeviceInfo(openCLDeviceIDArray[openCLDeviceIndex], CL_DEVICE_MAX_WORK_GROUP_SIZE, sizeof(maxWorkGroupSize), &maxWorkGroupSize, NULL));
; 1146 : 			char *productName = GetProductNameForOpenCLDevice(deviceVendor, deviceName, numComputeUnits);
; 1147 : 			if (displayDeviceInformation) {
; 1148 : 				printf(    "  Vendor:                   %s\n",        deviceVendor);
; 1149 : 				if (productName) {
; 1150 : 					printf(    "  Name:                     %s (%s)\n", deviceName, productName);
; 1151 : 				} else {
; 1152 : 					printf(    "  Name:                     %s\n",      deviceName);
; 1153 : 				}
; 1154 : 				printf(    "  Number of Compute Units:  %d\n",        (int32_t)numComputeUnits);
; 1155 : 				printf(    "  Clock Frequency:          %dMHz\n",     (int32_t)clockFrequency);
; 1156 : 				printf(    "  Global Memory Size:       %dM bytes\n", (int32_t)(globalMemorySize / 1024 / 1024));
; 1157 : 				printf(    "  Max. Work Group Size:     %d\n",        (int32_t)maxWorkGroupSize);
; 1158 : 				printf(    "  Version:                  %s\n",        deviceVersion);
; 1159 : 				printf(    "  Driver Version:           %s\n",        driverVersion);
; 1160 : 				printf("\n");
; 1161 : 			}
; 1162 : 			if (openCLRunChildProcesses) {
; 1163 : 				numOpenCLDeviceSearchThreads += options.openCLNumProcesses;
; 1164 : 			} else {
; 1165 : 				numOpenCLDeviceSearchThreads += options.openCLNumThreads;
; 1166 : 			}
; 1167 : 		}
; 1168 : 	}
; 1169 : 
; 1170 : 	if (searchDevice == SEARCH_DEVICE_CPU || searchDevice == SEARCH_DEVICE_GPU_AND_CPU) {
; 1171 : 		SYSTEM_INFO sysInfo;
; 1172 : 		GetSystemInfo(&sysInfo);
; 1173 : #ifdef DEBUG_ONE_CPU_SEARCH_THREAD
; 1174 : 		numCPUSearchThreads = 1;
; 1175 : #else
; 1176 : 		if (options.numCPUSearchThreads == NUM_CPU_SEARCH_THREADS_NIL) { 
; 1177 : 			numCPUSearchThreads = sysInfo.dwNumberOfProcessors;
; 1178 : 			if (searchDevice == SEARCH_DEVICE_GPU_AND_CPU)
; 1179 : 				numCPUSearchThreads = (numCPUSearchThreads > numCUDADeviceSearchThreads + numOpenCLDeviceSearchThreads)
; 1180 : 										  ? (numCPUSearchThreads - numCUDADeviceSearchThreads - numOpenCLDeviceSearchThreads)
; 1181 : 										  : 0;
; 1182 : 		} else {
; 1183 : 			numCPUSearchThreads = (options.numCPUSearchThreads < sysInfo.dwNumberOfProcessors) ? options.numCPUSearchThreads : sysInfo.dwNumberOfProcessors;
; 1184 : 		}
; 1185 : #endif
; 1186 : 		if (searchDevice == SEARCH_DEVICE_GPU_AND_CPU && numCPUSearchThreads <= 0) {
; 1187 : 			searchDevice = SEARCH_DEVICE_GPU;
; 1188 : 		} else 	if (displayDeviceInformation) {
; 1189 : 			int32_t results[4];
; 1190 : 			__cpuid(results, 1);
; 1191 : 
; 1192 : 			printf("CPU\n");
; 1193 : 			printf("===\n");
; 1194 : 			if (IsCPUBasedOnNehalemMicroarchitecture()) {
; 1195 : 				printf("  Processor Info:           0x%06x (Nehalem)\n", results[0]);
; 1196 : 			} else {
; 1197 : 				printf("  Processor Info:           0x%06x\n", results[0]);
; 1198 : 			}
; 1199 : 			printf("  Number of Logical Cores:  %d\n", sysInfo.dwNumberOfProcessors);
; 1200 : 			printf("  Number of Search Threads: %d\n", numCPUSearchThreads);
; 1201 : 			printf("\n");
; 1202 : 		}
; 1203 : 	}
; 1204 : }
; 1205 : 
; 1206 : void ObtainOptions(int32_t argCount, char **arguments)
; 1207 : {
; 1208 : 	int32_t i;
; 1209 : 	
; 1210 : 	// Get the application path and directory.
; 1211 : 	// strcpy(applicationPath,      arguments[0]);
; 1212 : 	_fullpath(applicationPath, arguments[0], sizeof(applicationPath));
; 1213 : 	strcpy(applicationDirectory, applicationPath);
; 1214 : 	for (i = strlen(applicationPath) - 1; i > 0; --i) {
; 1215 : 		if (applicationDirectory[i] == '\\')
; 1216 : 			break;
; 1217 : 	}
; 1218 : 	if (i < 0)
; 1219 : 		i = 0;
; 1220 : 	applicationDirectory[i] = '\0';
; 1221 : #if FALSE
; 1222 : 	printf("arguments[0]         = \'%s\'\n", arguments[0]);
; 1223 : 	printf("applicationPath      = \'%s\'\n", applicationPath);
; 1224 : 	printf("applicationDirectory = \'%s\'\n", applicationDirectory);
; 1225 : #endif
; 1226 : 
; 1227 : 	// Set default values if necessary.	
; 1228 : 	strncpy(tripcodeFilePath, DEFAULT_NAME_TRIPCODE_FILE, sizeof(tripcodeFilePath));
; 1229 : 
; 1230 : 	for (int32_t indexArg = 1; indexArg < argCount; ++indexArg) {
; 1231 : 		if (strcmp(arguments[indexArg], "-o") == 0 && indexArg + 1 < argCount) {
; 1232 : 			++indexArg;
; 1233 : 			ERROR1(strlen(arguments[indexArg]) + 1 > sizeof(tripcodeFilePath),
; 1234 : 			       ERROR_TRIPCODE_FILE,
; 1235 : 			       "The path of the tripcode file `%s' is too long.",
; 1236 : 			       arguments[indexArg]);
; 1237 : 			strcpy(tripcodeFilePath, arguments[indexArg]);
; 1238 : 
; 1239 : 		} else if (strcmp(arguments[indexArg], "-f") == 0 && indexArg + 1 < argCount) {
; 1240 : 			++indexArg;
; 1241 : 			ERROR1(strlen(arguments[indexArg]) > MAX_LEN_FILE_PATH,
; 1242 : 			       ERROR_PATTERN_FILE,
; 1243 : 			       "The path of the pattern file `%s' is too long.",
; 1244 : 			       arguments[indexArg]);
; 1245 : 			ERROR0(numPatternFiles >= MAX_NUM_PATTERN_FILES, ERROR_PATTERN_FILE, "Too many pattern files were specified.");
; 1246 : 			strcpy(patternFilePathArray[numPatternFiles++], arguments[indexArg]);
; 1247 : 
; 1248 : 		} else if (strcmp(arguments[indexArg], "-d") == 0 && indexArg + 1 < argCount) {
; 1249 : 			options.GPUIndex = atoi(arguments[++indexArg]);
; 1250 : 
; 1251 : 		} else if (strcmp(arguments[indexArg], "-x") == 0 && indexArg + 1 < argCount) {
; 1252 : 			options.CUDANumBlocksPerSM = atoi(arguments[++indexArg]);
; 1253 : 			ERROR1(options.CUDANumBlocksPerSM < CUDA_MIN_NUM_BLOCKS_PER_SM,
; 1254 : 			       ERROR_INVALID_OPTION,
; 1255 : 				   "The number of blocks per SM must be at least %d.", CUDA_MIN_NUM_BLOCKS_PER_SM);
; 1256 : 			ERROR1(options.CUDANumBlocksPerSM > CUDA_MAX_NUM_BLOCKS_PER_SM,
; 1257 : 			       ERROR_INVALID_OPTION,
; 1258 : 				   "The number of blocks per SM cannot exceed %d.",    CUDA_MAX_NUM_BLOCKS_PER_SM);
; 1259 : 
; 1260 : 		} else if (strcmp(arguments[indexArg], "-y") == 0 && indexArg + 1 < argCount) {
; 1261 : 			options.openCLNumWorkItemsPerCU = atoi(arguments[++indexArg]);
; 1262 : 			ERROR1(options.openCLNumWorkItemsPerCU < OPENCL_MIN_NUM_WORK_ITEMS_PER_CU,
; 1263 : 			       ERROR_INVALID_OPTION,
; 1264 : 				   "The number of work items per CU must be at least %d.", OPENCL_MIN_NUM_WORK_ITEMS_PER_CU);
; 1265 : 			ERROR1(options.openCLNumWorkItemsPerCU > OPENCL_MAX_NUM_WORK_ITEMS_PER_CU,
; 1266 : 			       ERROR_INVALID_OPTION,
; 1267 : 				   "The number of work items per CU cannot exceed %d.", OPENCL_MAX_NUM_WORK_ITEMS_PER_CU);
; 1268 : 
; 1269 : 		} else if (strcmp(arguments[indexArg], "-z") == 0 && indexArg + 1 < argCount) {
; 1270 : 			options.openCLNumWorkItemsPerWG = atoi(arguments[++indexArg]);
; 1271 : 			ERROR1(options.openCLNumWorkItemsPerWG < OPENCL_MIN_NUM_WORK_ITEMS_PER_WG,
; 1272 : 			       ERROR_INVALID_OPTION,
; 1273 : 				   "The number of work items per WG must be at least %d.", OPENCL_MIN_NUM_WORK_ITEMS_PER_WG);
; 1274 : 			ERROR1(options.openCLNumWorkItemsPerWG > OPENCL_MAX_NUM_WORK_ITEMS_PER_WG,
; 1275 : 			       ERROR_INVALID_OPTION,
; 1276 : 				   "The number of work items per WG cannot exceed %d.",    OPENCL_MAX_NUM_WORK_ITEMS_PER_WG);
; 1277 : 			ERROR0(options.openCLNumWorkItemsPerWG % 8 != 0,
; 1278 : 			       ERROR_INVALID_OPTION,
; 1279 : 				   "The number of work items per WG must be a multiple of 8.");
; 1280 : 
; 1281 : 		} else if (strcmp(arguments[indexArg], "-a") == 0 && indexArg + 1 < argCount) {
; 1282 : 			options.openCLNumThreads = atoi(arguments[++indexArg]);
; 1283 : 			ERROR1(options.openCLNumThreads < OPENCL_MIN_NUM_THREADS_PER_AMD_GPU,
; 1284 : 			       ERROR_INVALID_OPTION,
; 1285 : 				   "The number of threads per AMD GPU must be at least %d.", OPENCL_MIN_NUM_THREADS_PER_AMD_GPU);
; 1286 : 			ERROR1(options.openCLNumThreads > OPENCL_MAX_NUM_THREADS_PER_AMD_GPU,
; 1287 : 			       ERROR_INVALID_OPTION,
; 1288 : 				   "The number of threads per AMD GPU cannot exceed %d.",    OPENCL_MAX_NUM_THREADS_PER_AMD_GPU);
; 1289 : 
; 1290 : 
; 1291 : 		} else if (strcmp(arguments[indexArg], "-b") == 0 && indexArg + 1 < argCount) {
; 1292 : 			options.openCLNumProcesses = atoi(arguments[++indexArg]);
; 1293 : 			ERROR1(options.openCLNumProcesses < OPENCL_MIN_NUM_PROCESSES_PER_AMD_GPU,
; 1294 : 			       ERROR_INVALID_OPTION,
; 1295 : 				   "The number of processes per AMD GPU must be at least %d.", OPENCL_MIN_NUM_PROCESSES_PER_AMD_GPU);
; 1296 : 			ERROR1(options.openCLNumProcesses > OPENCL_MAX_NUM_PROCESSES_PER_AMD_GPU,
; 1297 : 			       ERROR_INVALID_OPTION,
; 1298 : 				   "The number of processes per AMD GPU cannot exceed %d.",    OPENCL_MAX_NUM_PROCESSES_PER_AMD_GPU);
; 1299 : 
; 1300 : 		} else if (strcmp(arguments[indexArg], "-l") == 0 && indexArg + 1 < argCount) {
; 1301 : 			lenTripcode    = atoi(arguments[++indexArg]);
; 1302 : 			lenTripcodeKey = lenTripcode;
; 1303 : 			ERROR0(lenTripcode != 10 && lenTripcode != 12,
; 1304 : 			       ERROR_INVALID_OPTION,
; 1305 : 			       "The length of tripcodes must be either 10 or 12.");
; 1306 : 
; 1307 : 		} else if (strcmp(arguments[indexArg], "-b") == 0) {
; 1308 : 			options.beepWhenNewTripcodeIsFound = TRUE;
; 1309 : 
; 1310 : 		} else if (strcmp(arguments[indexArg], "-i") == 0) {
; 1311 : 			options.outputInvalidTripcode = TRUE;
; 1312 : 
; 1313 : 		} else if (strcmp(arguments[indexArg], "-w") == 0) {
; 1314 : 			options.warnSpeedDrop= TRUE;
; 1315 : 
; 1316 : 		} else if (strcmp(arguments[indexArg], "-n") == 0) {
; 1317 : 			options.testNewCode = TRUE;
; 1318 : 
; 1319 : 		} else if (strcmp(arguments[indexArg], "-c") == 0) {
; 1320 : 			options.searchDevice = (options.searchDevice == SEARCH_DEVICE_NIL ) ? (SEARCH_DEVICE_CPU)          :
; 1321 : 			                       (options.searchDevice == SEARCH_DEVICE_GPU) ? (SEARCH_DEVICE_GPU_AND_CPU) :
; 1322 : 			                                                                      (options.searchDevice);
; 1323 : 
; 1324 : 		} else if (strcmp(arguments[indexArg], "-g") == 0) {
; 1325 : 			options.searchDevice = (options.searchDevice == SEARCH_DEVICE_NIL)  ? (SEARCH_DEVICE_GPU)         :
; 1326 : 			                       (options.searchDevice == SEARCH_DEVICE_CPU)  ? (SEARCH_DEVICE_GPU_AND_CPU) :
; 1327 : 			                                                                      (options.searchDevice);
; 1328 : 
; 1329 : 		} else if (strcmp(arguments[indexArg], "-t") == 0 && indexArg + 1 < argCount) {
; 1330 : 			options.numCPUSearchThreads = atoi(arguments[++indexArg]);
; 1331 : 			ERROR0(options.numCPUSearchThreads <= 0,
; 1332 : 			       ERROR_INVALID_OPTION,
; 1333 : 			       "The number of CPU search threads must be at least 1.");
; 1334 : 
; 1335 : 		} else if (strcmp(arguments[indexArg], "--output-for-redirection") == 0) {
; 1336 : 			options.redirection = TRUE;
; 1337 : 
; 1338 : 		} else if (strcmp(arguments[indexArg], "-e") == 0 && indexArg + 1 < argCount) {
; 1339 : 			++indexArg;
; 1340 : 			strcpy(nameMutexForPausing, arguments[indexArg]);
; 1341 : 			int32_t len = MultiByteToWideChar(CP_ACP, 0, arguments[indexArg], -1, nameMutexForPausingWC, MAX_LEN_INPUT_LINE);
; 1342 : 			if (len < 0) {
; 1343 : 				len = 0;
; 1344 : 			} else if (len <= MAX_LEN_INPUT_LINE) {
; 1345 : 				nameMutexForPausingWC[len] = 0;
; 1346 : 			}
; 1347 : 			nameMutexForPausingWC[MAX_LEN_INPUT_LINE] = 0;
; 1348 : 
; 1349 : 		} else if (strcmp(arguments[indexArg], "-E") == 0 && indexArg + 1 < argCount) {
; 1350 : 			++indexArg;
; 1351 : 			strcpy(nameEventForTerminating, arguments[indexArg]);
; 1352 : 			int32_t len = MultiByteToWideChar(CP_ACP, 0, arguments[indexArg], -1, nameEventForTerminatingWC, MAX_LEN_INPUT_LINE);
; 1353 : 			if (len < 0) {
; 1354 : 				len = 0;
; 1355 : 			} else if (len <= MAX_LEN_INPUT_LINE) {
; 1356 : 				nameEventForTerminatingWC[len] = 0;
; 1357 : 			}
; 1358 : 			nameEventForTerminatingWC[MAX_LEN_INPUT_LINE] = 0;
; 1359 : 
; 1360 : 		} else if (strcmp(arguments[indexArg], "--use-one-byte-characters-for-keys") == 0) {
; 1361 : 			options.useOneByteCharactersForKeys = TRUE;
; 1362 : 
; 1363 : 		} else if (strcmp(arguments[indexArg], "--search-for-hiseki-on-cpu") == 0) {
; 1364 : 			options.searchForHisekiOnCPU = TRUE;
; 1365 : 
; 1366 : 		} else if (strcmp(arguments[indexArg], "--search-for-kakuhi-on-cpu") == 0) {
; 1367 : 			options.searchForKakuhiOnCPU = TRUE;
; 1368 : 
; 1369 : 		} else if (strcmp(arguments[indexArg], "--search-for-kaibun-on-cpu") == 0) {
; 1370 : 			options.searchForKaibunOnCPU = TRUE;
; 1371 : 
; 1372 : 		} else if (strcmp(arguments[indexArg], "--search-for-kagami-on-cpu") == 0) {
; 1373 : 			options.searchForKagamiOnCPU = TRUE;
; 1374 : 
; 1375 : 		} else if (strcmp(arguments[indexArg], "--search-for-yamabiko-on-cpu") == 0) {
; 1376 : 			options.searchForYamabikoOnCPU = TRUE;
; 1377 : 
; 1378 : 		} else if (strcmp(arguments[indexArg], "--search-for-souren-on-cpu") == 0) {
; 1379 : 			options.searchForSourenOnCPU = TRUE;
; 1380 : 			
; 1381 : 		} else if (strcmp(arguments[indexArg], "--use-opencl-for-cuda-devices") == 0) {
; 1382 : 			options.useOpenCLForCUDADevices = TRUE;
; 1383 : 
; 1384 : 		} else if (strcmp(arguments[indexArg], "--disable-avx") == 0) {
; 1385 : 			options.isAVXEnabled = FALSE;
; 1386 : 
; 1387 : 		} else if (strcmp(arguments[indexArg], "--disable-avx2") == 0) {
; 1388 : 			options.isAVX2Enabled = FALSE;
; 1389 : 
; 1390 : 		} else if (strcmp(arguments[indexArg], "--use-one-byte-characters-for-keys") == 0) {
; 1391 : 			options.useOnlyASCIICharactersForKeys = FALSE;
; 1392 : 			options.useOneByteCharactersForKeys = TRUE;
; 1393 : 
; 1394 : 		} else if (strcmp(arguments[indexArg], "--use-ascii-characters-for-keys") == 0) {
; 1395 : 			options.useOnlyASCIICharactersForKeys = TRUE;
; 1396 : 			options.useOneByteCharactersForKeys = TRUE;
; 1397 : 
; 1398 : 		} else if (strcmp(arguments[indexArg], "--use-one-and-two-byte-characters-for-keys") == 0) {
; 1399 : 			options.useOneByteCharactersForKeys = FALSE;
; 1400 : 			options.useOnlyASCIICharactersForKeys = FALSE;
; 1401 : 
; 1402 : 		} else if (strcmp(arguments[indexArg], "--maximize-key-space") == 0) {
; 1403 : 			options.useOneByteCharactersForKeys = FALSE;
; 1404 : 			options.useOnlyASCIICharactersForKeys = FALSE;
; 1405 : 			options.maximizeKeySpace = TRUE;
; 1406 : 
; 1407 : 		} else if (strcmp(arguments[indexArg], "--disable-tripcode-checks") == 0) {
; 1408 : 			options.checkTripcodes = FALSE;
; 1409 : 
; 1410 : 		} else if (strcmp(arguments[indexArg], "--disable-gcn-assembler") == 0) {
; 1411 : 			options.enableGCNAssembler = FALSE;
; 1412 : 
; 1413 : 		} else if (   strcmp(arguments[indexArg], "--display-device-information") == 0
; 1414 : 			       || strcmp(arguments[indexArg], "--list-expanded-patterns"    ) == 0
; 1415 : 				   || strcmp(arguments[indexArg], "--gpu-list"                  ) == 0) {
; 1416 : 			// Ignore the option.
; 1417 : 
; 1418 : 		} else {
; 1419 : 			ERROR0(TRUE, ERROR_INVALID_OPTION, "An invalid option was specified.");
; 1420 : 		}
; 1421 : 	}
; 1422 : 
; 1423 : 	if (numPatternFiles <= 0) {
; 1424 : 		strcpy(patternFilePathArray[0], DEFAULT_NAME_PATTERN_FILE);
; 1425 : 		numPatternFiles = 1;
; 1426 : 	}
; 1427 : }
; 1428 : 
; 1429 : void ProcessValidTripcodePair(unsigned char *tripcode, unsigned char *key)
; 1430 : {
; 1431 : 	ASSERT(lenTripcode    == 10 || lenTripcode    == 12);
; 1432 : 	ASSERT(lenTripcodeKey == 10 || lenTripcodeKey == 12);
; 1433 : 	
; 1434 : 	process_tripcode_pair_spinlock.lock();
; 1435 : 	if (!options.redirection) {
; 1436 : #ifdef ENGLISH_VERSION
; 1437 : 		fprintf(tripcodeFile, "!");
; 1438 : #else
; 1439 : 		fprintf(tripcodeFile, "%c%c", 0x81, 0x9f);
; 1440 : #endif
; 1441 : 		for (int32_t i = 0; i < lenTripcode; ++i)
; 1442 : 			fprintf(tripcodeFile, "%c", tripcode[i]);
; 1443 : 		fprintf(tripcodeFile, " #");
; 1444 : 		for (int32_t i = 0; i < lenTripcodeKey; ++i)
; 1445 : 			fprintf(tripcodeFile, "%c", key[i]);
; 1446 : 		fprintf(tripcodeFile, " (");
; 1447 : 		for (int32_t i = 0; i < lenTripcodeKey; ++i) {
; 1448 : 			fprintf(tripcodeFile, "%02X", key[i]);
; 1449 : 			if (i + 1 < lenTripcodeKey)
; 1450 : 				fprintf(tripcodeFile, " ");
; 1451 : 		}
; 1452 : 		fprintf(tripcodeFile, ")\n");
; 1453 : 		fflush(tripcodeFile);
; 1454 : 	}  
; 1455 : 
; 1456 : 	if (!options.redirection && !GetTerminationState() && !GetErrorState()) {
; 1457 : #ifdef ENGLISH_VERSION
; 1458 : 		printf("  !");
; 1459 : #else
; 1460 : 		printf("  %c%c", 0x81, 0x9f);
; 1461 : #endif
; 1462 : 		for (int32_t i = 0; i < lenTripcode; ++i)
; 1463 : 			printf("%c", tripcode[i]);
; 1464 : 		printf(" #");
; 1465 : 		for (int32_t i = 0; i < lenTripcodeKey; ++i)
; 1466 : 			printf("%c", key[i]);
; 1467 : 		printf(" (");
; 1468 : 		for (int32_t i = 0; i < lenTripcodeKey; ++i) {
; 1469 : 			printf("%02X", key[i]);
; 1470 : 			if (i + 1 < lenTripcodeKey)
; 1471 : 				printf(" ");
; 1472 : 		}
; 1473 : 		printf(")");
; 1474 : 		for (int32_t i = 4 + lenTripcode + 2 + lenTripcodeKey + 2 + lenTripcodeKey * 3;
; 1475 : 			i < SCREEN_WIDTH - 1;
; 1476 : 			++i) {
; 1477 : 			printf(" ");
; 1478 : 		}
; 1479 : 		printf("\n");
; 1480 : 	} else if (options.redirection) {
; 1481 : 		printf("[tripcode],%c%c", 0x81, 0x9f);
; 1482 : 		for (int32_t i = 0; i < lenTripcode; ++i)
; 1483 : 			printf("%c", tripcode[i]);
; 1484 : 		printf(",#");
; 1485 : 		for (int32_t i = 0; i < lenTripcodeKey; ++i)
; 1486 : 			printf("%c", key[i]);
; 1487 : 		printf(",(");
; 1488 : 		for (int32_t i = 0; i < lenTripcodeKey; ++i) {
; 1489 : 			printf("%02X", key[i]);
; 1490 : 			if (i + 1 < lenTripcodeKey)
; 1491 : 				printf(" ");
; 1492 : 		}
; 1493 : 		printf(")\n");
; 1494 : 	}
; 1495 : 	fflush(stdout);
; 1496 : 	process_tripcode_pair_spinlock.unlock();
; 1497 : 
; 1498 : 	current_state_spinlock.lock();
; 1499 : 	++numValidTripcodes;
; 1500 : 	current_state_spinlock.unlock();
; 1501 : 
; 1502 : 	if (!options.redirection)
; 1503 : 		PrintStatus();
; 1504 : 	if (!options.redirection && options.beepWhenNewTripcodeIsFound)
; 1505 : 		printf("\a");
; 1506 : }
; 1507 : 
; 1508 : void ProcessInvalidTripcodePair(unsigned char *tripcode, unsigned char *key)
; 1509 : {
; 1510 : 	process_tripcode_pair_spinlock.lock();
; 1511 : 	if (options.outputInvalidTripcode && !options.redirection && !GetTerminationState() && !GetErrorState()) {
; 1512 : #ifdef ENGLISH_VERSION
; 1513 : 		fprintf(tripcodeFile, "!");
; 1514 : #else
; 1515 : 		fprintf(tripcodeFile, "%c%c", 0x81, 0x9f);
; 1516 : #endif
; 1517 : 		for (int32_t i = 0; i < lenTripcode; ++i)
; 1518 : 			fprintf(tripcodeFile, "%c", tripcode[i]);
; 1519 : 		fprintf(tripcodeFile, "  ");
; 1520 : 		for (int32_t i = 0; i < lenTripcodeKey; ++i)
; 1521 : 			fprintf(tripcodeFile, " ");
; 1522 : 		fprintf(tripcodeFile, " (");
; 1523 : 		for (int32_t i = 0; i < lenTripcodeKey; ++i) {
; 1524 : 			fprintf(tripcodeFile, "%02X", key[i]);
; 1525 : 			if (i + 1 < lenTripcodeKey)
; 1526 : 				fprintf(tripcodeFile, " ");
; 1527 : 		}
; 1528 : 		fprintf(tripcodeFile, ")\n");
; 1529 : 		fflush(tripcodeFile);
; 1530 : 
; 1531 : #ifdef ENGLISH_VERSION
; 1532 : 		printf("  !");
; 1533 : #else
; 1534 : 		printf("  %c%c", 0x81, 0x9f);
; 1535 : #endif
; 1536 : 		for (int32_t i = 0; i < lenTripcode; ++i)
; 1537 : 			printf("%c", tripcode[i]);
; 1538 : 		printf("  ");
; 1539 : 		for (int32_t i = 0; i < lenTripcodeKey; ++i)
; 1540 : 			printf(" ");
; 1541 : 		printf(" (");
; 1542 : 		for (int32_t i = 0; i < lenTripcodeKey; ++i) {
; 1543 : 			printf("%02X", key[i]);
; 1544 : 			if (i + 1 < lenTripcodeKey)
; 1545 : 				printf(" ");
; 1546 : 		}
; 1547 : 		printf(")");
; 1548 : 		for (int32_t i = 4 + lenTripcode + 2 + lenTripcodeKey + 2 + lenTripcodeKey * 3;
; 1549 : 			i < SCREEN_WIDTH - 1;
; 1550 : 			++i) {
; 1551 : 			printf(" ");
; 1552 : 		}
; 1553 : 		printf("\n");
; 1554 : 		fflush(stdout);
; 1555 : 	}
; 1556 : 	process_tripcode_pair_spinlock.unlock();
; 1557 : 
; 1558 : 	current_state_spinlock.lock();
; 1559 : 	++numDiscardedTripcodes;
; 1560 : 	current_state_spinlock.unlock();
; 1561 : 
; 1562 : 	if (options.outputInvalidTripcode && !options.redirection && !GetTerminationState() && !GetErrorState())
; 1563 : 		PrintStatus();
; 1564 : }
; 1565 : 
; 1566 : void OpenTripcodeFile()
; 1567 : {
; 1568 : 	tripcodeFile = fopen(tripcodeFilePath, "a");
; 1569 : 	ERROR0(tripcodeFilePath == NULL, ERROR_TRIPCODE_FILE, "The output file cannot be opened.");
; 1570 : }
; 1571 : 
; 1572 : void AddToNumGeneratedTripcodesByCPU(uint32_t num)
; 1573 : {
; 1574 : 	num_generated_tripcodes_spinlock.lock();
; 1575 : 	numGeneratedTripcodes_CPU += num;
; 1576 : 	if (numGeneratedTripcodes_CPU >= 1000000) {
; 1577 : 		numGeneratedTripcodesByCPUInMillions += numGeneratedTripcodes_CPU / 1000000;
; 1578 : 		numGeneratedTripcodes_CPU           %= 1000000;
; 1579 : 	}
; 1580 : 	num_generated_tripcodes_spinlock.unlock();
; 1581 : }
; 1582 : 
; 1583 : void AddToNumGeneratedTripcodesByGPU(uint32_t num)
; 1584 : {
; 1585 : 	num_generated_tripcodes_spinlock.lock();
; 1586 : 	numGeneratedTripcodes_GPU += num;
; 1587 : 	if (numGeneratedTripcodes_GPU >= 1000000) {
; 1588 : 		numGeneratedTripcodesByGPUInMillions += numGeneratedTripcodes_GPU / 1000000;
; 1589 : 		numGeneratedTripcodes_GPU           %= 1000000;
; 1590 : 	}
; 1591 : 	num_generated_tripcodes_spinlock.unlock();
; 1592 : }
; 1593 : 
; 1594 : double GetNumGeneratedTripcodesByCPU()
; 1595 : {
; 1596 : 	num_generated_tripcodes_spinlock.lock();
; 1597 : 
; 1598 : 	double ret =   (double)numGeneratedTripcodesByCPUInMillions * 1000000
; 1599 : 	             +         numGeneratedTripcodes_CPU;
; 1600 : 	numGeneratedTripcodesByCPUInMillions = 0;
; 1601 : 	numGeneratedTripcodes_CPU           = 0;
; 1602 : 
; 1603 : 	num_generated_tripcodes_spinlock.unlock();
; 1604 : 	
; 1605 : 	return ret;
; 1606 : }
; 1607 : 
; 1608 : double GetNumGeneratedTripcodesByGPU()
; 1609 : {
; 1610 : 	num_generated_tripcodes_spinlock.lock();
; 1611 : 
; 1612 : 	double ret =   (double)numGeneratedTripcodesByGPUInMillions * 1000000
; 1613 : 	             +         numGeneratedTripcodes_GPU;
; 1614 : 	numGeneratedTripcodesByGPUInMillions = 0;
; 1615 : 	numGeneratedTripcodes_GPU           = 0;
; 1616 : 
; 1617 : 	num_generated_tripcodes_spinlock.unlock();
; 1618 : 	
; 1619 : 	return ret;
; 1620 : }
; 1621 : 
; 1622 : void SetPauseState(BOOL newPauseState)
; 1623 : {
; 1624 : 	current_state_spinlock.lock();
; 1625 : 	isSearchPaused = newPauseState;
; 1626 : 	current_state_spinlock.unlock();
; 1627 : }
; 1628 : 
; 1629 : BOOL GetPauseState()
; 1630 : {
; 1631 : 	BOOL ret;
; 1632 : 	current_state_spinlock.lock();
; 1633 : 	ret = isSearchPaused;
; 1634 : 	current_state_spinlock.unlock();
; 1635 : 	return ret;
; 1636 : }
; 1637 : 
; 1638 : void SetErrorState()
; 1639 : {
; 1640 : 	current_state_spinlock.lock();
; 1641 : 	wasSearchAbortedWithError = TRUE;
; 1642 : 	current_state_spinlock.unlock();
; 1643 : }
; 1644 : 
; 1645 : BOOL GetErrorState()
; 1646 : {
; 1647 : 	BOOL ret;
; 1648 : 	current_state_spinlock.lock();
; 1649 : 	ret = wasSearchAbortedWithError;
; 1650 : 	current_state_spinlock.unlock();
; 1651 : 	return ret;
; 1652 : }
; 1653 : 
; 1654 : void SetTerminationState()
; 1655 : {
; 1656 : 	current_state_spinlock.lock();
; 1657 : 	wasSearchTerminated = TRUE;
; 1658 : 	current_state_spinlock.unlock();
; 1659 : }
; 1660 : 
; 1661 : BOOL GetTerminationState()
; 1662 : {
; 1663 : 	BOOL ret;
; 1664 : 
; 1665 : 	current_state_spinlock.lock();
; 1666 : 
; 1667 : 	// Prepare for termination.
; 1668 : 	if (options.redirection && nameEventForTerminatingWC[0] != 0x0 && eventForTerminating == NULL) {
; 1669 : 		eventForTerminating = OpenEvent(EVENT_ALL_ACCESS, false, nameEventForTerminatingWC);
; 1670 : 		ERROR0(!eventForTerminating, ERROR_EVENT, "Failed to open an event.") 
; 1671 : 	}
; 1672 : 
; 1673 : 	// Check to see if a termination event has occured.
; 1674 : 	if (eventForTerminating && WaitForSingleObject(eventForTerminating, 0) == WAIT_OBJECT_0)
; 1675 : 		wasSearchTerminated = true;
; 1676 : 
; 1677 : 	ret = wasSearchTerminated;
; 1678 : 
; 1679 : 	current_state_spinlock.unlock();
; 1680 : 
; 1681 : 	return ret;
; 1682 : }
; 1683 : 
; 1684 : double UpdateCurrentStatus(uint64_t startingTime)
; 1685 : {
; 1686 : 	current_state_spinlock.lock();
; 1687 : 	
; 1688 : 	double numGeneratedTripcodes_GPU = GetNumGeneratedTripcodesByGPU();
; 1689 : 	double numGeneratedTripcodes_CPU = GetNumGeneratedTripcodesByCPU();
; 1690 : 	uint64_t  endingTime = TIME_SINCE_EPOCH_IN_MILLISECONDS;
; 1691 : 	double deltaTime = (endingTime - startingTime             ) * 0.001;
; 1692 : 
; 1693 : 	totalNumGeneratedTripcodes     += numGeneratedTripcodes_GPU + numGeneratedTripcodes_CPU;
; 1694 : 	totalNumGeneratedTripcodes_GPU += numGeneratedTripcodes_GPU;
; 1695 : 	totalNumGeneratedTripcodes_CPU += numGeneratedTripcodes_CPU;
; 1696 : 	totalTime += deltaTime;
; 1697 : 	currentSpeed_thisProcess     = ((double)(numGeneratedTripcodes_GPU + numGeneratedTripcodes_CPU) / deltaTime);
; 1698 : 	currentSpeed_thisProcess_GPU = ((double) numGeneratedTripcodes_GPU                              / deltaTime);
; 1699 : 	currentSpeed_CPU        = ((double)numGeneratedTripcodes_CPU        / deltaTime);
; 1700 : 	if (maximumSpeed < currentSpeed_thisProcess)
; 1701 : 		maximumSpeed = currentSpeed_thisProcess;
; 1702 : 	prevTotalNumGeneratedTripcodes     = totalNumGeneratedTripcodes;
; 1703 : 	prevTotalNumGeneratedTripcodes_GPU = totalNumGeneratedTripcodes_GPU;
; 1704 : 	prevTotalNumGeneratedTripcodes_CPU = totalNumGeneratedTripcodes_CPU;
; 1705 : 	prevNumValidTripcodes     = numValidTripcodes;
; 1706 : 	prevNumDiscardedTripcodes = numDiscardedTripcodes;
; 1707 : 
; 1708 : 	current_state_spinlock.unlock();
; 1709 : 
; 1710 : 	return deltaTime;
; 1711 : }
; 1712 : 
; 1713 : BOOL IsFirstByteSJIS(unsigned char ch)
; 1714 : {
; 1715 : 	if (options.maximizeKeySpace) {

	test	edx, edx
	je	SHORT $LN86@SetCharact
	lea	eax, DWORD PTR [rcx+127]
	cmp	al, 3
	jbe	SHORT $LN91@SetCharact
	lea	eax, DWORD PTR [rcx+120]
	cmp	al, 23
	jbe	SHORT $LN91@SetCharact

; 1716 : 		return IS_FIRST_BYTE_SJIS_FULL(ch);

	add	cl, 32					; 00000020H
	cmp	cl, 10
	jmp	SHORT $LN193@SetCharact
$LN86@SetCharact:
	cmp	cl, 152					; 00000098H
	je	SHORT $LN95@SetCharact
	cmp	cl, 136					; 00000088H
	jbe	SHORT $LN95@SetCharact
	cmp	cl, 160					; 000000a0H
	jb	SHORT $LN91@SetCharact
$LN95@SetCharact:

; 1717 : 	} else {
; 1718 : 		return IS_FIRST_BYTE_SJIS_CONSERVATIVE(ch);

	add	cl, 32					; 00000020H
	cmp	cl, 9
$LN193@SetCharact:
	jbe	SHORT $LN91@SetCharact
$LN40@SetCharact:

; 229  : 	rand_s(&randomValue);

	lea	rcx, QWORD PTR randomValue$6[rsp]
	call	rand_s

; 1742 : 					key[i] = (unsigned char)(RandomByte() & 0xff);

	movzx	eax, BYTE PTR randomValue$6[rsp]
	jmp	SHORT $LN194@SetCharact
$LN91@SetCharact:

; 1743 : 				if (IsFirstByteSJIS(key[i]))

	movzx	ecx, BYTE PTR [r14+rsi]

; 230  : 	return (unsigned char)(randomValue & 0x000000ff);
; 231  : }
; 232  : 
; 233  : void ReleaseResources()
; 234  : {
; 235  : 	RELEASE_AND_SET_TO_NULL(expandedPatternArray, free);
; 236  : 	RELEASE_AND_SET_TO_NULL(tripcodeChunkArray,   free);
; 237  : 	RELEASE_AND_SET_TO_NULL(regexPatternArray,    free);
; 238  : 	if (tripcodeFile) {
; 239  : 		RELEASE_AND_SET_TO_NULL(tripcodeFile,     fclose);
; 240  : 	}
; 241  : 	if (eventForTerminating) {
; 242  : 		CloseHandle(eventForTerminating);
; 243  : 		eventForTerminating = NULL;
; 244  : 	}
; 245  : }
; 246  : 
; 247  : void PrintUsage()
; 248  : {
; 249  : 	printf("Usage: %s [-c] [-g] [-d device_no] [-x blocks_per_SM] [-y global_work_size] [-z local_work_size] [-o tripcode_file] [-f pattern_file] [-i] [-w]\n", COMMAND);
; 250  : 	getchar();
; 251  : 	exit(-1);
; 252  : }
; 253  : 
; 254  : void reset_cursor_pos(int n)
; 255  : {
; 256  : #ifdef _WINDOWS_
; 257  : 	CONSOLE_SCREEN_BUFFER_INFO scrnBufInfo;
; 258  : 	COORD                      cursorPos;
; 259  : 	if (!GetConsoleScreenBufferInfo(GetStdHandle(STD_OUTPUT_HANDLE), &scrnBufInfo))
; 260  : 		return;
; 261  : 	cursorPos.X = 0;
; 262  : 	cursorPos.Y = (scrnBufInfo.dwCursorPosition.Y + n) >= 0
; 263  : 		? (scrnBufInfo.dwCursorPosition.Y + n)
; 264  : 		: 0;
; 265  : 	SetConsoleCursorPosition(GetStdHandle(STD_OUTPUT_HANDLE), cursorPos);
; 266  : #else
; 267  : 	if (n >= 0) {
; 268  : 		std::cout << "\033[" << n << "B";
; 269  : 	} else {
; 270  : 		std::cout << "\033[" << -n << "A";
; 271  : 	}
; 272  : #endif
; 273  : }
; 274  : 
; 275  : #ifdef _WINDOWS_
; 276  : 
; 277  : void hide_cursor()
; 278  : {
; 279  : 	CONSOLE_CURSOR_INFO info;
; 280  : 
; 281  : 	info.bVisible = false;
; 282  : 	info.dwSize = 100;
; 283  : 	SetConsoleCursorInfo((HWND)GetStdHandle(STD_OUTPUT_HANDLE), &info);
; 284  : }
; 285  : 
; 286  : void show_cursor()
; 287  : {
; 288  : 	CONSOLE_CURSOR_INFO info;
; 289  : 
; 290  : 	info.bVisible = true;
; 291  : 	info.dwSize = 100;
; 292  : 	SetConsoleCursorInfo((HWND)GetStdHandle(STD_OUTPUT_HANDLE), &info); 
; 293  : }
; 294  : 
; 295  : #else
; 296  : 
; 297  : void hide_cursor()
; 298  : {
; 299  : }
; 300  : 
; 301  : void show_cursor()
; 302  : {
; 303  : }
; 304  : 
; 305  : #endif
; 306  : 
; 307  : void CreateKey8AndKey9(unsigned char *key)
; 308  : {
; 309  : 	ASSERT(lenTripcode == 10);
; 310  : 	if (options.useOneByteCharactersForKeys) {
; 311  : 		key[8] = keyCharTable_OneByte[RandomByte()];
; 312  : 		key[9] = keyCharTable_OneByte[RandomByte()];
; 313  : 	} else {
; 314  : 		BOOL isSecondByte = FALSE;
; 315  : 		for (int32_t i = 0; i < 8; ++i) {
; 316  : 			if (!isSecondByte) {
; 317  : 				isSecondByte = IS_FIRST_BYTE_SJIS_FULL(key[i]);
; 318  : 			} else {
; 319  : 				isSecondByte = FALSE;
; 320  : 			}
; 321  : 		}
; 322  : 		if (isSecondByte) {
; 323  : 			key[8] = keyCharTable_SecondByte[RandomByte()];
; 324  : 			key[9] = keyCharTable_OneByte   [RandomByte()];
; 325  : 		} else {
; 326  : 			key[8] = keyCharTable_FirstByte[RandomByte()];
; 327  : 			key[9] = (IS_FIRST_BYTE_SJIS_FULL(key[8]))
; 328  : 							? keyCharTable_SecondByte[RandomByte()]
; 329  : 							: keyCharTable_OneByte   [RandomByte()];
; 330  : 		}
; 331  : 	}
; 332  : }
; 333  : 
; 334  : double ProcessGPUOutput(unsigned char *partialKey, GPUOutput *outputArray, uint32_t sizeOutputArray, BOOL newFormat)
; 335  : {
; 336  : 	unsigned char  tripcode[MAX_LEN_TRIPCODE     + 1];
; 337  : 	unsigned char  key     [MAX_LEN_TRIPCODE_KEY + 1];
; 338  : 	double numGeneratedTripcodesInThisOutput = 0;
; 339  : 	
; 340  : 	tripcode[lenTripcode   ] = '\0';
; 341  : 	key     [lenTripcodeKey] = '\0';
; 342  : 	memcpy(key, partialKey, lenTripcodeKey);
; 343  : 	for (uint32_t indexOutput = 0; indexOutput < sizeOutputArray; indexOutput++){
; 344  : 		GPUOutput *output = &outputArray[indexOutput];
; 345  : 		AddToNumGeneratedTripcodesByGPU(output->numGeneratedTripcodes);
; 346  : 		numGeneratedTripcodesInThisOutput += output->numGeneratedTripcodes;
; 347  : 		if (output->numMatchingTripcodes > 0) {
; 348  : 			memcpy(tripcode, output->pair.tripcode.c, lenTripcode);
; 349  : 			if (lenTripcode == 12 && newFormat) {
; 350  : 				memcpy(key, output->pair.key.c, 4);
; 351  : 				key[7]  = output->pair.key.c[7];
; 352  : 				key[11] = output->pair.key.c[11];
; 353  : 			} else if (lenTripcode == 12) {
; 354  : 				memcpy(key + 7,  output->pair.key.c + 7, lenTripcode - 7);
; 355  : 			} else {
; 356  : 				ASSERT(lenTripcode == 10);
; 357  : 				memcpy(key,  output->pair.key.c, 8);
; 358  : 				CreateKey8AndKey9(key);
; 359  : 			}
; 360  : 			//printf("{%s, %s}\n", tripcode, key);
; 361  : 			ERROR0(!IsTripcodeChunkValid(tripcode),
; 362  : 				   ERROR_TRIPCODE_VERIFICATION_FAILED, 
; 363  : 				   GetErrorMessage(ERROR_TRIPCODE_VERIFICATION_FAILED));
; 364  : 			ProcessPossibleMatch(tripcode, key);
; 365  : 		}
; 366  : 	}
; 367  : 	return numGeneratedTripcodesInThisOutput;
; 368  : }
; 369  : 
; 370  : BOOL IsValidKey(unsigned char *key)
; 371  : {
; 372  : 	int32_t i;
; 373  : 	BOOL isSecondByteSJIS = FALSE;
; 374  : 	char results[13] = {0x00, 0x00, 0x00, 0x00, 0x00, 0x00, 0x00, 0x00, 0x00, 0x00, 0x00, 0x00, 0x00};
; 375  : 	
; 376  : 	if (key[0] == '#' || key[0] == '$') {
; 377  : #ifdef DEBUG_PRINT_INVALID_KEY_INFO
; 378  : 		printf("  results: %c                                                     \n", key[0]);
; 379  : #endif
; 380  : 		return FALSE;
; 381  : 	}
; 382  : 
; 383  : 	for (i = 0; i < lenTripcode; ++i) {
; 384  : 		if (!isSecondByteSJIS && IS_ONE_BYTE_KEY_CHAR(key[i])) {
; 385  : 			// Don't do anything
; 386  : 			results[i] = 'O';
; 387  : 		} else if (!isSecondByteSJIS && i < lenTripcode - 1 && IS_FIRST_BYTE_SJIS_FULL(key[i])) {
; 388  : 			isSecondByteSJIS = TRUE;
; 389  : 			results[i] = '1';
; 390  : 		} else if (isSecondByteSJIS && IS_SECOND_BYTE_SJIS(key[i])) {
; 391  : 		    isSecondByteSJIS = FALSE;
; 392  : 		    if (!IS_VALID_SJIS_CHAR(key[i - 1], key[i])) {
; 393  : #ifdef DEBUG_PRINT_INVALID_KEY_INFO
; 394  : 				printf("  results: %sx                                                     \n", results);
; 395  : 				printf("  key[%2d]: 0x%02x ('%c')                                            \n", i, key[i], key[i]);
; 396  : #endif
; 397  : 				return FALSE;
; 398  : 			}
; 399  : 			results[i] = '2';
; 400  : 		} else {
; 401  : #ifdef DEBUG_PRINT_INVALID_KEY_INFO
; 402  : 			printf("  results: %sX                                                     \n", results);
; 403  : 			printf("  key[%2d]: 0x%02x ('%c')                                            \n", i, key[i], key[i]);
; 404  : #endif
; 405  : 			return FALSE;
; 406  : 		}
; 407  : 	}
; 408  : 	return TRUE;
; 409  : }
; 410  : 
; 411  : void CreateCharacterTables(void)
; 412  : {
; 413  : 	unsigned char keyChar;
; 414  : 	int32_t i;
; 415  : 
; 416  : #if FALSE
; 417  : 	for (i = 0; i < 64; ++i)
; 418  : 		base64CharTable[i] = i + ((i < 26) ?  'A'       :
; 419  : 		                          (i < 52) ? ('a' - 26) :
; 420  : 		                          (i < 62) ? ('0' - 52) :
; 421  : 		                                     ('.' - 62));
; 422  : #endif
; 423  : 
; 424  : 	numFirstByte = numSecondByte = numOneByte = 0;
; 425  : 
; 426  : 	// Set keyCharTable_OneByte[]
; 427  : 	if (options.useOnlyASCIICharactersForKeys) {
; 428  : 		do {
; 429  : 			keyChar = RandomByte();
; 430  : 		} while (!IS_ASCII_KEY_CHAR(keyChar));
; 431  : 		for (i = 0; i < SIZE_KEY_CHAR_TABLE; ++i) {
; 432  : 			keyChar = ((int32_t)keyChar + 1) & 0xff;
; 433  : 			while (!IS_ASCII_KEY_CHAR(keyChar))
; 434  : 				keyChar = ((int32_t)keyChar + 1) & 0xff;
; 435  : 			keyCharTable_OneByte[i] = keyChar;
; 436  : 		}
; 437  : 	} else {
; 438  : 		do {
; 439  : 			keyChar = RandomByte();
; 440  : 		} while (!IS_ONE_BYTE_KEY_CHAR(keyChar));
; 441  : 		for (i = 0; i < SIZE_KEY_CHAR_TABLE; ++i) {
; 442  : 			keyChar = ((int32_t)keyChar + 1) & 0xff;
; 443  : 			while (!IS_ONE_BYTE_KEY_CHAR(keyChar))
; 444  : 				keyChar = ((int32_t)keyChar + 1) & 0xff;
; 445  : 			keyCharTable_OneByte[i] = keyChar;
; 446  : 		}
; 447  : 	}
; 448  : 
; 449  : 	// Set keyCharTable_FirstByte[], keyCharTable_SecondByte[], and keyCharTable_SecondByteAndOneByte[].
; 450  : 	if (options.useOnlyASCIICharactersForKeys) {
; 451  : 		for (i = 0; i < SIZE_KEY_CHAR_TABLE; ++i) {
; 452  : 			keyCharTable_FirstByte [i]           = keyCharTable_OneByte[i];
; 453  : 			keyCharTable_SecondByte[i]           = keyCharTable_OneByte[i];
; 454  : 			keyCharTable_SecondByteAndOneByte[i] = keyCharTable_OneByte[i];
; 455  : 		}
; 456  : 		for (int32_t i = 0; i < 256; ++i) {
; 457  : 			if (IS_ASCII_KEY_CHAR(i)) {
; 458  : 				++numFirstByte;
; 459  : 				++numSecondByte;
; 460  : 				++numOneByte;
; 461  : 			}
; 462  : 		}
; 463  : 	} else if (options.useOneByteCharactersForKeys) {
; 464  : 		for (i = 0; i < SIZE_KEY_CHAR_TABLE; ++i) {
; 465  : 			keyCharTable_FirstByte           [i] = keyCharTable_OneByte[i];
; 466  : 			keyCharTable_SecondByte          [i] = keyCharTable_OneByte[i];
; 467  : 			keyCharTable_SecondByteAndOneByte[i] = keyCharTable_OneByte[i];
; 468  : 		}
; 469  : 		for (int32_t i = 0; i < 256; ++i) {
; 470  : 			if (IS_ONE_BYTE_KEY_CHAR(i)) {
; 471  : 				++numFirstByte;
; 472  : 				++numSecondByte;
; 473  : 				++numOneByte;
; 474  : 			}
; 475  : 		}
; 476  : 	} else {
; 477  : 		// Set keyCharTable_FirstByte[].
; 478  : 		do {
; 479  : 			keyChar = RandomByte();
; 480  : 		} while (!(IS_ONE_BYTE_KEY_CHAR(keyChar) || IsFirstByteSJIS(keyChar)));
; 481  : 		for (i = 0; i < SIZE_KEY_CHAR_TABLE; ++i) {
; 482  : 			keyCharTable_FirstByte[i] = keyChar;
; 483  : 			do {
; 484  : 				keyChar = ((int32_t)keyChar + 1) & 0xff;
; 485  : 			} while (!(IS_ONE_BYTE_KEY_CHAR(keyChar) || IsFirstByteSJIS(keyChar)));
; 486  : 		}
; 487  : 
; 488  : 		// Set keyCharTable_SecondByte[].
; 489  : 		do {
; 490  : 			keyChar = RandomByte();
; 491  : 		} while (!IS_SECOND_BYTE_SJIS(keyChar));
; 492  : 		for (i = 0; i < SIZE_KEY_CHAR_TABLE; ++i) {
; 493  : 			keyCharTable_SecondByte[i] = keyChar;
; 494  : 			do {
; 495  : 				keyChar = ((int32_t)keyChar + 1) & 0xff;
; 496  : 			} while (!IS_SECOND_BYTE_SJIS(keyChar));
; 497  : 		}
; 498  : 
; 499  : 		// Set keyCharTable_SecondByteAndOneByte[].
; 500  : 		do {
; 501  : 			keyChar = RandomByte();
; 502  : 		} while (!(IS_SECOND_BYTE_SJIS(keyChar) && IS_ONE_BYTE_KEY_CHAR(keyChar)));
; 503  : 		for (i = 0; i < SIZE_KEY_CHAR_TABLE; ++i) {
; 504  : 			keyCharTable_SecondByteAndOneByte[i] = keyChar;
; 505  : 			do {
; 506  : 				keyChar = ((int32_t)keyChar + 1) & 0xff;
; 507  : 			} while (!(IS_SECOND_BYTE_SJIS(keyChar) && IS_ONE_BYTE_KEY_CHAR(keyChar)));
; 508  : 		}
; 509  : 
; 510  : 		// Count characters in each table.
; 511  : 		for (int32_t i = 0; i < 256; ++i) {
; 512  : 			if (IS_ONE_BYTE_KEY_CHAR(i) || IsFirstByteSJIS(i) ) ++numFirstByte;
; 513  : 			if (                           IS_SECOND_BYTE_SJIS(i)) ++numSecondByte;
; 514  : 			if (IS_ONE_BYTE_KEY_CHAR(i)                          ) ++numOneByte;
; 515  : 		}
; 516  : 	}
; 517  : #if FALSE
; 518  : 	printf("numFirstByte  = %d\n", numFirstByte);
; 519  : 	printf("numSecondByte = %d\n", numSecondByte);
; 520  : 	printf("numOneByte    = %d\n", numOneByte);
; 521  : #endif
; 522  : }
; 523  : 
; 524  : void DisplayCopyrights()
; 525  : {
; 526  : #ifdef ENGLISH_VERSION
; 527  : 	printf("%s English\n", PRODUCT_NAME);
; 528  : 	printf("[compiled at %s on %s (PST)]\n", __TIME__, __DATE__);
; 529  : 	printf("Copyright (C) 2014-2016 !/Meriken/. <meriken.ygch.net@gmail.com>\n");
; 530  : #else
; 531  : 	printf("%s\n", PRODUCT_NAME);
; 532  : 	printf("[compiled at %s on %s (PST)]\n", __TIME__, __DATE__);
; 533  : 	printf("Copyright (C) 2011-2016 %c%c/Meriken/. <meriken.ygch.net@gmail.com>\n", 0x81, 0x9f);
; 534  : #endif
; 535  : 	printf("This program comes with ABSOLUTELY NO WARRANTY.\n");
; 536  :     printf("This is free software, and you are welcome to redistribute it\n");
; 537  :     printf("under certain conditions.\n");
; 538  :     printf("\n");
; 539  : }
; 540  : 
; 541  : void UpdateCUDADeviceStatus(struct CUDADeviceSearchThreadInfo *info, char *status)
; 542  : {
; 543  : 	cuda_device_search_thread_info_array_spinlock.lock();
; 544  : 	strcpy(info->status, status);
; 545  : 	info->timeLastUpdated = TIME_SINCE_EPOCH_IN_MILLISECONDS;
; 546  : 	cuda_device_search_thread_info_array_spinlock.unlock();
; 547  : }
; 548  : 
; 549  : void UpdateOpenCLDeviceStatus(struct OpenCLDeviceSearchThreadInfo *info, char *status)
; 550  : {
; 551  : 	opencl_device_search_thread_info_array_spinlock.lock();
; 552  : 	ASSERT(!info->runChildProcess);
; 553  : 	strcpy(info->status, status);
; 554  : 	info->timeLastUpdated = TIME_SINCE_EPOCH_IN_MILLISECONDS;
; 555  : 	opencl_device_search_thread_info_array_spinlock.unlock();
; 556  : }
; 557  : 
; 558  : void UpdateOpenCLDeviceStatus_ChildProcess(struct OpenCLDeviceSearchThreadInfo *info, char *status, double currentSpeed, double averageSpeed, double totalNumGeneratedTripcodes, uint32_t numDiscardedTripcodes, boost::process::child *child_process)
; 559  : {
; 560  : 	opencl_device_search_thread_info_array_spinlock.lock();
; 561  : 	ASSERT(info->runChildProcess);
; 562  : 	strcpy(info->status, status);
; 563  : 	info->currentSpeed = currentSpeed;
; 564  : 	info->averageSpeed = averageSpeed;
; 565  : 	info->totalNumGeneratedTripcodes = totalNumGeneratedTripcodes;
; 566  : 	info->numDiscardedTripcodes = numDiscardedTripcodes;
; 567  : 	info->child_process = child_process;
; 568  : 	info->timeLastUpdated = TIME_SINCE_EPOCH_IN_MILLISECONDS;
; 569  : 	opencl_device_search_thread_info_array_spinlock.unlock();
; 570  : }
; 571  : 
; 572  : void CheckSearchThreads()
; 573  : {
; 574  : 	cuda_device_search_thread_info_array_spinlock.lock();
; 575  : 	for (int32_t index = 0; index < numCUDADeviceSearchThreads; ++index) {
; 576  : 		struct CUDADeviceSearchThreadInfo *info = &CUDADeviceSearchThreadInfoArray[index];
; 577  : 		uint64_t  currentTime = TIME_SINCE_EPOCH_IN_MILLISECONDS;
; 578  : 		uint64_t  deltaTime = currentTime - info->timeLastUpdated;
; 579  : 		// if (deltaTime > 60 * 1000)
; 580  : 		//	strcpy(info->status, "Search thread became unresponsive.");
; 581  : 		//ERROR0(deltaTime > 1 * 60 * 1000, ERROR_SEARCH_THREAD_UNRESPONSIVE, "Search thread became unresponsive.");
; 582  : 		///*
; 583  : 		if (deltaTime > 60 * 1000) {
; 584  : 			strcpy(info->status, "Restarting search thread...");
; 585  : 			auto native_handle = cuda_device_search_threads[index]->native_handle();
; 586  : 			cuda_device_search_threads[index]->detach();
; 587  : 			delete cuda_device_search_threads[index];
; 588  : #ifdef _WINDOWS_
; 589  : 			TerminateThread(native_handle, 0);
; 590  : #elif defined(_POSIX_THREADS)
; 591  : 			pthread_setcanceltype(PTHREAD_CANCEL_ASYNCHRONOUS, NULL);
; 592  : 			pthread_cancel(native_handle);
; 593  : #endif
; 594  : 			cuda_device_search_threads[index] = new std::thread((lenTripcode == 10) 
; 595  : 														          ? Thread_SearchForDESTripcodesOnCUDADevice
; 596  : 															      : Thread_SearchForSHA1TripcodesOnCUDADevice,
; 597  : 															    &(CUDADeviceSearchThreadInfoArray[index]));
; 598  : 		}
; 599  : 		//*/
; 600  : 	}
; 601  : 	cuda_device_search_thread_info_array_spinlock.unlock();
; 602  : 
; 603  : 	opencl_device_search_thread_info_array_spinlock.lock();
; 604  : 	for (int32_t index = 0; index < numOpenCLDeviceSearchThreads; ++index) {
; 605  : 		struct OpenCLDeviceSearchThreadInfo *info = &openCLDeviceSearchThreadInfoArray[index];
; 606  : 		uint64_t  currentTime = TIME_SINCE_EPOCH_IN_MILLISECONDS;
; 607  : 		uint64_t  deltaTime = currentTime - info->timeLastUpdated;
; 608  : 		//ERROR0(deltaTime > 1 * 60 * 1000, ERROR_SEARCH_THREAD_UNRESPONSIVE, "Search thread became unresponsive.");
; 609  : 		///*
; 610  : 		if (deltaTime > 60 * 1000) {
; 611  : 			// If we restart the search thread while the OpenCL kernel is running, amdocl64.dll may crash.
; 612  : 			ERROR0(!info->runChildProcess, ERROR_SEARCH_THREAD_UNRESPONSIVE, "Search thread became unresponsive.");
; 613  : 
; 614  : 			strcpy(info->status, "[process] Restarting search thread...");
; 615  : 			auto native_handle = opencl_device_search_threads[index]->native_handle();
; 616  : 			opencl_device_search_threads[index]->detach();
; 617  : 			delete opencl_device_search_threads[index];
; 618  : #if 0
; 619  : 			if (info->child_process) {
; 620  : 				boost_process_spinlock.lock();
; 621  : 				boost::process::terminate(*(info->child_process));
; 622  : 				boost_process_spinlock.unlock();
; 623  : 			}
; 624  : #endif
; 625  : 			info->child_process = NULL;
; 626  : #ifdef _WINDOWS_
; 627  : 			TerminateThread(native_handle, 0);
; 628  : #elif defined(_POSIX_THREADS)
; 629  : 			pthread_setcanceltype(PTHREAD_CANCEL_ASYNCHRONOUS, NULL);
; 630  : 			pthread_cancel(native_handle);
; 631  : #endif
; 632  : 			info->currentSpeed = 0;
; 633  : 			info->averageSpeed = 0;
; 634  : 			++info->numRestarts;
; 635  : 
; 636  : 			uint32_t winThreadID;
; 637  : 			opencl_device_search_threads[index] = new std::thread((lenTripcode == 10) 
; 638  : 																	       ? Thread_SearchForDESTripcodesOnOpenCLDevice
; 639  : 													                       : Thread_SearchForSHA1TripcodesOnOpenCLDevice,
; 640  : 																	   &(openCLDeviceSearchThreadInfoArray[index]));
; 641  : 		}
; 642  : 		//*/
; 643  : 	}
; 644  : 	opencl_device_search_thread_info_array_spinlock.unlock();
; 645  : }
; 646  : 
; 647  : void KeepSearchThreadsAlive()
; 648  : {
; 649  : 	cuda_device_search_thread_info_array_spinlock.lock();
; 650  : 	for (int32_t index = 0; index < numCUDADeviceSearchThreads; ++index)
; 651  : 		CUDADeviceSearchThreadInfoArray[index].timeLastUpdated = TIME_SINCE_EPOCH_IN_MILLISECONDS;
; 652  : 	cuda_device_search_thread_info_array_spinlock.unlock();
; 653  : 
; 654  : 	opencl_device_search_thread_info_array_spinlock.lock();
; 655  : 	for (int32_t index = 0; index < numOpenCLDeviceSearchThreads; ++index)
; 656  : 		openCLDeviceSearchThreadInfoArray[index].timeLastUpdated = TIME_SINCE_EPOCH_IN_MILLISECONDS;
; 657  : 	opencl_device_search_thread_info_array_spinlock.unlock();
; 658  : }
; 659  : 
; 660  : void PrintStatus()
; 661  : {
; 662  : 	if (GetErrorState() || GetTerminationState())
; 663  : 		return;
; 664  : 
; 665  : 	current_state_spinlock.lock();
; 666  : 
; 667  : 	char msg[MAX_NUM_LINES_STATUS_MSG][LEN_LINE_BUFFER_FOR_SCREEN];
; 668  : 	int32_t lineCount = 0;
; 669  : 
; 670  : #define NEXT_LINE &(msg[lineCount++][0])
; 671  : 
; 672  : 	sprintf(NEXT_LINE, "%-79s", "");
; 673  : 	sprintf(NEXT_LINE, "%-79s", "STATUS");
; 674  : 	sprintf(NEXT_LINE, "%-79s", "======");
; 675  : 	sprintf(NEXT_LINE, "  Performing a %s search on %s",
; 676  : 			(searchMode == SEARCH_MODE_FORWARD_MATCHING             ) ? "forward-matching"  :
; 677  : 			(searchMode == SEARCH_MODE_BACKWARD_MATCHING            ) ? "backward-matching" :
; 678  : 			(searchMode == SEARCH_MODE_FORWARD_AND_BACKWARD_MATCHING) ? "forward- and backward-matching" :
; 679  : 	                                                                    "flexible",
; 680  : 			(searchDevice == SEARCH_DEVICE_CPU) ? "CPU" :
; 681  : 			(searchDevice == SEARCH_DEVICE_GPU) ? "GPU(s)" :
; 682  : 	                                              "CPU and GPU(s)");
; 683  : 	if (minLenExpandedPattern != maxLenExpandedPattern) {
; 684  : 		sprintf(NEXT_LINE,
; 685  : 				"  for %d pattern%s (%d chunk%s) with %d to %d characters%s",
; 686  : 				numExpandedPatterns,
; 687  : 				(numExpandedPatterns == 1) ? "" : "s",
; 688  : 				numTripcodeChunk,
; 689  : 				(numTripcodeChunk == 1) ? "" : "s",
; 690  : 				minLenExpandedPattern,
; 691  : 				maxLenExpandedPattern,
; 692  : 				(searchDevice == SEARCH_DEVICE_CPU) ? "." : ":");
; 693  : 		
; 694  : 	} else {
; 695  : 		sprintf(NEXT_LINE,
; 696  : 				"  for %d pattern%s (%d chunk%s) with %d characters%s",
; 697  : 				numExpandedPatterns,
; 698  : 				(numExpandedPatterns == 1) ? "" : "s",
; 699  : 				numTripcodeChunk,
; 700  : 				(numTripcodeChunk == 1) ? "" : "s",
; 701  : 				minLenExpandedPattern,
; 702  : 				(searchDevice == SEARCH_DEVICE_CPU) ? "." : ":");
; 703  : 	}
; 704  : 	if (searchDevice != SEARCH_DEVICE_CPU && CUDADeviceSearchThreadInfoArray) {
; 705  : 		cuda_device_search_thread_info_array_spinlock.lock();
; 706  : 		if (numCUDADeviceSearchThreads == 1) {
; 707  : 			sprintf(NEXT_LINE, "      CUDA0:     %s", CUDADeviceSearchThreadInfoArray[0].status);
; 708  : 		} else {
; 709  : 			for (int32_t i = 0; i < numCUDADeviceSearchThreads; ++i)
; 710  : 				sprintf(NEXT_LINE, "      CUDA%d-%d:     %s", CUDADeviceSearchThreadInfoArray[i].CUDADeviceIndex, CUDADeviceSearchThreadInfoArray[i].subindex, CUDADeviceSearchThreadInfoArray[i].status);
; 711  : 		}
; 712  : 		cuda_device_search_thread_info_array_spinlock.unlock();
; 713  : 	}
; 714  : 	if (searchDevice != SEARCH_DEVICE_CPU && openCLDeviceSearchThreadInfoArray) {
; 715  : 		opencl_device_search_thread_info_array_spinlock.lock();
; 716  : 		if (numOpenCLDeviceSearchThreads == 1) {
; 717  : 			sprintf(NEXT_LINE, "      OpenCL0:   %s", openCLDeviceSearchThreadInfoArray[0].status);
; 718  : 		} else {
; 719  : 			for (int32_t i = 0; i < numOpenCLDeviceSearchThreads; ++i) {
; 720  : 				if (openCLDeviceSearchThreadInfoArray[i].subindex < 0) {
; 721  : 					sprintf(NEXT_LINE, "      OpenCL%d:   %s",  openCLDeviceSearchThreadInfoArray[i].index, openCLDeviceSearchThreadInfoArray[i].status);
; 722  : 				} else {
; 723  : 					sprintf(NEXT_LINE, "      OpenCL%d-%d: %s", openCLDeviceSearchThreadInfoArray[i].index, openCLDeviceSearchThreadInfoArray[i].subindex, openCLDeviceSearchThreadInfoArray[i].status);
; 724  : 				}
; 725  : 			}
; 726  : 		}
; 727  : 		opencl_device_search_thread_info_array_spinlock.unlock();
; 728  : 	}
; 729  : #if FALSE
; 730  : 	if (CUDADeviceSearchThreadInfoArray && IsCUDADeviceOptimizationInProgress())
; 731  : 		sprintf(NEXT_LINE, "      [optimization in progress]");
; 732  : #endif
; 733  : 
; 734  : 	double currentSpeed_childProcesses = 0;
; 735  : 	double averageSpeed_childProcesses = 0;
; 736  : 	double totalNumGeneratedTripcodes_childProcesses = 0;
; 737  : 	uint32_t numDiscardedTripcodes_childProcesses = 0;
; 738  : 	// printf("numOpenCLDeviceSearchThreads = %d\n", numOpenCLDeviceSearchThreads);
; 739  : 	if (openCLDeviceSearchThreadInfoArray && openCLRunChildProcesses) {
; 740  : 		opencl_device_search_thread_info_array_spinlock.lock();
; 741  : 		for (int32_t i = 0; i < numOpenCLDeviceSearchThreads; ++i) {
; 742  : 			// printf("deviceNo = %d\n", openCLDeviceSearchThreadInfoArray[i].deviceNo);
; 743  : 			if (!(openCLDeviceSearchThreadInfoArray[i].runChildProcess))
; 744  : 				continue;
; 745  : 			currentSpeed_childProcesses               += openCLDeviceSearchThreadInfoArray[i].currentSpeed;
; 746  : 			averageSpeed_childProcesses               += openCLDeviceSearchThreadInfoArray[i].averageSpeed;
; 747  : 			totalNumGeneratedTripcodes_childProcesses += openCLDeviceSearchThreadInfoArray[i].totalNumGeneratedTripcodes;
; 748  : 			numDiscardedTripcodes_childProcesses      += openCLDeviceSearchThreadInfoArray[i].numDiscardedTripcodes;
; 749  : 		}
; 750  : 		opencl_device_search_thread_info_array_spinlock.unlock();
; 751  : 	}
; 752  : 
; 753  : 	double averageSpeed;
; 754  : 	double averageSpeed_GPU;
; 755  : 	double averageSpeed_CPU;
; 756  : 	double timeForOneMatch;
; 757  : 	double actualMatchingProb;
; 758  : 	double matchingProbDiff;
; 759  : 	double invalidTripcodeRatio = (prevNumValidTripcodes + prevNumDiscardedTripcodes > 0)
; 760  : 			                            ? ((double)(prevNumDiscardedTripcodes) / (prevNumValidTripcodes + prevNumDiscardedTripcodes))
; 761  : 										: 0;
; 762  : 	if (totalTime > 0) {
; 763  : 		uint32_t remainingSeconds = (uint32_t)totalTime;
; 764  : 		uint32_t totalTimeDays    = remainingSeconds / (24 * 60 * 60); remainingSeconds -= totalTimeDays    * 24 * 60 * 60;
; 765  : 		uint32_t totalTimeHours   = remainingSeconds / (     60 * 60); remainingSeconds -= totalTimeHours        * 60 * 60;
; 766  : 		uint32_t totalTimeMinutes = remainingSeconds / (          60); remainingSeconds -= totalTimeMinutes           * 60;
; 767  : 		uint32_t totalTimeSeconds = remainingSeconds;
; 768  : 		
; 769  : 		sprintf(NEXT_LINE, "");
; 770  : 		sprintf(NEXT_LINE, "  %.3lfT tripcodes were generated in %dd %dh %dm %02ds at:",
; 771  : 				(prevTotalNumGeneratedTripcodes + totalNumGeneratedTripcodes_childProcesses) * 0.000000000001,
; 772  : 				totalTimeDays,
; 773  : 				totalTimeHours,
; 774  : 				totalTimeMinutes,
; 775  : 				totalTimeSeconds);
